Filename:            SHEEP.EXE
Type:                Segmented executable
Module description:  MINI
Module name:         MINI

Imported modules:
  1: KERNEL
  2: GDI
  3: USER
  4: MMSYSTEM
  5: SHELL

Exported names by location:

Program entry point:   1:0438
WinMain:               1:1C50

-- Segment: 1 -- Type: 16 bit ------------------------------------------------

  1.0000  0000                     add     byte ptr [bx+si], al
  1.0002  0000                     add     byte ptr [bx+si], al
  1.0004  0000                     add     byte ptr [bx+si], al
  1.0006  0000                     add     byte ptr [bx+si], al
  1.0008  0000                     add     byte ptr [bx+si], al
  1.000A  0000                     add     byte ptr [bx+si], al
  1.000C  0000                     add     byte ptr [bx+si], al
  1.000E  0000                     add     byte ptr [bx+si], al
  1.0010  C8060000                 enter   0006, 00
  1.0014  9C                       pushf  
  1.0015  1E                       push    ds
  1.0016  6657                     push    edi
  1.0018  6656                     push    esi
  1.001A  FC                       cld    
  1.001B  6633FF                   xor     edi, edi
  1.001E  6633F6                   xor     esi, esi
  1.0021  6633C0                   xor     eax, eax
  1.0024  6633C9                   xor     ecx, ecx
  1.0027  6633D2                   xor     edx, edx
  1.002A  C57606                   lds     si, [bp+06]
  1.002D  C47E0A                   les     di, [bp+0A]
  1.0030  E8E103                   call    0414
  1.0033  50                       push    ax
  1.0034  66A5                     movsd  
  1.0036  66AD                     lodsd  
  1.0038  8946FA                   mov     [bp-06], ax
  1.003B  66AB                     stosd  
  1.003D  66AD                     lodsd  
  1.003F  668BC8                   mov     ecx, eax
  1.0042  66AB                     stosd  
  1.0044  66AD                     lodsd  
  1.0046  66B801000100             mov     eax, 00010001
  1.004C  66AB                     stosd  
  1.004E  66A5                     movsd  
  1.0050  66AD                     lodsd  
  1.0052  8B46FA                   mov     ax, [bp-06]
  1.0055  051F00                   add     ax, 001F
  1.0058  C1E805                   shr     ax, 05
  1.005B  8946FC                   mov     [bp-04], ax
  1.005E  C1E002                   shl     ax, 02
  1.0061  F7E1                     mul     cx
  1.0063  66AB                     stosd  
  1.0065  66A5                     movsd  
  1.0067  66A5                     movsd  
  1.0069  66AD                     lodsd  
  1.006B  66B802000000             mov     eax, 00000002
  1.0071  66AB                     stosd  
  1.0073  66AD                     lodsd  
  1.0075  66B802000000             mov     eax, 00000002
  1.007B  66AB                     stosd  
  1.007D  58                       pop     ax
  1.007E  C1E002                   shl     ax, 02
  1.0081  03F0                     add     si, ax
  1.0083  66B8FFFFFF00             mov     eax, 00FFFFFF
  1.0089  66AB                     stosd  
  1.008B  6633C0                   xor     eax, eax
  1.008E  66AB                     stosd  
  1.0090  678A06                   mov     al, byte ptr [esi]
  1.0093  8846FE                   mov     byte ptr [bp-02], al

  1.0096 >51                       push    cx
  1.0097  8B56FA                   mov     dx, [bp-06]
  1.009A  8B4EFC                   mov     cx, [bp-04]

  1.009D >51                       push    cx
  1.009E  6633DB                   xor     ebx, ebx
  1.00A1  B90800                   mov     cx, 0008

  1.00A4 >83FA00                   cmp     dx, 0000
  1.00A7  7E47                     jle     00F0
  1.00A9  90                       nop    
  1.00AA  90                       nop    
  1.00AB  6667AD                   lodsd  
  1.00AE  83EA04                   sub     dx, 0004
  1.00B1  3A46FE                   cmp     al, byte ptr [bp-02]
  1.00B4  0F94C0                   sete    al
  1.00B7  3C01                     cmp     al, 01
  1.00B9  66D1D3                   rcl     ebx, 1
  1.00BC  66C1E808                 shr     eax, 08
  1.00C0  3A46FE                   cmp     al, byte ptr [bp-02]
  1.00C3  0F94C0                   sete    al
  1.00C6  3C01                     cmp     al, 01
  1.00C8  66D1D3                   rcl     ebx, 1
  1.00CB  66C1E808                 shr     eax, 08
  1.00CF  3A46FE                   cmp     al, byte ptr [bp-02]
  1.00D2  0F94C0                   sete    al
  1.00D5  3C01                     cmp     al, 01
  1.00D7  66D1D3                   rcl     ebx, 1
  1.00DA  66C1E808                 shr     eax, 08
  1.00DE  3A46FE                   cmp     al, byte ptr [bp-02]
  1.00E1  0F94C0                   sete    al
  1.00E4  3C01                     cmp     al, 01
  1.00E6  66D1D3                   rcl     ebx, 1
  1.00E9  66C1E808                 shr     eax, 08
  1.00ED  EB05                     jmp     00F4
  1.00EF  90                       nop    

  1.00F0 >66C1E304                 shl     ebx, 04

  1.00F4 >E2AE                     loop    00A4
  1.00F6  668BC3                   mov     eax, ebx
  1.00F9  86C4                     xchg    al, ah
  1.00FB  66C1C810                 ror     eax, 10
  1.00FF  86C4                     xchg    al, ah
  1.0101  6667AB                   stosd  
  1.0104  59                       pop     cx
  1.0105  E296                     loop    009D
  1.0107  59                       pop     cx
  1.0108  E28C                     loop    0096
  1.010A  665E                     pop     esi
  1.010C  665F                     pop     edi
  1.010E  1F                       pop     ds
  1.010F  9D                       popf   
  1.0110  C9                       leave  
  1.0111  CA0800                   retf    0008
  1.0114  C8080000                 enter   0008, 00
  1.0118  9C                       pushf  
  1.0119  1E                       push    ds
  1.011A  6657                     push    edi
  1.011C  6656                     push    esi
  1.011E  FC                       cld    
  1.011F  C746FC0000               mov     word ptr [bp-04], 0000
  1.0124  6633FF                   xor     edi, edi
  1.0127  6633F6                   xor     esi, esi
  1.012A  6633C0                   xor     eax, eax
  1.012D  6633C9                   xor     ecx, ecx
  1.0130  6633D2                   xor     edx, edx
  1.0133  C57608                   lds     si, [bp+08]
  1.0136  C47E0C                   les     di, [bp+0C]
  1.0139  E8D802                   call    0414
  1.013C  50                       push    ax
  1.013D  66A5                     movsd  
  1.013F  66AD                     lodsd  
  1.0141  8946F8                   mov     [bp-08], ax
  1.0144  66AB                     stosd  
  1.0146  66AD                     lodsd  
  1.0148  668BC8                   mov     ecx, eax
  1.014B  66AB                     stosd  
  1.014D  66AD                     lodsd  
  1.014F  66B801000100             mov     eax, 00010001
  1.0155  66AB                     stosd  
  1.0157  66A5                     movsd  
  1.0159  66AD                     lodsd  
  1.015B  8B46F8                   mov     ax, [bp-08]
  1.015E  051F00                   add     ax, 001F
  1.0161  C1E805                   shr     ax, 05
  1.0164  8946FA                   mov     [bp-06], ax
  1.0167  C1E002                   shl     ax, 02
  1.016A  F7E1                     mul     cx
  1.016C  66AB                     stosd  
  1.016E  66A5                     movsd  
  1.0170  66A5                     movsd  
  1.0172  66AD                     lodsd  
  1.0174  66B802000000             mov     eax, 00000002
  1.017A  66AB                     stosd  
  1.017C  66AD                     lodsd  
  1.017E  66B802000000             mov     eax, 00000002
  1.0184  66AB                     stosd  
  1.0186  6656                     push    esi
  1.0188  8B4606                   mov     ax, [bp+06]
  1.018B  C1E002                   shl     ax, 02
  1.018E  03F0                     add     si, ax
  1.0190  66A5                     movsd  
  1.0192  6633C0                   xor     eax, eax
  1.0195  66AB                     stosd  
  1.0197  665E                     pop     esi
  1.0199  58                       pop     ax
  1.019A  C1E002                   shl     ax, 02
  1.019D  03F0                     add     si, ax
  1.019F  8B4606                   mov     ax, [bp+06]
  1.01A2  8846FE                   mov     byte ptr [bp-02], al

  1.01A5 >51                       push    cx
  1.01A6  8B56F8                   mov     dx, [bp-08]
  1.01A9  8B4EFA                   mov     cx, [bp-06]

  1.01AC >51                       push    cx
  1.01AD  6633DB                   xor     ebx, ebx
  1.01B0  B90800                   mov     cx, 0008

  1.01B3 >83FA00                   cmp     dx, 0000
  1.01B6  7E51                     jle     0209
  1.01B8  90                       nop    
  1.01B9  90                       nop    
  1.01BA  6667AD                   lodsd  
  1.01BD  83EA04                   sub     dx, 0004
  1.01C0  3A46FE                   cmp     al, byte ptr [bp-02]
  1.01C3  0F94C0                   sete    al
  1.01C6  3C01                     cmp     al, 01
  1.01C8  66D1D3                   rcl     ebx, 1
  1.01CB  66C1E808                 shr     eax, 08
  1.01CF  3A46FE                   cmp     al, byte ptr [bp-02]
  1.01D2  0F94C0                   sete    al
  1.01D5  3C01                     cmp     al, 01
  1.01D7  66D1D3                   rcl     ebx, 1
  1.01DA  66C1E808                 shr     eax, 08
  1.01DE  3A46FE                   cmp     al, byte ptr [bp-02]
  1.01E1  0F94C0                   sete    al
  1.01E4  3C01                     cmp     al, 01
  1.01E6  66D1D3                   rcl     ebx, 1
  1.01E9  66C1E808                 shr     eax, 08
  1.01ED  3A46FE                   cmp     al, byte ptr [bp-02]
  1.01F0  0F94C0                   sete    al
  1.01F3  3C01                     cmp     al, 01
  1.01F5  66D1D3                   rcl     ebx, 1
  1.01F8  66C1E808                 shr     eax, 08
  1.01FC  8AC3                     mov     al, bl
  1.01FE  240F                     and     al, 0F
  1.0200  3C0F                     cmp     al, 0F
  1.0202  8356FC00                 adc     word ptr [bp-04], 0000
  1.0206  EB05                     jmp     020D
  1.0208  90                       nop    

  1.0209 >66C1E304                 shl     ebx, 04

  1.020D >E2A4                     loop    01B3
  1.020F  668BC3                   mov     eax, ebx
  1.0212  86C4                     xchg    al, ah
  1.0214  66C1C810                 ror     eax, 10
  1.0218  86C4                     xchg    al, ah
  1.021A  6667AB                   stosd  
  1.021D  59                       pop     cx
  1.021E  E28C                     loop    01AC
  1.0220  59                       pop     cx
  1.0221  E282                     loop    01A5
  1.0223  8B46FC                   mov     ax, [bp-04]
  1.0226  665E                     pop     esi
  1.0228  665F                     pop     edi
  1.022A  1F                       pop     ds
  1.022B  9D                       popf   
  1.022C  C9                       leave  
  1.022D  CA0A00                   retf    000A
  1.0230  C8020000                 enter   0002, 00
  1.0234  9C                       pushf  
  1.0235  1E                       push    ds
  1.0236  6657                     push    edi
  1.0238  6656                     push    esi
  1.023A  FC                       cld    
  1.023B  6633FF                   xor     edi, edi
  1.023E  6633F6                   xor     esi, esi
  1.0241  C57606                   lds     si, [bp+06]
  1.0244  C47E0A                   les     di, [bp+0A]
  1.0247  8B4404                   mov     ax, [si+04]
  1.024A  8946FE                   mov     [bp-02], ax
  1.024D  050300                   add     ax, 0003
  1.0250  25FCFF                   and     ax, FFFC
  1.0253  660FB7D8                 movzx   ebx, eax
  1.0257  668B5408                 mov     edx, [si+08]
  1.025B  FF7410                   push    word ptr [si+10]
  1.025E  FF740E                   push    word ptr [si+0E]
  1.0261  668B0C                   mov     ecx, [si]
  1.0264  C1E902                   shr     cx, 02
  1.0267  F366A5                   rep movsd
  1.026A  57                       push    di
  1.026B  33FF                     xor     di, di
  1.026D  26C745100000             mov     word ptr es:[di+10], 0000
  1.0273  5F                       pop     di
  1.0274  E89D01                   call    0414
  1.0277  8BC8                     mov     cx, ax
  1.0279  F366A5                   rep movsd
  1.027C  59                       pop     cx
  1.027D  58                       pop     ax
  1.027E  3D0000                   cmp     ax, 0000
  1.0281  7578                     jne     02FB
  1.0283  90                       nop    
  1.0284  90                       nop    
  1.0285  83F904                   cmp     cx, 0004
  1.0288  755E                     jne     02E8
  1.028A  90                       nop    
  1.028B  90                       nop    
  1.028C  57                       push    di
  1.028D  33FF                     xor     di, di
  1.028F  26C7450E0800             mov     word ptr es:[di+0E], 0008
  1.0295  6626837D2000             cmp     dword ptr es:[di+20], 00000000
  1.029B  7508                     jne     02A5
  1.029D  90                       nop    
  1.029E  90                       nop    
  1.029F  26C745201000             mov     word ptr es:[di+20], 0010

  1.02A5 >5F                       pop     di
  1.02A6  668BCA                   mov     ecx, edx
  1.02A9  8B46FE                   mov     ax, [bp-02]
  1.02AC  40                       inc     ax
  1.02AD  D1E8                     shr     ax, 1
  1.02AF  050300                   add     ax, 0003
  1.02B2  25FCFF                   and     ax, FFFC
  1.02B5  660FB7D0                 movzx   edx, eax

  1.02B9 >51                       push    cx
  1.02BA  6656                     push    esi
  1.02BC  6657                     push    edi
  1.02BE  8BCB                     mov     cx, bx

  1.02C0 >F7C10100                 test    cx, 0001
  1.02C4  750B                     jne     02D1
  1.02C6  90                       nop    
  1.02C7  90                       nop    
  1.02C8  AC                       lodsb  
  1.02C9  8AE0                     mov     ah, al
  1.02CB  C0E804                   shr     al, 04
  1.02CE  EB05                     jmp     02D5
  1.02D0  90                       nop    

  1.02D1 >8AC4                     mov     al, ah
  1.02D3  240F                     and     al, 0F

  1.02D5 >AA                       stosb  
  1.02D6  E2E8                     loop    02C0
  1.02D8  665F                     pop     edi
  1.02DA  665E                     pop     esi
  1.02DC  6603FB                   add     edi, ebx
  1.02DF  6603F2                   add     esi, edx
  1.02E2  59                       pop     cx
  1.02E3  E2D4                     loop    02B9
  1.02E5  E92201                   jmp     040A

  1.02E8 >668BC3                   mov     eax, ebx
  1.02EB  66F7E2                   mul     edx
  1.02EE  66C1E802                 shr     eax, 02
  1.02F2  668BC8                   mov     ecx, eax
  1.02F5  F366A5                   rep movsd
  1.02F8  E90F01                   jmp     040A

  1.02FB >3D0100                   cmp     ax, 0001
  1.02FE  0F84A300                 je      03A5
  1.0302  57                       push    di
  1.0303  33FF                     xor     di, di
  1.0305  26C7450E0800             mov     word ptr es:[di+0E], 0008
  1.030B  6626837D2000             cmp     dword ptr es:[di+20], 00000000
  1.0311  7508                     jne     031B
  1.0313  90                       nop    
  1.0314  90                       nop    
  1.0315  26C745201000             mov     word ptr es:[di+20], 0010

  1.031B >5F                       pop     di

  1.031C >668BD7                   mov     edx, edi

  1.031F >67AD                     lodsw  
  1.0321  0AC0                     or      al, al
  1.0323  7566                     jne     038B
  1.0325  90                       nop    
  1.0326  90                       nop    
  1.0327  3AE0                     cmp     ah, al
  1.0329  750A                     jne     0335
  1.032B  90                       nop    
  1.032C  90                       nop    
  1.032D  668BFA                   mov     edi, edx
  1.0330  6603FB                   add     edi, ebx
  1.0333  EBE7                     jmp     031C

  1.0335 >FEC0                     inc     al
  1.0337  3AE0                     cmp     ah, al
  1.0339  0F84CD00                 je      040A
  1.033D  FEC0                     inc     al
  1.033F  3AE0                     cmp     ah, al
  1.0341  751A                     jne     035D
  1.0343  90                       nop    
  1.0344  90                       nop    
  1.0345  67AD                     lodsw  
  1.0347  0AE4                     or      ah, ah
  1.0349  740C                     je      0357
  1.034B  90                       nop    
  1.034C  90                       nop    

  1.034D >6603FB                   add     edi, ebx
  1.0350  6603D3                   add     edx, ebx
  1.0353  FECC                     dec     ah
  1.0355  75F6                     jne     034D

  1.0357 >6603F8                   add     edi, eax
  1.035A  EB2C                     jmp     0388
  1.035C  90                       nop    

  1.035D >52                       push    dx
  1.035E  8ACC                     mov     cl, ah

  1.0360 >67AD                     lodsw  
  1.0362  8AD0                     mov     dl, al
  1.0364  C0E804                   shr     al, 04
  1.0367  67AA                     stosb  
  1.0369  49                       dec     cx
  1.036A  E31B                     jcxz    0387
  1.036C  8AC2                     mov     al, dl
  1.036E  240F                     and     al, 0F
  1.0370  67AA                     stosb  
  1.0372  49                       dec     cx
  1.0373  E312                     jcxz    0387
  1.0375  8AC4                     mov     al, ah
  1.0377  C0E804                   shr     al, 04
  1.037A  67AA                     stosb  
  1.037C  49                       dec     cx
  1.037D  E308                     jcxz    0387
  1.037F  8AC4                     mov     al, ah
  1.0381  240F                     and     al, 0F
  1.0383  67AA                     stosb  
  1.0385  E2D9                     loop    0360

  1.0387 >5A                       pop     dx

  1.0388 >EB15                     jmp     039F
  1.038A  90                       nop    

  1.038B >8AC8                     mov     cl, al
  1.038D  8AC4                     mov     al, ah
  1.038F  C0E804                   shr     al, 04
  1.0392  80E40F                   and     ah, 0F
  1.0395  D1E9                     shr     cx, 1
  1.0397  F367AB                   rep stosw
  1.039A  12C9                     adc     cl, cl
  1.039C  F367AA                   rep stosb

  1.039F >E97DFF                   jmp     031F
  1.03A2  EB66                     jmp     040A
  1.03A4  90                       nop    

  1.03A5 >668BD7                   mov     edx, edi

  1.03A8 >67AD                     lodsw  
  1.03AA  0AC0                     or      al, al
  1.03AC  754C                     jne     03FA
  1.03AE  90                       nop    
  1.03AF  90                       nop    
  1.03B0  3AE0                     cmp     ah, al
  1.03B2  750A                     jne     03BE
  1.03B4  90                       nop    
  1.03B5  90                       nop    
  1.03B6  668BFA                   mov     edi, edx
  1.03B9  6603FB                   add     edi, ebx
  1.03BC  EBE7                     jmp     03A5

  1.03BE >FEC0                     inc     al
  1.03C0  3AE0                     cmp     ah, al
  1.03C2  7446                     je      040A
  1.03C4  90                       nop    
  1.03C5  90                       nop    
  1.03C6  FEC0                     inc     al
  1.03C8  3AE0                     cmp     ah, al
  1.03CA  751A                     jne     03E6
  1.03CC  90                       nop    
  1.03CD  90                       nop    
  1.03CE  67AD                     lodsw  
  1.03D0  0AE4                     or      ah, ah
  1.03D2  740C                     je      03E0
  1.03D4  90                       nop    
  1.03D5  90                       nop    

  1.03D6 >6603FB                   add     edi, ebx
  1.03D9  6603D3                   add     edx, ebx
  1.03DC  FECC                     dec     ah
  1.03DE  75F6                     jne     03D6

  1.03E0 >6603F8                   add     edi, eax
  1.03E3  EB12                     jmp     03F7
  1.03E5  90                       nop    

  1.03E6 >8ACC                     mov     cl, ah
  1.03E8  D1E9                     shr     cx, 1
  1.03EA  F367A5                   rep movsw
  1.03ED  12C9                     adc     cl, cl
  1.03EF  F367A4                   rep movsb
  1.03F2  6646                     inc     esi
  1.03F4  83E6FE                   and     si, FFFE

  1.03F7 >EB0F                     jmp     0408
  1.03F9  90                       nop    

  1.03FA >8AC8                     mov     cl, al
  1.03FC  8AC4                     mov     al, ah
  1.03FE  D1E9                     shr     cx, 1
  1.0400  F367AB                   rep stosw
  1.0403  12C9                     adc     cl, cl
  1.0405  F367AA                   rep stosb

  1.0408 >EB9E                     jmp     03A8

  1.040A >665E                     pop     esi
  1.040C  665F                     pop     edi
  1.040E  1F                       pop     ds
  1.040F  9D                       popf   
  1.0410  C9                       leave  
  1.0411  CA0800                   retf    0008

  1.0414 >6656                     push    esi
  1.0416  33F6                     xor     si, si
  1.0418  8B4420                   mov     ax, [si+20]
  1.041B  0BC0                     or      ax, ax
  1.041D  750C                     jne     042B
  1.041F  90                       nop    
  1.0420  90                       nop    
  1.0421  51                       push    cx
  1.0422  8B4C0E                   mov     cx, [si+0E]
  1.0425  B80100                   mov     ax, 0001
  1.0428  D3E0                     shl     ax, cl
  1.042A  59                       pop     cx

  1.042B >665E                     pop     esi
  1.042D  C3                       ret    
  1.042E  FF                       ?       <offset KERNEL.__WINFLAGS>
  1.042F  FFB0FF50                 push    word ptr [bx+si+50FF]

  1.0430 >B0FF                     mov     al, FF
  1.0432  50                       push    ax
  1.0433  9AFB05529A               call    1:05FB

                                   ;
  1.0438                           ;  Program_entry_point
                                   ;

  1.0438 >33ED                     xor     bp, bp
  1.043A  55                       push    bp
  1.043B  9AFFFF0000               call    KERNEL.INITTASK
  1.0440  0BC0                     or      ax, ax
  1.0442  74EC                     je      0430
  1.0444  8C069C08                 mov     [089C], es
  1.0448  81C10001                 add     cx, 0100
  1.044C  72E2                     jb      0430
  1.044E  890E6608                 mov     [0866], cx
  1.0452  89366808                 mov     [0868], si
  1.0456  893E6A08                 mov     [086A], di
  1.045A  891E6C08                 mov     [086C], bx
  1.045E  8C066E08                 mov     [086E], es
  1.0462  89167008                 mov     [0870], dx
  1.0466  9AFFFF0000               call    KERNEL.GETVERSION
  1.046B  86C4                     xchg    al, ah
  1.046D  A39E08                   mov     [089E], ax
  1.0470  B430                     mov     ah, 30
  1.0472  2EF7062E040100           test    word ptr cs:[042E], 0001
  1.0479  7407                     je      0482
  1.047B  9AFFFF0000               call    KERNEL.DOS3CALL
  1.0480  EB02                     jmp     0484

  1.0482 >CD21                     int     21

  1.0484 >A3A208                   mov     [08A2], ax
  1.0487  86C4                     xchg    al, ah
  1.0489  A3A008                   mov     [08A0], ax
  1.048C  2EF7062E040100           test    word ptr cs:[042E], 0001
  1.0493  7505                     jne     049A
  1.0495  B000                     mov     al, 00
  1.0497  A2A508                   mov     [08A5], al

  1.049A >33C0                     xor     ax, ax
  1.049C  50                       push    ax
  1.049D  9AFFFF0000               call    KERNEL.WAITEVENT
  1.04A2  FF366A08                 push    word ptr [086A]
  1.04A6  9AFFFF0000               call    USER.INITAPP
  1.04AB  0BC0                     or      ax, ax
  1.04AD  7481                     je      0430
  1.04AF  9A0E053604               call    1:050E
  1.04B4  9A4607B204               call    1:0746
  1.04B9  9AC808B704               call    1:08C8
  1.04BE  E8950F                   call    1456
  1.04C1  FF36DA08                 push    word ptr [08DA]
  1.04C5  FF36D808                 push    word ptr [08D8]
  1.04C9  FF36D608                 push    word ptr [08D6]
  1.04CD  9AE204BC04               call    1:04E2
  1.04D2  83C406                   add     sp, 0006
  1.04D5  50                       push    ax
  1.04D6  9AED05D004               call    1:05ED
  1.04DB  B81500                   mov     ax, 0015
  1.04DE  E97C04                   jmp     095D
  1.04E1  008CD890                 add     byte ptr [si-6F28], cl
  1.04E5  45                       inc     bp
  1.04E6  55                       push    bp
  1.04E7  8BEC                     mov     bp, sp
  1.04E9  1E                       push    ds
  1.04EA  8ED8                     mov     ds, ax
  1.04EC  FF366A08                 push    word ptr [086A]
  1.04F0  FF366808                 push    word ptr [0868]
  1.04F4  FF366E08                 push    word ptr [086E]
  1.04F8  FF366C08                 push    word ptr [086C]
  1.04FC  FF367008                 push    word ptr [0870]
  1.0500  9A501CD904               call    WinMain
  1.0505  83ED02                   sub     bp, 0002
  1.0508  8BE5                     mov     sp, bp
  1.050A  1F                       pop     ds
  1.050B  5D                       pop     bp
  1.050C  4D                       dec     bp
  1.050D  CB                       retf   
  1.050E  8CD8                     mov     ax, ds
  1.0510  90                       nop    
  1.0511  45                       inc     bp
  1.0512  55                       push    bp
  1.0513  8BEC                     mov     bp, sp
  1.0515  1E                       push    ds
  1.0516  8ED8                     mov     ds, ax
  1.0518  B80035                   mov     ax, 3500
  1.051B  2EF7062E040100           test    word ptr cs:[042E], 0001
  1.0522  7407                     je      052B
  1.0524  9A7C040000               call    KERNEL.DOS3CALL
  1.0529  EB02                     jmp     052D

  1.052B >CD21                     int     21

  1.052D >891E8808                 mov     [0888], bx
  1.0531  8C068A08                 mov     [088A], es
  1.0535  0E                       push    cs
  1.0536  1F                       pop     ds
  1.0537  B80025                   mov     ax, 2500
  1.053A  BA5809                   mov     dx, 0958
  1.053D  2EF7062E040100           test    word ptr cs:[042E], 0001
  1.0544  7407                     je      054D
  1.0546  9A25050000               call    KERNEL.DOS3CALL
  1.054B  EB02                     jmp     054F

  1.054D >CD21                     int     21

  1.054F >16                       push    ss
  1.0550  1F                       pop     ds
  1.0551  8B0E5C09                 mov     cx, [095C]
  1.0555  E329                     jcxz    0580
  1.0557  8E069C08                 mov     es, [089C]
  1.055B  268B362C00               mov     si, es:[002C]
  1.0560  A15E09                   mov     ax, [095E]
  1.0563  8B166009                 mov     dx, [0960]
  1.0567  33DB                     xor     bx, bx
  1.0569  FF1E5A09                 call    far ptr [095A]
  1.056D  7303                     jnb     0572
  1.056F  E97A01                   jmp     06EC

  1.0572 >A16209                   mov     ax, [0962]
  1.0575  8B166409                 mov     dx, [0964]
  1.0579  BB0300                   mov     bx, 0003
  1.057C  FF1E5A09                 call    far ptr [095A]

  1.0580 >8E069C08                 mov     es, [089C]
  1.0584  268B0E2C00               mov     cx, es:[002C]
  1.0589  E33E                     jcxz    05C9
  1.058B  8EC1                     mov     es, cx
  1.058D  33FF                     xor     di, di

  1.058F >26803D00                 cmp     byte ptr es:[di], 00
  1.0593  7434                     je      05C9
  1.0595  B90D00                   mov     cx, 000D
  1.0598  BE7A08                   mov     si, 087A
  1.059B  F3A6                     rep cmpsb
  1.059D  740B                     je      05AA
  1.059F  B9FF7F                   mov     cx, 7FFF
  1.05A2  33C0                     xor     ax, ax
  1.05A4  F2AE                     repnz scasb
  1.05A6  7521                     jne     05C9
  1.05A8  EBE5                     jmp     058F

  1.05AA >06                       push    es
  1.05AB  1E                       push    ds
  1.05AC  07                       pop     es
  1.05AD  1F                       pop     ds
  1.05AE  8BF7                     mov     si, di
  1.05B0  BFAE08                   mov     di, 08AE
  1.05B3  B104                     mov     cl, 04

  1.05B5 >AC                       lodsb  
  1.05B6  2C41                     sub     al, 41
  1.05B8  720D                     jb      05C7
  1.05BA  D2E0                     shl     al, cl
  1.05BC  92                       xchg    ax, dx
  1.05BD  AC                       lodsb  
  1.05BE  2C41                     sub     al, 41
  1.05C0  7205                     jb      05C7
  1.05C2  0AC2                     or      al, dl
  1.05C4  AA                       stosb  
  1.05C5  EBEE                     jmp     05B5

  1.05C7 >16                       push    ss
  1.05C8  1F                       pop     ds

  1.05C9 >BE6609                   mov     si, 0966
  1.05CC  BF6609                   mov     di, 0966
  1.05CF  E8E200                   call    06B4
  1.05D2  BE6609                   mov     si, 0966
  1.05D5  BF6609                   mov     di, 0966
  1.05D8  E8D900                   call    06B4
  1.05DB  BE6609                   mov     si, 0966
  1.05DE  BF6609                   mov     di, 0966
  1.05E1  E8D000                   call    06B4
  1.05E4  83ED02                   sub     bp, 0002
  1.05E7  8BE5                     mov     sp, bp
  1.05E9  1F                       pop     ds
  1.05EA  5D                       pop     bp
  1.05EB  4D                       dec     bp
  1.05EC  CB                       retf   
  1.05ED  8CD8                     mov     ax, ds
  1.05EF  90                       nop    
  1.05F0  45                       inc     bp
  1.05F1  55                       push    bp
  1.05F2  8BEC                     mov     bp, sp
  1.05F4  1E                       push    ds
  1.05F5  8ED8                     mov     ds, ax
  1.05F7  33C9                     xor     cx, cx
  1.05F9  EB2F                     jmp     062A
  1.05FB  8CD8                     mov     ax, ds
  1.05FD  90                       nop    
  1.05FE  45                       inc     bp
  1.05FF  55                       push    bp
  1.0600  8BEC                     mov     bp, sp
  1.0602  1E                       push    ds
  1.0603  8ED8                     mov     ds, ax
  1.0605  B90100                   mov     cx, 0001
  1.0608  EB20                     jmp     062A
  1.060A  8CD8                     mov     ax, ds
  1.060C  90                       nop    
  1.060D  45                       inc     bp
  1.060E  55                       push    bp
  1.060F  8BEC                     mov     bp, sp
  1.0611  1E                       push    ds
  1.0612  8ED8                     mov     ds, ax
  1.0614  56                       push    si
  1.0615  57                       push    di
  1.0616  B90001                   mov     cx, 0100
  1.0619  EB0F                     jmp     062A
  1.061B  8CD8                     mov     ax, ds
  1.061D  90                       nop    
  1.061E  45                       inc     bp
  1.061F  55                       push    bp
  1.0620  8BEC                     mov     bp, sp
  1.0622  1E                       push    ds
  1.0623  8ED8                     mov     ds, ax
  1.0625  56                       push    si
  1.0626  57                       push    di
  1.0627  B90101                   mov     cx, 0101

  1.062A >882EE308                 mov     byte ptr [08E3], ch
  1.062E  51                       push    cx
  1.062F  0AC9                     or      cl, cl
  1.0631  751C                     jne     064F
  1.0633  BEBC0B                   mov     si, 0BBC
  1.0636  BFBC0B                   mov     di, 0BBC
  1.0639  E87800                   call    06B4
  1.063C  BE6609                   mov     si, 0966
  1.063F  BF6609                   mov     di, 0966
  1.0642  E86F00                   call    06B4
  1.0645  8B7606                   mov     si, [bp+06]
  1.0648  56                       push    si
  1.0649  E80A0E                   call    1456
  1.064C  83C402                   add     sp, 0002

  1.064F >BE6609                   mov     si, 0966
  1.0652  BF6609                   mov     di, 0966
  1.0655  E85C00                   call    06B4
  1.0658  BE6609                   mov     si, 0966
  1.065B  BF6609                   mov     di, 0966
  1.065E  E85300                   call    06B4
  1.0661  E82700                   call    068B
  1.0664  58                       pop     ax
  1.0665  0AE4                     or      ah, ah
  1.0667  7517                     jne     0680
  1.0669  8B4606                   mov     ax, [bp+06]
  1.066C  B44C                     mov     ah, 4C
  1.066E  2EF7062E040100           test    word ptr cs:[042E], 0001
  1.0675  7407                     je      067E
  1.0677  9A47050000               call    KERNEL.DOS3CALL
  1.067C  EB02                     jmp     0680

  1.067E >CD21                     int     21

  1.0680 >5F                       pop     di
  1.0681  5E                       pop     si
  1.0682  83ED02                   sub     bp, 0002
  1.0685  8BE5                     mov     sp, bp
  1.0687  1F                       pop     ds
  1.0688  5D                       pop     bp
  1.0689  4D                       dec     bp
  1.068A  CB                       retf   

  1.068B >8B0E5C09                 mov     cx, [095C]
  1.068F  E307                     jcxz    0698
  1.0691  BB0200                   mov     bx, 0002
  1.0694  FF1E5A09                 call    far ptr [095A]

  1.0698 >1E                       push    ds
  1.0699  C5168808                 lds     dx, [0888]
  1.069D  B80025                   mov     ax, 2500
  1.06A0  2EF7062E040100           test    word ptr cs:[042E], 0001
  1.06A7  7407                     je      06B0
  1.06A9  9A78060000               call    KERNEL.DOS3CALL
  1.06AE  EB02                     jmp     06B2

  1.06B0 >CD21                     int     21

  1.06B2 >1F                       pop     ds
  1.06B3  C3                       ret    

  1.06B4 >3BF7                     cmp     si, di
  1.06B6  730E                     jnb     06C6
  1.06B8  83EF04                   sub     di, 0004
  1.06BB  8B05                     mov     ax, [di]
  1.06BD  0B4502                   or      ax, [di+02]
  1.06C0  74F2                     je      06B4
  1.06C2  FF1D                     call    far ptr [di]
  1.06C4  EBEE                     jmp     06B4

  1.06C6 >C3                       ret    
  1.06C7  008CD890                 add     byte ptr [si-6F28], cl

  1.06C8 >8CD8                     mov     ax, ds
  1.06CA  90                       nop    
  1.06CB  45                       inc     bp
  1.06CC  55                       push    bp
  1.06CD  8BEC                     mov     bp, sp
  1.06CF  1E                       push    ds
  1.06D0  8ED8                     mov     ds, ax
  1.06D2  B8FC00                   mov     ax, 00FC
  1.06D5  50                       push    ax
  1.06D6  0E                       push    cs
  1.06D7  E8FD02                   call    09D7
  1.06DA  B8FF00                   mov     ax, 00FF
  1.06DD  50                       push    ax
  1.06DE  0E                       push    cs
  1.06DF  E8F502                   call    09D7
  1.06E2  83ED02                   sub     bp, 0002
  1.06E5  8BE5                     mov     sp, bp
  1.06E7  1F                       pop     ds
  1.06E8  5D                       pop     bp
  1.06E9  4D                       dec     bp
  1.06EA  CB                       retf   
  1.06EB  00B80200                 add     byte ptr [bx+si+0002], bh

  1.06EC >B80200                   mov     ax, 0002
  1.06EF  E96B02                   jmp     095D
  1.06F2  5B                       pop     bx
  1.06F3  40                       inc     ax
  1.06F4  24FE                     and     al, FE
  1.06F6  2BC4                     sub     ax, sp
  1.06F8  7345                     jnb     073F
  1.06FA  F7D8                     neg     ax
  1.06FC  3639060A00               cmp     ss:[000A], ax
  1.0701  773C                     ja      073F
  1.0703  3639060C00               cmp     ss:[000C], ax
  1.0708  7604                     jbe     070E
  1.070A  36A30C00                 mov     ss:[000C], ax

  1.070E >8BE0                     mov     sp, ax
  1.0710  FFE3                     jmp     near ptr bx
  1.0712  5B                       pop     bx
  1.0713  5A                       pop     dx
  1.0714  40                       inc     ax
  1.0715  24FE                     and     al, FE
  1.0717  2BC4                     sub     ax, sp
  1.0719  7319                     jnb     0734
  1.071B  F7D8                     neg     ax
  1.071D  3639060A00               cmp     ss:[000A], ax
  1.0722  7710                     ja      0734
  1.0724  3639060C00               cmp     ss:[000C], ax
  1.0729  7604                     jbe     072F
  1.072B  36A30C00                 mov     ss:[000C], ax

  1.072F >8BE0                     mov     sp, ax
  1.0731  52                       push    dx
  1.0732  53                       push    bx
  1.0733  CB                       retf   

  1.0734 >8B16E808                 mov     dx, [08E8]
  1.0738  42                       inc     dx
  1.0739  7404                     je      073F
  1.073B  FF2EE808                 jmp     far ptr [08E8]

  1.073F >B80000                   mov     ax, 0000
  1.0742  E91802                   jmp     095D
  1.0745  008F06EC                 add     byte ptr [bx-13FA], cl
  1.0749  088F06EE                 or      byte ptr [bx-11FA], cl
  1.074D  08B80401                 or      byte ptr [bx+si+0104], bh
  1.0751  B90800                   mov     cx, 0008
  1.0754  E8BD02                   call    0A14
  1.0757  8916DE08                 mov     [08DE], dx
  1.075B  A3DC08                   mov     [08DC], ax
  1.075E  52                       push    dx
  1.075F  50                       push    ax
  1.0760  FF366A08                 push    word ptr [086A]
  1.0764  52                       push    dx
  1.0765  50                       push    ax
  1.0766  B80401                   mov     ax, 0104
  1.0769  50                       push    ax
  1.076A  9AFFFF0000               call    KERNEL.GETMODULEFILENAME
  1.076F  5B                       pop     bx
  1.0770  07                       pop     es
  1.0771  03D8                     add     bx, ax
  1.0773  26C60700                 mov     byte ptr es:[bx], 00
  1.0777  BA0100                   mov     dx, 0001
  1.077A  BF0100                   mov     di, 0001
  1.077D  BE8100                   mov     si, 0081
  1.0780  8E1E9C08                 mov     ds, [089C]

  1.0784 >AC                       lodsb  
  1.0785  3C20                     cmp     al, 20
  1.0787  74FB                     je      0784
  1.0789  3C09                     cmp     al, 09
  1.078B  74F7                     je      0784
  1.078D  3C0D                     cmp     al, 0D
  1.078F  746F                     je      0800
  1.0791  0AC0                     or      al, al
  1.0793  746B                     je      0800
  1.0795  47                       inc     di

  1.0796 >4E                       dec     si

  1.0797 >AC                       lodsb  
  1.0798  3C20                     cmp     al, 20
  1.079A  74E8                     je      0784
  1.079C  3C09                     cmp     al, 09
  1.079E  74E4                     je      0784
  1.07A0  3C0D                     cmp     al, 0D
  1.07A2  745C                     je      0800
  1.07A4  0AC0                     or      al, al
  1.07A6  7458                     je      0800
  1.07A8  3C22                     cmp     al, 22
  1.07AA  7424                     je      07D0
  1.07AC  3C5C                     cmp     al, 5C
  1.07AE  7403                     je      07B3
  1.07B0  42                       inc     dx
  1.07B1  EBE4                     jmp     0797

  1.07B3 >33C9                     xor     cx, cx

  1.07B5 >41                       inc     cx
  1.07B6  AC                       lodsb  
  1.07B7  3C5C                     cmp     al, 5C
  1.07B9  74FA                     je      07B5
  1.07BB  3C22                     cmp     al, 22
  1.07BD  7404                     je      07C3
  1.07BF  03D1                     add     dx, cx
  1.07C1  EBD3                     jmp     0796

  1.07C3 >8BC1                     mov     ax, cx
  1.07C5  D1E9                     shr     cx, 1
  1.07C7  13D1                     adc     dx, cx
  1.07C9  A801                     test    al, 01
  1.07CB  75CA                     jne     0797
  1.07CD  EB01                     jmp     07D0

  1.07CF >4E                       dec     si

  1.07D0 >AC                       lodsb  
  1.07D1  3C0D                     cmp     al, 0D
  1.07D3  742B                     je      0800
  1.07D5  0AC0                     or      al, al
  1.07D7  7427                     je      0800
  1.07D9  3C22                     cmp     al, 22
  1.07DB  74BA                     je      0797
  1.07DD  3C5C                     cmp     al, 5C
  1.07DF  7403                     je      07E4
  1.07E1  42                       inc     dx
  1.07E2  EBEC                     jmp     07D0

  1.07E4 >33C9                     xor     cx, cx

  1.07E6 >41                       inc     cx
  1.07E7  AC                       lodsb  
  1.07E8  3C5C                     cmp     al, 5C
  1.07EA  74FA                     je      07E6
  1.07EC  3C22                     cmp     al, 22
  1.07EE  7404                     je      07F4
  1.07F0  03D1                     add     dx, cx
  1.07F2  EBDB                     jmp     07CF

  1.07F4 >8BC1                     mov     ax, cx
  1.07F6  D1E9                     shr     cx, 1
  1.07F8  13D1                     adc     dx, cx
  1.07FA  A801                     test    al, 01
  1.07FC  75D2                     jne     07D0
  1.07FE  EB97                     jmp     0797

  1.0800 >16                       push    ss
  1.0801  1F                       pop     ds
  1.0802  893ED608                 mov     [08D6], di
  1.0806  03D7                     add     dx, di
  1.0808  47                       inc     di
  1.0809  D1E7                     shl     di, 1
  1.080B  03D7                     add     dx, di
  1.080D  42                       inc     dx
  1.080E  80E2FE                   and     dl, FE
  1.0811  2BE2                     sub     sp, dx
  1.0813  8BC4                     mov     ax, sp
  1.0815  A3D808                   mov     [08D8], ax
  1.0818  8BD8                     mov     bx, ax
  1.081A  03FB                     add     di, bx
  1.081C  16                       push    ss
  1.081D  07                       pop     es
  1.081E  C536DC08                 lds     si, [08DC]
  1.0822  368937                   mov     ss:[bx], si
  1.0825  43                       inc     bx
  1.0826  43                       inc     bx
  1.0827  368E1E9C08               mov     ds, ss:[089C]
  1.082C  BE8100                   mov     si, 0081
  1.082F  EB03                     jmp     0834

  1.0831 >33C0                     xor     ax, ax
  1.0833  AA                       stosb  

  1.0834 >AC                       lodsb  
  1.0835  3C20                     cmp     al, 20
  1.0837  74FB                     je      0834
  1.0839  3C09                     cmp     al, 09
  1.083B  74F7                     je      0834
  1.083D  3C0D                     cmp     al, 0D
  1.083F  747C                     je      08BD
  1.0841  0AC0                     or      al, al
  1.0843  7478                     je      08BD
  1.0845  36893F                   mov     ss:[bx], di
  1.0848  43                       inc     bx
  1.0849  43                       inc     bx

  1.084A >4E                       dec     si

  1.084B >AC                       lodsb  
  1.084C  3C20                     cmp     al, 20
  1.084E  74E1                     je      0831
  1.0850  3C09                     cmp     al, 09
  1.0852  74DD                     je      0831
  1.0854  3C0D                     cmp     al, 0D
  1.0856  7462                     je      08BA
  1.0858  0AC0                     or      al, al
  1.085A  745E                     je      08BA
  1.085C  3C22                     cmp     al, 22
  1.085E  7427                     je      0887
  1.0860  3C5C                     cmp     al, 5C
  1.0862  7403                     je      0867
  1.0864  AA                       stosb  
  1.0865  EBE4                     jmp     084B

  1.0867 >33C9                     xor     cx, cx

  1.0869 >41                       inc     cx
  1.086A  AC                       lodsb  
  1.086B  3C5C                     cmp     al, 5C
  1.086D  74FA                     je      0869
  1.086F  3C22                     cmp     al, 22
  1.0871  7406                     je      0879
  1.0873  B05C                     mov     al, 5C
  1.0875  F3AA                     rep stosb
  1.0877  EBD1                     jmp     084A

  1.0879 >B05C                     mov     al, 5C
  1.087B  D1E9                     shr     cx, 1
  1.087D  F3AA                     rep stosb
  1.087F  7306                     jnb     0887
  1.0881  B022                     mov     al, 22
  1.0883  AA                       stosb  
  1.0884  EBC5                     jmp     084B

  1.0886 >4E                       dec     si

  1.0887 >AC                       lodsb  
  1.0888  3C0D                     cmp     al, 0D
  1.088A  742E                     je      08BA
  1.088C  0AC0                     or      al, al
  1.088E  742A                     je      08BA
  1.0890  3C22                     cmp     al, 22
  1.0892  74B7                     je      084B
  1.0894  3C5C                     cmp     al, 5C
  1.0896  7403                     je      089B
  1.0898  AA                       stosb  
  1.0899  EBEC                     jmp     0887

  1.089B >33C9                     xor     cx, cx

  1.089D >41                       inc     cx
  1.089E  AC                       lodsb  
  1.089F  3C5C                     cmp     al, 5C
  1.08A1  74FA                     je      089D
  1.08A3  3C22                     cmp     al, 22
  1.08A5  7406                     je      08AD
  1.08A7  B05C                     mov     al, 5C
  1.08A9  F3AA                     rep stosb
  1.08AB  EBD9                     jmp     0886

  1.08AD >B05C                     mov     al, 5C
  1.08AF  D1E9                     shr     cx, 1
  1.08B1  F3AA                     rep stosb
  1.08B3  7396                     jnb     084B
  1.08B5  B022                     mov     al, 22
  1.08B7  AA                       stosb  
  1.08B8  EBCD                     jmp     0887

  1.08BA >33C0                     xor     ax, ax
  1.08BC  AA                       stosb  

  1.08BD >16                       push    ss
  1.08BE  1F                       pop     ds
  1.08BF  C7070000                 mov     word ptr [bx], 0000
  1.08C3  FF2EEC08                 jmp     far ptr [08EC]
  1.08C7  008CD890                 add     byte ptr [si-6F28], cl
  1.08CB  45                       inc     bp
  1.08CC  55                       push    bp
  1.08CD  8BEC                     mov     bp, sp
  1.08CF  1E                       push    ds
  1.08D0  8ED8                     mov     ds, ax
  1.08D2  1E                       push    ds
  1.08D3  9AFFFF0000               call    KERNEL.GETDOSENVIRONMENT
  1.08D8  0BC0                     or      ax, ax
  1.08DA  7403                     je      08DF
  1.08DC  BA0000                   mov     dx, 0000

  1.08DF >8BDA                     mov     bx, dx
  1.08E1  8EC2                     mov     es, dx
  1.08E3  33C0                     xor     ax, ax
  1.08E5  33F6                     xor     si, si
  1.08E7  33FF                     xor     di, di
  1.08E9  B9FFFF                   mov     cx, FFFF
  1.08EC  0BDB                     or      bx, bx
  1.08EE  740E                     je      08FE
  1.08F0  26803E000000             cmp     byte ptr es:[0000], 00
  1.08F6  7406                     je      08FE

  1.08F8 >F2AE                     repnz scasb
  1.08FA  46                       inc     si
  1.08FB  AE                       scasb  
  1.08FC  75FA                     jne     08F8

  1.08FE >8BC7                     mov     ax, di
  1.0900  40                       inc     ax
  1.0901  24FE                     and     al, FE
  1.0903  46                       inc     si
  1.0904  8BFE                     mov     di, si
  1.0906  D1E6                     shl     si, 1
  1.0908  B90900                   mov     cx, 0009
  1.090B  E80601                   call    0A14
  1.090E  50                       push    ax
  1.090F  8BC6                     mov     ax, si
  1.0911  E80001                   call    0A14
  1.0914  A3DA08                   mov     [08DA], ax
  1.0917  06                       push    es
  1.0918  1E                       push    ds
  1.0919  07                       pop     es
  1.091A  1F                       pop     ds
  1.091B  8BCF                     mov     cx, di
  1.091D  8BD8                     mov     bx, ax
  1.091F  33F6                     xor     si, si
  1.0921  5F                       pop     di
  1.0922  49                       dec     cx
  1.0923  E326                     jcxz    094B

  1.0925 >8B04                     mov     ax, [si]
  1.0927  363B067A08               cmp     ax, ss:[087A]
  1.092C  7510                     jne     093E
  1.092E  51                       push    cx
  1.092F  56                       push    si
  1.0930  57                       push    di
  1.0931  BF7A08                   mov     di, 087A
  1.0934  B90600                   mov     cx, 0006
  1.0937  F3A7                     rep cmpsw
  1.0939  5F                       pop     di
  1.093A  5E                       pop     si
  1.093B  59                       pop     cx
  1.093C  7405                     je      0943

  1.093E >26893F                   mov     es:[bx], di
  1.0941  43                       inc     bx
  1.0942  43                       inc     bx

  1.0943 >AC                       lodsb  
  1.0944  AA                       stosb  
  1.0945  0AC0                     or      al, al
  1.0947  75FA                     jne     0943
  1.0949  E2DA                     loop    0925

  1.094B >26890F                   mov     es:[bx], cx
  1.094E  1F                       pop     ds
  1.094F  83ED02                   sub     bp, 0002
  1.0952  8BE5                     mov     sp, bp
  1.0954  1F                       pop     ds
  1.0955  5D                       pop     bp
  1.0956  4D                       dec     bp
  1.0957  CB                       retf   
  1.0958  16                       push    ss
  1.0959  1F                       pop     ds
  1.095A  B80300                   mov     ax, 0003

  1.095D >50                       push    ax
  1.095E  50                       push    ax
  1.095F  0E                       push    cs
  1.0960  E865FD                   call    06C8
  1.0963  0E                       push    cs
  1.0964  E87000                   call    09D7
  1.0967  0E                       push    cs
  1.0968  E83500                   call    09A0
  1.096B  33DB                     xor     bx, bx
  1.096D  0BC0                     or      ax, ax
  1.096F  741D                     je      098E
  1.0971  8BF8                     mov     di, ax
  1.0973  B80900                   mov     ax, 0009
  1.0976  803D4D                   cmp     byte ptr [di], 4D
  1.0979  7503                     jne     097E
  1.097B  B80F00                   mov     ax, 000F

  1.097E >03F8                     add     di, ax
  1.0980  57                       push    di
  1.0981  1E                       push    ds
  1.0982  07                       pop     es
  1.0983  B00D                     mov     al, 0D
  1.0985  B92200                   mov     cx, 0022
  1.0988  F2AE                     repnz scasb
  1.098A  885DFF                   mov     byte ptr [di-01], bl
  1.098D  58                       pop     ax

  1.098E >53                       push    bx
  1.098F  1E                       push    ds
  1.0990  50                       push    ax
  1.0991  9AFFFF0000               call    KERNEL.FATALAPPEXIT
  1.0996  B8FF00                   mov     ax, 00FF
  1.0999  50                       push    ax
  1.099A  9AFFFF0000               call    KERNEL.FATALEXIT
  1.099F  008CD890                 add     byte ptr [si-6F28], cl

  1.09A0 >8CD8                     mov     ax, ds
  1.09A2  90                       nop    
  1.09A3  45                       inc     bp
  1.09A4  55                       push    bp
  1.09A5  8BEC                     mov     bp, sp
  1.09A7  1E                       push    ds
  1.09A8  8ED8                     mov     ds, ax
  1.09AA  56                       push    si
  1.09AB  57                       push    di
  1.09AC  1E                       push    ds
  1.09AD  07                       pop     es
  1.09AE  8B5606                   mov     dx, [bp+06]
  1.09B1  BE6E09                   mov     si, 096E

  1.09B4 >AD                       lodsw  
  1.09B5  3BC2                     cmp     ax, dx
  1.09B7  7410                     je      09C9
  1.09B9  40                       inc     ax
  1.09BA  96                       xchg    ax, si
  1.09BB  740C                     je      09C9
  1.09BD  97                       xchg    ax, di
  1.09BE  33C0                     xor     ax, ax
  1.09C0  B9FFFF                   mov     cx, FFFF
  1.09C3  F2AE                     repnz scasb
  1.09C5  8BF7                     mov     si, di
  1.09C7  EBEB                     jmp     09B4

  1.09C9 >96                       xchg    ax, si
  1.09CA  5F                       pop     di
  1.09CB  5E                       pop     si
  1.09CC  83ED02                   sub     bp, 0002
  1.09CF  8BE5                     mov     sp, bp
  1.09D1  1F                       pop     ds
  1.09D2  5D                       pop     bp
  1.09D3  4D                       dec     bp
  1.09D4  CA0200                   retf    0002

  1.09D7 >8CD8                     mov     ax, ds
  1.09D9  90                       nop    
  1.09DA  45                       inc     bp
  1.09DB  55                       push    bp
  1.09DC  8BEC                     mov     bp, sp
  1.09DE  1E                       push    ds
  1.09DF  8ED8                     mov     ds, ax
  1.09E1  57                       push    di
  1.09E2  833E520900               cmp     word ptr [0952], 0000
  1.09E7  741F                     je      0A08
  1.09E9  FF7606                   push    word ptr [bp+06]
  1.09EC  0E                       push    cs
  1.09ED  E8B0FF                   call    09A0
  1.09F0  0BC0                     or      ax, ax
  1.09F2  7414                     je      0A08
  1.09F4  92                       xchg    ax, dx
  1.09F5  8BFA                     mov     di, dx
  1.09F7  33C0                     xor     ax, ax
  1.09F9  B9FFFF                   mov     cx, FFFF
  1.09FC  F2AE                     repnz scasb
  1.09FE  F7D1                     not     cx
  1.0A00  49                       dec     cx
  1.0A01  8B1EA808                 mov     bx, [08A8]
  1.0A05  E8530A                   call    145B

  1.0A08 >5F                       pop     di
  1.0A09  83ED02                   sub     bp, 0002
  1.0A0C  8BE5                     mov     sp, bp
  1.0A0E  1F                       pop     ds
  1.0A0F  5D                       pop     bp
  1.0A10  4D                       dec     bp
  1.0A11  CA0200                   retf    0002

  1.0A14 >55                       push    bp
  1.0A15  8BEC                     mov     bp, sp
  1.0A17  53                       push    bx
  1.0A18  06                       push    es
  1.0A19  51                       push    cx
  1.0A1A  B90010                   mov     cx, 1000
  1.0A1D  870EF008                 xchg    cx, [08F0]
  1.0A21  51                       push    cx
  1.0A22  50                       push    ax
  1.0A23  9A62140305               call    1:1462
  1.0A28  5B                       pop     bx
  1.0A29  8F06F008                 pop     [08F0]
  1.0A2D  59                       pop     cx
  1.0A2E  8CDA                     mov     dx, ds
  1.0A30  0BC0                     or      ax, ax
  1.0A32  7404                     je      0A38
  1.0A34  07                       pop     es
  1.0A35  5B                       pop     bx
  1.0A36  EB05                     jmp     0A3D

  1.0A38 >8BC1                     mov     ax, cx
  1.0A3A  E920FF                   jmp     095D

  1.0A3D >8BE5                     mov     sp, bp
  1.0A3F  5D                       pop     bp
  1.0A40  C3                       ret    
  1.0A41  005157                   add     byte ptr [bx+di+57], dl
  1.0A44  F6470201                 test    byte ptr [bx+02], 01
  1.0A48  7463                     je      0AAD
  1.0A4A  E8E700                   call    0B34
  1.0A4D  8BFE                     mov     di, si
  1.0A4F  8B04                     mov     ax, [si]
  1.0A51  A801                     test    al, 01
  1.0A53  7403                     je      0A58
  1.0A55  2BC8                     sub     cx, ax
  1.0A57  49                       dec     cx

  1.0A58 >41                       inc     cx
  1.0A59  41                       inc     cx
  1.0A5A  8B7704                   mov     si, [bx+04]
  1.0A5D  0BF6                     or      si, si
  1.0A5F  744C                     je      0AAD
  1.0A61  03CE                     add     cx, si
  1.0A63  7309                     jnb     0A6E
  1.0A65  33C0                     xor     ax, ax
  1.0A67  BAF0FF                   mov     dx, FFF0
  1.0A6A  E330                     jcxz    0A9C
  1.0A6C  EB3F                     jmp     0AAD

  1.0A6E >16                       push    ss
  1.0A6F  07                       pop     es
  1.0A70  26A1F008                 mov     ax, es:[08F0]
  1.0A74  3D0010                   cmp     ax, 1000
  1.0A77  7416                     je      0A8F
  1.0A79  BA0080                   mov     dx, 8000

  1.0A7C >3BD0                     cmp     dx, ax
  1.0A7E  7206                     jb      0A86
  1.0A80  D1EA                     shr     dx, 1
  1.0A82  75F8                     jne     0A7C
  1.0A84  EB22                     jmp     0AA8

  1.0A86 >83FA08                   cmp     dx, 0008
  1.0A89  721D                     jb      0AA8
  1.0A8B  D1E2                     shl     dx, 1
  1.0A8D  8BC2                     mov     ax, dx

  1.0A8F >48                       dec     ax
  1.0A90  8BD0                     mov     dx, ax
  1.0A92  03C1                     add     ax, cx
  1.0A94  7302                     jnb     0A98
  1.0A96  33C0                     xor     ax, ax

  1.0A98 >F7D2                     not     dx
  1.0A9A  23C2                     and     ax, dx

  1.0A9C >52                       push    dx
  1.0A9D  E82E00                   call    0ACE
  1.0AA0  5A                       pop     dx
  1.0AA1  730D                     jnb     0AB0
  1.0AA3  83FAF0                   cmp     dx, FFF0
  1.0AA6  7405                     je      0AAD

  1.0AA8 >B81000                   mov     ax, 0010
  1.0AAB  EBE2                     jmp     0A8F

  1.0AAD >F9                       stc    
  1.0AAE  EB1B                     jmp     0ACB

  1.0AB0 >8BD0                     mov     dx, ax
  1.0AB2  2B5704                   sub     dx, [bx+04]
  1.0AB5  894704                   mov     [bx+04], ax
  1.0AB8  897F0A                   mov     [bx+0A], di
  1.0ABB  8B770C                   mov     si, [bx+0C]
  1.0ABE  4A                       dec     dx
  1.0ABF  8914                     mov     [si], dx
  1.0AC1  42                       inc     dx
  1.0AC2  03F2                     add     si, dx
  1.0AC4  C704FEFF                 mov     word ptr [si], FFFE
  1.0AC8  89770C                   mov     [bx+0C], si

  1.0ACB >5F                       pop     di
  1.0ACC  59                       pop     cx
  1.0ACD  C3                       ret    

  1.0ACE >8BD0                     mov     dx, ax
  1.0AD0  F6470204                 test    byte ptr [bx+02], 04
  1.0AD4  7402                     je      0AD8
  1.0AD6  EB51                     jmp     0B29

  1.0AD8 >52                       push    dx
  1.0AD9  51                       push    cx
  1.0ADA  53                       push    bx
  1.0ADB  8B7706                   mov     si, [bx+06]
  1.0ADE  2E8B1E2E04               mov     bx, cs:[042E]
  1.0AE3  33C9                     xor     cx, cx
  1.0AE5  0BD2                     or      dx, dx
  1.0AE7  7507                     jne     0AF0
  1.0AE9  F7C31000                 test    bx, 0010
  1.0AED  7540                     jne     0B2F
  1.0AEF  41                       inc     cx

  1.0AF0 >B80200                   mov     ax, 0002
  1.0AF3  F7C30100                 test    bx, 0001
  1.0AF7  7503                     jne     0AFC
  1.0AF9  B82000                   mov     ax, 0020

  1.0AFC >56                       push    si
  1.0AFD  51                       push    cx
  1.0AFE  52                       push    dx
  1.0AFF  50                       push    ax
  1.0B00  9AFFFF0000               call    KERNEL.GLOBALREALLOC
  1.0B05  0BC0                     or      ax, ax
  1.0B07  7426                     je      0B2F
  1.0B09  3BC6                     cmp     ax, si
  1.0B0B  751C                     jne     0B29
  1.0B0D  56                       push    si
  1.0B0E  9AFFFF0000               call    KERNEL.GLOBALSIZE
  1.0B13  0BD0                     or      dx, ax
  1.0B15  7412                     je      0B29
  1.0B17  5B                       pop     bx
  1.0B18  59                       pop     cx
  1.0B19  5A                       pop     dx
  1.0B1A  8BC2                     mov     ax, dx
  1.0B1C  F6470204                 test    byte ptr [bx+02], 04
  1.0B20  7404                     je      0B26
  1.0B22  4A                       dec     dx
  1.0B23  8957FE                   mov     [bx-02], dx

  1.0B26 >F8                       clc    
  1.0B27  EB0A                     jmp     0B33

  1.0B29 >B81200                   mov     ax, 0012
  1.0B2C  E92EFE                   jmp     095D

  1.0B2F >5B                       pop     bx
  1.0B30  59                       pop     cx
  1.0B31  5A                       pop     dx
  1.0B32  F9                       stc    

  1.0B33 >C3                       ret    

  1.0B34 >57                       push    di
  1.0B35  8B770A                   mov     si, [bx+0A]
  1.0B38  3B770C                   cmp     si, [bx+0C]
  1.0B3B  7503                     jne     0B40
  1.0B3D  8B7708                   mov     si, [bx+08]

  1.0B40 >AD                       lodsw  
  1.0B41  83F8FE                   cmp     ax, FFFE
  1.0B44  7408                     je      0B4E
  1.0B46  8BFE                     mov     di, si
  1.0B48  24FE                     and     al, FE
  1.0B4A  03F0                     add     si, ax
  1.0B4C  EBF2                     jmp     0B40

  1.0B4E >4F                       dec     di
  1.0B4F  4F                       dec     di
  1.0B50  8BF7                     mov     si, di
  1.0B52  5F                       pop     di
  1.0B53  C3                       ret    
  1.0B54  55                       push    bp
  1.0B55  8BEC                     mov     bp, sp
  1.0B57  8BD7                     mov     dx, di
  1.0B59  8CD8                     mov     ax, ds
  1.0B5B  8EC0                     mov     es, ax
  1.0B5D  8B7E06                   mov     di, [bp+06]
  1.0B60  33C0                     xor     ax, ax
  1.0B62  B9FFFF                   mov     cx, FFFF
  1.0B65  F2AE                     repnz scasb
  1.0B67  F7D1                     not     cx
  1.0B69  49                       dec     cx
  1.0B6A  91                       xchg    ax, cx
  1.0B6B  8BFA                     mov     di, dx
  1.0B6D  5D                       pop     bp
  1.0B6E  CB                       retf   
  1.0B6F  00558B                   add     byte ptr [di-75], dl
  1.0B72  EC                       in      al, dx
  1.0B73  57                       push    di
  1.0B74  56                       push    si
  1.0B75  1E                       push    ds
  1.0B76  07                       pop     es
  1.0B77  8B7E06                   mov     di, [bp+06]
  1.0B7A  8B7608                   mov     si, [bp+08]
  1.0B7D  8BDF                     mov     bx, di
  1.0B7F  8B4E0A                   mov     cx, [bp+0A]
  1.0B82  E30C                     jcxz    0B90

  1.0B84 >AC                       lodsb  
  1.0B85  0AC0                     or      al, al
  1.0B87  7403                     je      0B8C
  1.0B89  AA                       stosb  
  1.0B8A  E2F8                     loop    0B84

  1.0B8C >32C0                     xor     al, al
  1.0B8E  F3AA                     rep stosb

  1.0B90 >8BC3                     mov     ax, bx
  1.0B92  5E                       pop     si
  1.0B93  5F                       pop     di
  1.0B94  8BE5                     mov     sp, bp
  1.0B96  5D                       pop     bp
  1.0B97  CB                       retf   
  1.0B98  55                       push    bp
  1.0B99  8BEC                     mov     bp, sp
  1.0B9B  57                       push    di
  1.0B9C  56                       push    si
  1.0B9D  1E                       push    ds
  1.0B9E  07                       pop     es
  1.0B9F  8B4E0A                   mov     cx, [bp+0A]
  1.0BA2  E326                     jcxz    0BCA
  1.0BA4  8BD9                     mov     bx, cx
  1.0BA6  8B7E06                   mov     di, [bp+06]
  1.0BA9  8BF7                     mov     si, di
  1.0BAB  33C0                     xor     ax, ax
  1.0BAD  F2AE                     repnz scasb
  1.0BAF  F7D9                     neg     cx
  1.0BB1  03CB                     add     cx, bx
  1.0BB3  8BFE                     mov     di, si
  1.0BB5  8B7608                   mov     si, [bp+08]
  1.0BB8  F3A6                     rep cmpsb
  1.0BBA  8A44FF                   mov     al, byte ptr [si-01]
  1.0BBD  33C9                     xor     cx, cx
  1.0BBF  3A45FF                   cmp     al, byte ptr [di-01]
  1.0BC2  7704                     ja      0BC8
  1.0BC4  7404                     je      0BCA
  1.0BC6  49                       dec     cx
  1.0BC7  49                       dec     cx

  1.0BC8 >F7D1                     not     cx

  1.0BCA >8BC1                     mov     ax, cx
  1.0BCC  5E                       pop     si
  1.0BCD  5F                       pop     di
  1.0BCE  8BE5                     mov     sp, bp
  1.0BD0  5D                       pop     bp
  1.0BD1  CB                       retf   
  1.0BD2  E90100                   jmp     0BD6
  1.0BD5  00558B                   add     byte ptr [di-75], dl

  1.0BD6 >55                       push    bp
  1.0BD7  8BEC                     mov     bp, sp
  1.0BD9  57                       push    di
  1.0BDA  56                       push    si
  1.0BDB  8B7606                   mov     si, [bp+06]
  1.0BDE  33C0                     xor     ax, ax
  1.0BE0  99                       cwd    
  1.0BE1  33DB                     xor     bx, bx

  1.0BE3 >AC                       lodsb  
  1.0BE4  3C20                     cmp     al, 20
  1.0BE6  74FB                     je      0BE3
  1.0BE8  3C09                     cmp     al, 09
  1.0BEA  74F7                     je      0BE3
  1.0BEC  50                       push    ax
  1.0BED  3C2D                     cmp     al, 2D
  1.0BEF  7404                     je      0BF5
  1.0BF1  3C2B                     cmp     al, 2B
  1.0BF3  7501                     jne     0BF6

  1.0BF5 >AC                       lodsb  

  1.0BF6 >3C39                     cmp     al, 39
  1.0BF8  771F                     ja      0C19
  1.0BFA  2C30                     sub     al, 30
  1.0BFC  721B                     jb      0C19
  1.0BFE  D1E3                     shl     bx, 1
  1.0C00  D1D2                     rcl     dx, 1
  1.0C02  8BCB                     mov     cx, bx
  1.0C04  8BFA                     mov     di, dx
  1.0C06  D1E3                     shl     bx, 1
  1.0C08  D1D2                     rcl     dx, 1
  1.0C0A  D1E3                     shl     bx, 1
  1.0C0C  D1D2                     rcl     dx, 1
  1.0C0E  03D9                     add     bx, cx
  1.0C10  13D7                     adc     dx, di
  1.0C12  03D8                     add     bx, ax
  1.0C14  83D200                   adc     dx, 0000
  1.0C17  EBDC                     jmp     0BF5

  1.0C19 >58                       pop     ax
  1.0C1A  3C2D                     cmp     al, 2D
  1.0C1C  93                       xchg    ax, bx
  1.0C1D  7507                     jne     0C26
  1.0C1F  F7D8                     neg     ax
  1.0C21  83D200                   adc     dx, 0000
  1.0C24  F7DA                     neg     dx

  1.0C26 >5E                       pop     si
  1.0C27  5F                       pop     di
  1.0C28  5D                       pop     bp
  1.0C29  CB                       retf   
  1.0C2A  45                       inc     bp
  1.0C2B  55                       push    bp
  1.0C2C  8BEC                     mov     bp, sp
  1.0C2E  1E                       push    ds
  1.0C2F  57                       push    di
  1.0C30  56                       push    si
  1.0C31  8B36DA08                 mov     si, [08DA]
  1.0C35  0BF6                     or      si, si
  1.0C37  744B                     je      0C84
  1.0C39  837E0600                 cmp     word ptr [bp+06], 0000
  1.0C3D  7445                     je      0C84
  1.0C3F  FF7606                   push    word ptr [bp+06]
  1.0C42  9A540B530C               call    1:0B54
  1.0C47  83C402                   add     sp, 0002
  1.0C4A  8BF8                     mov     di, ax
  1.0C4C  EB31                     jmp     0C7F

  1.0C4E >FF34                     push    word ptr [si]
  1.0C50  9A540B6B0C               call    1:0B54
  1.0C55  83C402                   add     sp, 0002
  1.0C58  3BC7                     cmp     ax, di
  1.0C5A  7620                     jbe     0C7C
  1.0C5C  8B1C                     mov     bx, [si]
  1.0C5E  80393D                   cmp     byte ptr [bx+di], 3D
  1.0C61  7519                     jne     0C7C
  1.0C63  57                       push    di
  1.0C64  FF7606                   push    word ptr [bp+06]
  1.0C67  53                       push    bx
  1.0C68  9A980B260A               call    1:0B98
  1.0C6D  83C406                   add     sp, 0006
  1.0C70  0BC0                     or      ax, ax
  1.0C72  7508                     jne     0C7C
  1.0C74  8B04                     mov     ax, [si]
  1.0C76  03C7                     add     ax, di
  1.0C78  40                       inc     ax
  1.0C79  EB0B                     jmp     0C86
  1.0C7B  90                       nop    

  1.0C7C >83C602                   add     si, 0002

  1.0C7F >833C00                   cmp     word ptr [si], 0000
  1.0C82  75CA                     jne     0C4E

  1.0C84 >33C0                     xor     ax, ax

  1.0C86 >5E                       pop     si
  1.0C87  5F                       pop     di
  1.0C88  8D66FE                   lea     sp, [bp-02]
  1.0C8B  1F                       pop     ds
  1.0C8C  5D                       pop     bp
  1.0C8D  4D                       dec     bp
  1.0C8E  CB                       retf   
  1.0C8F  90                       nop    
  1.0C90  45                       inc     bp
  1.0C91  55                       push    bp
  1.0C92  8BEC                     mov     bp, sp
  1.0C94  1E                       push    ds
  1.0C95  83EC08                   sub     sp, 0008
  1.0C98  57                       push    di
  1.0C99  56                       push    si
  1.0C9A  C746F80000               mov     word ptr [bp-08], 0000
  1.0C9F  8B5E06                   mov     bx, [bp+06]
  1.0CA2  BF2609                   mov     di, 0926
  1.0CA5  8B07                     mov     ax, [bx]
  1.0CA7  8B5702                   mov     dx, [bx+02]
  1.0CAA  8946FA                   mov     [bp-06], ax
  1.0CAD  8956FC                   mov     [bp-04], dx
  1.0CB0  0BD2                     or      dx, dx
  1.0CB2  7D06                     jnl     0CBA
  1.0CB4  33C0                     xor     ax, ax
  1.0CB6  E96401                   jmp     0E1D
  1.0CB9  90                       nop    

  1.0CBA >B880E0                   mov     ax, E080
  1.0CBD  BA79F8                   mov     dx, F879
  1.0CC0  52                       push    dx
  1.0CC1  50                       push    ax
  1.0CC2  B8801F                   mov     ax, 1F80
  1.0CC5  BA8607                   mov     dx, 0786
  1.0CC8  52                       push    dx
  1.0CC9  50                       push    ax
  1.0CCA  FF76FC                   push    word ptr [bp-04]
  1.0CCD  FF76FA                   push    word ptr [bp-06]
  1.0CD0  9AEA12DD0C               call    1:12EA
  1.0CD5  8BF0                     mov     si, ax
  1.0CD7  99                       cwd    
  1.0CD8  52                       push    dx
  1.0CD9  50                       push    ax
  1.0CDA  9A8413630D               call    1:1384
  1.0CDF  0146FA                   add     [bp-06], ax
  1.0CE2  1156FC                   adc     [bp-04], dx
  1.0CE5  8BC6                     mov     ax, si
  1.0CE7  03C0                     add     ax, ax
  1.0CE9  03C0                     add     ax, ax
  1.0CEB  054600                   add     ax, 0046
  1.0CEE  8BF0                     mov     si, ax
  1.0CF0  817EFCE101               cmp     word ptr [bp-04], 01E1
  1.0CF5  7C58                     jl      0D4F
  1.0CF7  7F07                     jg      0D00
  1.0CF9  817EFA8033               cmp     word ptr [bp-06], 3380
  1.0CFE  724F                     jb      0D4F

  1.0D00 >46                       inc     si
  1.0D01  816EFA8033               sub     word ptr [bp-06], 3380
  1.0D06  815EFCE101               sbb     word ptr [bp-04], 01E1
  1.0D0B  817EFCE101               cmp     word ptr [bp-04], 01E1
  1.0D10  7C3D                     jl      0D4F
  1.0D12  7F07                     jg      0D1B
  1.0D14  817EFA8033               cmp     word ptr [bp-06], 3380
  1.0D19  7234                     jb      0D4F

  1.0D1B >46                       inc     si
  1.0D1C  8B46FA                   mov     ax, [bp-06]
  1.0D1F  8B56FC                   mov     dx, [bp-04]
  1.0D22  2D8033                   sub     ax, 3380
  1.0D25  81DAE101                 sbb     dx, 01E1
  1.0D29  8946FA                   mov     [bp-06], ax
  1.0D2C  8956FC                   mov     [bp-04], dx
  1.0D2F  81FAE201                 cmp     dx, 01E2
  1.0D33  7C17                     jl      0D4C
  1.0D35  7F05                     jg      0D3C
  1.0D37  3D0085                   cmp     ax, 8500
  1.0D3A  7210                     jb      0D4C

  1.0D3C >46                       inc     si
  1.0D3D  2D0085                   sub     ax, 8500
  1.0D40  81DAE201                 sbb     dx, 01E2
  1.0D44  8946FA                   mov     [bp-06], ax
  1.0D47  8956FC                   mov     [bp-04], dx
  1.0D4A  EB03                     jmp     0D4F

  1.0D4C >FF46F8                   inc     word ptr [bp-08]

  1.0D4F >89750A                   mov     [di+0A], si
  1.0D52  B88051                   mov     ax, 5180
  1.0D55  BA0100                   mov     dx, 0001
  1.0D58  52                       push    dx
  1.0D59  50                       push    ax
  1.0D5A  FF76FC                   push    word ptr [bp-04]
  1.0D5D  FF76FA                   push    word ptr [bp-06]
  1.0D60  9AEA12760D               call    1:12EA
  1.0D65  89450E                   mov     [di+0E], ax
  1.0D68  B980AE                   mov     cx, AE80
  1.0D6B  BAFEFF                   mov     dx, FFFE
  1.0D6E  52                       push    dx
  1.0D6F  51                       push    cx
  1.0D70  99                       cwd    
  1.0D71  52                       push    dx
  1.0D72  50                       push    ax
  1.0D73  9A8413C80D               call    1:1384
  1.0D78  0146FA                   add     [bp-06], ax
  1.0D7B  1156FC                   adc     [bp-04], dx
  1.0D7E  837EF800                 cmp     word ptr [bp-08], 0000
  1.0D82  7408                     je      0D8C
  1.0D84  C746F6F208               mov     word ptr [bp-0A], 08F2
  1.0D89  EB06                     jmp     0D91
  1.0D8B  90                       nop    

  1.0D8C >C746F60C09               mov     word ptr [bp-0A], 090C

  1.0D91 >BE0100                   mov     si, 0001
  1.0D94  EB01                     jmp     0D97

  1.0D96 >46                       inc     si

  1.0D97 >8B450E                   mov     ax, [di+0E]
  1.0D9A  8BDE                     mov     bx, si
  1.0D9C  03DE                     add     bx, si
  1.0D9E  035EF6                   add     bx, [bp-0A]
  1.0DA1  3907                     cmp     [bx], ax
  1.0DA3  7CF1                     jl      0D96
  1.0DA5  4E                       dec     si
  1.0DA6  897508                   mov     [di+08], si
  1.0DA9  8BDE                     mov     bx, si
  1.0DAB  03DE                     add     bx, si
  1.0DAD  035EF6                   add     bx, [bp-0A]
  1.0DB0  2B07                     sub     ax, [bx]
  1.0DB2  894506                   mov     [di+06], ax
  1.0DB5  B88051                   mov     ax, 5180
  1.0DB8  BA0100                   mov     dx, 0001
  1.0DBB  52                       push    dx
  1.0DBC  50                       push    ax
  1.0DBD  8B5E06                   mov     bx, [bp+06]
  1.0DC0  FF7702                   push    word ptr [bx+02]
  1.0DC3  FF37                     push    word ptr [bx]
  1.0DC5  9AEA12E50D               call    1:12EA
  1.0DCA  050400                   add     ax, 0004
  1.0DCD  B90700                   mov     cx, 0007
  1.0DD0  99                       cwd    
  1.0DD1  F7F9                     idiv    cx
  1.0DD3  89550C                   mov     [di+0C], dx
  1.0DD6  B8100E                   mov     ax, 0E10
  1.0DD9  99                       cwd    
  1.0DDA  52                       push    dx
  1.0DDB  50                       push    ax
  1.0DDC  FF76FC                   push    word ptr [bp-04]
  1.0DDF  FF76FA                   push    word ptr [bp-06]
  1.0DE2  9AEA12070E               call    1:12EA
  1.0DE7  894504                   mov     [di+04], ax
  1.0DEA  B93C00                   mov     cx, 003C
  1.0DED  33D2                     xor     dx, dx
  1.0DEF  52                       push    dx
  1.0DF0  51                       push    cx
  1.0DF1  B9F0F1                   mov     cx, F1F0
  1.0DF4  F7E9                     imul    cx
  1.0DF6  0146FA                   add     [bp-06], ax
  1.0DF9  1156FC                   adc     [bp-04], dx
  1.0DFC  8B46FA                   mov     ax, [bp-06]
  1.0DFF  8B56FC                   mov     dx, [bp-04]
  1.0E02  52                       push    dx
  1.0E03  50                       push    ax
  1.0E04  9AEA12450C               call    1:12EA
  1.0E09  894502                   mov     [di+02], ax
  1.0E0C  B9C4FF                   mov     cx, FFC4
  1.0E0F  F7E9                     imul    cx
  1.0E11  0346FA                   add     ax, [bp-06]
  1.0E14  8905                     mov     [di], ax
  1.0E16  C745100000               mov     word ptr [di+10], 0000
  1.0E1B  8BC7                     mov     ax, di

  1.0E1D >5E                       pop     si
  1.0E1E  5F                       pop     di
  1.0E1F  8D66FE                   lea     sp, [bp-02]
  1.0E22  1F                       pop     ds
  1.0E23  5D                       pop     bp
  1.0E24  4D                       dec     bp
  1.0E25  CB                       retf   
  1.0E26  45                       inc     bp
  1.0E27  55                       push    bp
  1.0E28  8BEC                     mov     bp, sp
  1.0E2A  1E                       push    ds
  1.0E2B  83EC04                   sub     sp, 0004
  1.0E2E  56                       push    si
  1.0E2F  8B5E06                   mov     bx, [bp+06]
  1.0E32  837F0200                 cmp     word ptr [bx+02], 0000
  1.0E36  7D06                     jnl     0E3E

  1.0E38 >33C0                     xor     ax, ax
  1.0E3A  E9DE00                   jmp     0F1B
  1.0E3D  90                       nop    

  1.0E3E >9AB60F640E               call    1:0FB6
  1.0E43  8B5E06                   mov     bx, [bp+06]
  1.0E46  8B07                     mov     ax, [bx]
  1.0E48  8B5702                   mov     dx, [bx+02]
  1.0E4B  2B063C09                 sub     ax, [093C]
  1.0E4F  1B163E09                 sbb     dx, [093E]
  1.0E53  8946FA                   mov     [bp-06], ax
  1.0E56  8956FC                   mov     [bp-04], dx
  1.0E59  0BD2                     or      dx, dx
  1.0E5B  7C4D                     jl      0EAA
  1.0E5D  8D46FA                   lea     ax, [bp-06]
  1.0E60  50                       push    ax
  1.0E61  9A900C790E               call    1:0C90
  1.0E66  83C402                   add     sp, 0002
  1.0E69  8BF0                     mov     si, ax
  1.0E6B  833E400900               cmp     word ptr [0940], 0000
  1.0E70  7503                     jne     0E75
  1.0E72  E9A400                   jmp     0F19

  1.0E75 >50                       push    ax
  1.0E76  9AD6109B0E               call    1:10D6
  1.0E7B  83C402                   add     sp, 0002
  1.0E7E  0BC0                     or      ax, ax
  1.0E80  7503                     jne     0E85
  1.0E82  E99400                   jmp     0F19

  1.0E85 >8146FA100E               add     word ptr [bp-06], 0E10
  1.0E8A  8356FC00                 adc     word ptr [bp-04], 0000
  1.0E8E  837EFC00                 cmp     word ptr [bp-04], 0000
  1.0E92  7CA4                     jl      0E38
  1.0E94  8D46FA                   lea     ax, [bp-06]
  1.0E97  50                       push    ax
  1.0E98  9A900CC10E               call    1:0C90
  1.0E9D  8BF0                     mov     si, ax
  1.0E9F  83C402                   add     sp, 0002
  1.0EA2  C744100100               mov     word ptr [si+10], 0001
  1.0EA7  EB70                     jmp     0F19
  1.0EA9  90                       nop    

  1.0EAA >058051                   add     ax, 5180
  1.0EAD  83D201                   adc     dx, 0001
  1.0EB0  0BD2                     or      dx, dx
  1.0EB2  7C30                     jl      0EE4
  1.0EB4  8946FA                   mov     [bp-06], ax
  1.0EB7  8956FC                   mov     [bp-04], dx
  1.0EBA  8D46FA                   lea     ax, [bp-06]
  1.0EBD  50                       push    ax
  1.0EBE  9A900C010F               call    1:0C90
  1.0EC3  8BF0                     mov     si, ax
  1.0EC5  83C402                   add     sp, 0002
  1.0EC8  C7440A4500               mov     word ptr [si+0A], 0045
  1.0ECD  C744080B00               mov     word ptr [si+08], 000B
  1.0ED2  C744061F00               mov     word ptr [si+06], 001F
  1.0ED7  C7440C0300               mov     word ptr [si+0C], 0003
  1.0EDC  C7440E6C01               mov     word ptr [si+0E], 016C
  1.0EE1  EB36                     jmp     0F19
  1.0EE3  90                       nop    

  1.0EE4 >8B46FA                   mov     ax, [bp-06]
  1.0EE7  8B56FC                   mov     dx, [bp-04]
  1.0EEA  2D8051                   sub     ax, 5180
  1.0EED  83DA01                   sbb     dx, 0001
  1.0EF0  0BD2                     or      dx, dx
  1.0EF2  7C25                     jl      0F19
  1.0EF4  8946FA                   mov     [bp-06], ax
  1.0EF7  8956FC                   mov     [bp-04], dx
  1.0EFA  8D46FA                   lea     ax, [bp-06]
  1.0EFD  50                       push    ax
  1.0EFE  9A900CD30C               call    1:0C90
  1.0F03  8BF0                     mov     si, ax
  1.0F05  83C402                   add     sp, 0002
  1.0F08  FF4406                   inc     word ptr [si+06]
  1.0F0B  8B440C                   mov     ax, [si+0C]
  1.0F0E  40                       inc     ax
  1.0F0F  89440C                   mov     [si+0C], ax
  1.0F12  8B440E                   mov     ax, [si+0E]
  1.0F15  40                       inc     ax
  1.0F16  89440E                   mov     [si+0E], ax

  1.0F19 >8BC6                     mov     ax, si

  1.0F1B >5E                       pop     si
  1.0F1C  8D66FE                   lea     sp, [bp-02]
  1.0F1F  1F                       pop     ds
  1.0F20  5D                       pop     bp
  1.0F21  4D                       dec     bp
  1.0F22  CB                       retf   
  1.0F23  90                       nop    
  1.0F24  8CD8                     mov     ax, ds
  1.0F26  90                       nop    
  1.0F27  45                       inc     bp
  1.0F28  55                       push    bp
  1.0F29  8BEC                     mov     bp, sp
  1.0F2B  1E                       push    ds
  1.0F2C  8ED8                     mov     ds, ax
  1.0F2E  56                       push    si
  1.0F2F  B42A                     mov     ah, 2A
  1.0F31  2EF7062E040100           test    word ptr cs:[042E], 0001
  1.0F38  7407                     je      0F41
  1.0F3A  9AAA060000               call    KERNEL.DOS3CALL
  1.0F3F  EB02                     jmp     0F43

  1.0F41 >CD21                     int     21

  1.0F43 >8BDA                     mov     bx, dx
  1.0F45  8BF1                     mov     si, cx
  1.0F47  B42C                     mov     ah, 2C
  1.0F49  2EF7062E040100           test    word ptr cs:[042E], 0001
  1.0F50  7407                     je      0F59
  1.0F52  9A3B0F0000               call    KERNEL.DOS3CALL
  1.0F57  EB02                     jmp     0F5B

  1.0F59 >CD21                     int     21

  1.0F5B >B400                     mov     ah, 00
  1.0F5D  8AC6                     mov     al, dh
  1.0F5F  50                       push    ax
  1.0F60  8AC1                     mov     al, cl
  1.0F62  50                       push    ax
  1.0F63  8AC5                     mov     al, ch
  1.0F65  50                       push    ax
  1.0F66  50                       push    ax
  1.0F67  B42A                     mov     ah, 2A
  1.0F69  2EF7062E040100           test    word ptr cs:[042E], 0001
  1.0F70  7407                     je      0F79
  1.0F72  9A530F0000               call    KERNEL.DOS3CALL
  1.0F77  EB02                     jmp     0F7B

  1.0F79 >CD21                     int     21

  1.0F7B >3BDA                     cmp     bx, dx
  1.0F7D  58                       pop     ax
  1.0F7E  7408                     je      0F88
  1.0F80  3C17                     cmp     al, 17
  1.0F82  7504                     jne     0F88
  1.0F84  8BD3                     mov     dx, bx
  1.0F86  8BCE                     mov     cx, si

  1.0F88 >B400                     mov     ah, 00
  1.0F8A  8AC2                     mov     al, dl
  1.0F8C  50                       push    ax
  1.0F8D  8AC6                     mov     al, dh
  1.0F8F  50                       push    ax
  1.0F90  81E9BC07                 sub     cx, 07BC
  1.0F94  51                       push    cx
  1.0F95  9AA211410E               call    1:11A2
  1.0F9A  83C40C                   add     sp, 000C
  1.0F9D  837E0600                 cmp     word ptr [bp+06], 0000
  1.0FA1  7408                     je      0FAB
  1.0FA3  8B5E06                   mov     bx, [bp+06]
  1.0FA6  895702                   mov     [bx+02], dx
  1.0FA9  8907                     mov     [bx], ax

  1.0FAB >5E                       pop     si
  1.0FAC  83ED02                   sub     bp, 0002
  1.0FAF  8BE5                     mov     sp, bp
  1.0FB1  1F                       pop     ds
  1.0FB2  5D                       pop     bp
  1.0FB3  4D                       dec     bp
  1.0FB4  CB                       retf   
  1.0FB5  004555                   add     byte ptr [di+55], al
  1.0FB8  8BEC                     mov     bp, sp
  1.0FBA  1E                       push    ds
  1.0FBB  833EBA0B00               cmp     word ptr [0BBA], 0000
  1.0FC0  7509                     jne     0FCB
  1.0FC2  9AD20FE20F               call    1:0FD2
  1.0FC7  FF06BA0B                 inc     word ptr [0BBA]

  1.0FCB >8D66FE                   lea     sp, [bp-02]
  1.0FCE  1F                       pop     ds
  1.0FCF  5D                       pop     bp
  1.0FD0  4D                       dec     bp
  1.0FD1  CB                       retf   
  1.0FD2  45                       inc     bp
  1.0FD3  55                       push    bp
  1.0FD4  8BEC                     mov     bp, sp
  1.0FD6  1E                       push    ds
  1.0FD7  57                       push    di
  1.0FD8  56                       push    si
  1.0FD9  33FF                     xor     di, di
  1.0FDB  B83809                   mov     ax, 0938
  1.0FDE  50                       push    ax
  1.0FDF  9A2A0C0410               call    1:0C2A
  1.0FE4  83C402                   add     sp, 0002
  1.0FE7  8BF0                     mov     si, ax
  1.0FE9  0BF0                     or      si, ax
  1.0FEB  7503                     jne     0FF0
  1.0FED  E9DD00                   jmp     10CD

  1.0FF0 >803C00                   cmp     byte ptr [si], 00
  1.0FF3  7503                     jne     0FF8
  1.0FF5  E9D500                   jmp     10CD

  1.0FF8 >B80300                   mov     ax, 0003
  1.0FFB  50                       push    ax
  1.0FFC  56                       push    si
  1.0FFD  FF364A09                 push    word ptr [094A]
  1.1001  9A700B1D10               call    1:0B70
  1.1006  83C406                   add     sp, 0006
  1.1009  83C603                   add     si, 0003
  1.100C  803C2D                   cmp     byte ptr [si], 2D
  1.100F  7502                     jne     1013
  1.1011  47                       inc     di
  1.1012  46                       inc     si

  1.1013 >B8100E                   mov     ax, 0E10
  1.1016  99                       cwd    
  1.1017  52                       push    dx
  1.1018  50                       push    ax
  1.1019  56                       push    si
  1.101A  9AD20B2710               call    1:0BD2
  1.101F  83C402                   add     sp, 0002
  1.1022  52                       push    dx
  1.1023  50                       push    ax
  1.1024  9A84135210               call    1:1384
  1.1029  A33C09                   mov     [093C], ax
  1.102C  89163E09                 mov     [093E], dx

  1.1030 >803C2B                   cmp     byte ptr [si], 2B
  1.1033  740A                     je      103F
  1.1035  803C30                   cmp     byte ptr [si], 30
  1.1038  7C08                     jl      1042
  1.103A  803C39                   cmp     byte ptr [si], 39
  1.103D  7F03                     jg      1042

  1.103F >46                       inc     si
  1.1040  EBEE                     jmp     1030

  1.1042 >803C3A                   cmp     byte ptr [si], 3A
  1.1045  7550                     jne     1097
  1.1047  B83C00                   mov     ax, 003C
  1.104A  99                       cwd    
  1.104B  52                       push    dx
  1.104C  50                       push    ax
  1.104D  46                       inc     si
  1.104E  56                       push    si
  1.104F  9AD20B5C10               call    1:0BD2
  1.1054  83C402                   add     sp, 0002
  1.1057  52                       push    dx
  1.1058  50                       push    ax
  1.1059  9A84137D10               call    1:1384
  1.105E  01063C09                 add     [093C], ax
  1.1062  11163E09                 adc     [093E], dx
  1.1066  EB06                     jmp     106E

  1.1068 >803C39                   cmp     byte ptr [si], 39
  1.106B  7F06                     jg      1073
  1.106D  46                       inc     si

  1.106E >803C30                   cmp     byte ptr [si], 30
  1.1071  7DF5                     jnl     1068

  1.1073 >803C3A                   cmp     byte ptr [si], 3A
  1.1076  751F                     jne     1097
  1.1078  46                       inc     si
  1.1079  56                       push    si
  1.107A  9AD20BBE10               call    1:0BD2
  1.107F  83C402                   add     sp, 0002
  1.1082  01063C09                 add     [093C], ax
  1.1086  11163E09                 adc     [093E], dx
  1.108A  EB06                     jmp     1092

  1.108C >803C39                   cmp     byte ptr [si], 39
  1.108F  7F06                     jg      1097
  1.1091  46                       inc     si

  1.1092 >803C30                   cmp     byte ptr [si], 30
  1.1095  7DF5                     jnl     108C

  1.1097 >0BFF                     or      di, di
  1.1099  740D                     je      10A8
  1.109B  F71E3C09                 neg     word ptr [093C]
  1.109F  83163E0900               adc     word ptr [093E], 0000
  1.10A4  F71E3E09                 neg     word ptr [093E]

  1.10A8 >8A04                     mov     al, byte ptr [si]
  1.10AA  98                       cbw    
  1.10AB  A34009                   mov     [0940], ax
  1.10AE  0BC0                     or      ax, ax
  1.10B0  7414                     je      10C6
  1.10B2  B80300                   mov     ax, 0003
  1.10B5  50                       push    ax
  1.10B6  56                       push    si
  1.10B7  FF364C09                 push    word ptr [094C]
  1.10BB  9A700B6311               call    1:0B70
  1.10C0  83C406                   add     sp, 0006
  1.10C3  EB08                     jmp     10CD
  1.10C5  90                       nop    

  1.10C6 >8B1E4C09                 mov     bx, [094C]
  1.10CA  C60700                   mov     byte ptr [bx], 00

  1.10CD >5E                       pop     si
  1.10CE  5F                       pop     di
  1.10CF  8D66FE                   lea     sp, [bp-02]
  1.10D2  1F                       pop     ds
  1.10D3  5D                       pop     bp
  1.10D4  4D                       dec     bp
  1.10D5  CB                       retf   
  1.10D6  45                       inc     bp
  1.10D7  55                       push    bp
  1.10D8  8BEC                     mov     bp, sp
  1.10DA  1E                       push    ds
  1.10DB  83EC04                   sub     sp, 0004
  1.10DE  57                       push    di
  1.10DF  56                       push    si
  1.10E0  8B7606                   mov     si, [bp+06]
  1.10E3  837C0A43                 cmp     word ptr [si+0A], 0043
  1.10E7  7D03                     jnl     10EC
  1.10E9  E9AA00                   jmp     1196

  1.10EC >837C0803                 cmp     word ptr [si+08], 0003
  1.10F0  7D03                     jnl     10F5
  1.10F2  E9A100                   jmp     1196

  1.10F5 >837C0809                 cmp     word ptr [si+08], 0009
  1.10F9  7E03                     jle     10FE
  1.10FB  E99800                   jmp     1196

  1.10FE >837C0803                 cmp     word ptr [si+08], 0003
  1.1102  7E06                     jle     110A
  1.1104  837C0809                 cmp     word ptr [si+08], 0009
  1.1108  7C76                     jl      1180

  1.110A >8B7C0A                   mov     di, [si+0A]
  1.110D  83FF56                   cmp     di, 0056
  1.1110  7E16                     jle     1128
  1.1112  837C0803                 cmp     word ptr [si+08], 0003
  1.1116  7510                     jne     1128
  1.1118  8B5C08                   mov     bx, [si+08]
  1.111B  03DB                     add     bx, bx
  1.111D  8B870C09                 mov     ax, [bx+090C]
  1.1121  050700                   add     ax, 0007
  1.1124  EB0B                     jmp     1131
  1.1126  90                       nop    
  1.1127  90                       nop    

  1.1128 >8B5C08                   mov     bx, [si+08]
  1.112B  03DB                     add     bx, bx
  1.112D  8B870E09                 mov     ax, [bx+090E]

  1.1131 >8946FC                   mov     [bp-04], ax
  1.1134  F7C70300                 test    di, 0003
  1.1138  7503                     jne     113D
  1.113A  FF46FC                   inc     word ptr [bp-04]

  1.113D >B80700                   mov     ax, 0007
  1.1140  99                       cwd    
  1.1141  52                       push    dx
  1.1142  50                       push    ax
  1.1143  B96D01                   mov     cx, 016D
  1.1146  8D45BA                   lea     ax, [di-46]
  1.1149  F7E9                     imul    cx
  1.114B  8D4DFF                   lea     cx, [di-01]
  1.114E  D1F9                     sar     cx, 1
  1.1150  D1F9                     sar     cx, 1
  1.1152  03C1                     add     ax, cx
  1.1154  0346FC                   add     ax, [bp-04]
  1.1157  99                       cwd    
  1.1158  2D0D00                   sub     ax, 000D
  1.115B  83DA00                   sbb     dx, 0000
  1.115E  52                       push    dx
  1.115F  50                       push    ax
  1.1160  9AB613980F               call    1:13B6
  1.1165  2B46FC                   sub     ax, [bp-04]
  1.1168  F7D8                     neg     ax
  1.116A  8946FA                   mov     [bp-06], ax
  1.116D  837C0803                 cmp     word ptr [si+08], 0003
  1.1171  7513                     jne     1186
  1.1173  3B440E                   cmp     ax, [si+0E]
  1.1176  7C08                     jl      1180
  1.1178  751C                     jne     1196
  1.117A  837C0402                 cmp     word ptr [si+04], 0002
  1.117E  7C16                     jl      1196

  1.1180 >B80100                   mov     ax, 0001
  1.1183  EB13                     jmp     1198
  1.1185  90                       nop    

  1.1186 >8B440E                   mov     ax, [si+0E]
  1.1189  3946FA                   cmp     [bp-06], ax
  1.118C  7FF2                     jg      1180
  1.118E  7506                     jne     1196
  1.1190  837C0401                 cmp     word ptr [si+04], 0001
  1.1194  7CEA                     jl      1180

  1.1196 >33C0                     xor     ax, ax

  1.1198 >5E                       pop     si
  1.1199  5F                       pop     di
  1.119A  8D66FE                   lea     sp, [bp-02]
  1.119D  1F                       pop     ds
  1.119E  5D                       pop     bp
  1.119F  4D                       dec     bp
  1.11A0  CB                       retf   
  1.11A1  90                       nop    
  1.11A2  45                       inc     bp
  1.11A3  55                       push    bp
  1.11A4  8BEC                     mov     bp, sp
  1.11A6  1E                       push    ds
  1.11A7  83EC1A                   sub     sp, 001A
  1.11AA  57                       push    di
  1.11AB  56                       push    si
  1.11AC  8B7606                   mov     si, [bp+06]
  1.11AF  8B5E08                   mov     bx, [bp+08]
  1.11B2  03DB                     add     bx, bx
  1.11B4  8BBF0A09                 mov     di, [bx+090A]
  1.11B8  F7C60300                 test    si, 0003
  1.11BC  7507                     jne     11C5
  1.11BE  837E0802                 cmp     word ptr [bp+08], 0002
  1.11C2  7E01                     jle     11C5
  1.11C4  47                       inc     di

  1.11C5 >9AB60F1212               call    1:0FB6
  1.11CA  B83C00                   mov     ax, 003C
  1.11CD  99                       cwd    
  1.11CE  52                       push    dx
  1.11CF  50                       push    ax
  1.11D0  52                       push    dx
  1.11D1  50                       push    ax
  1.11D2  B81800                   mov     ax, 0018
  1.11D5  99                       cwd    
  1.11D6  52                       push    dx
  1.11D7  50                       push    ax
  1.11D8  8BC6                     mov     ax, si
  1.11DA  B96D01                   mov     cx, 016D
  1.11DD  F7E9                     imul    cx
  1.11DF  8BC8                     mov     cx, ax
  1.11E1  8B460A                   mov     ax, [bp+0A]
  1.11E4  8BDA                     mov     bx, dx
  1.11E6  99                       cwd    
  1.11E7  8946E4                   mov     [bp-1C], ax
  1.11EA  8956E6                   mov     [bp-1A], dx
  1.11ED  8D4403                   lea     ax, [si+03]
  1.11F0  D1F8                     sar     ax, 1
  1.11F2  D1F8                     sar     ax, 1
  1.11F4  99                       cwd    
  1.11F5  0346E4                   add     ax, [bp-1C]
  1.11F8  1356E6                   adc     dx, [bp-1A]
  1.11FB  03C8                     add     cx, ax
  1.11FD  13DA                     adc     bx, dx
  1.11FF  8BC7                     mov     ax, di
  1.1201  99                       cwd    
  1.1202  03CF                     add     cx, di
  1.1204  13DA                     adc     bx, dx
  1.1206  81C1440E                 add     cx, 0E44
  1.120A  83D300                   adc     bx, 0000
  1.120D  53                       push    bx
  1.120E  51                       push    cx
  1.120F  9A84132512               call    1:1384
  1.1214  8BC8                     mov     cx, ax
  1.1216  8B460C                   mov     ax, [bp+0C]
  1.1219  8BDA                     mov     bx, dx
  1.121B  99                       cwd    
  1.121C  03C8                     add     cx, ax
  1.121E  13DA                     adc     bx, dx
  1.1220  53                       push    bx
  1.1221  51                       push    cx
  1.1222  9A84133812               call    1:1384
  1.1227  8BC8                     mov     cx, ax
  1.1229  8B460E                   mov     ax, [bp+0E]
  1.122C  8BDA                     mov     bx, dx
  1.122E  99                       cwd    
  1.122F  03C8                     add     cx, ax
  1.1231  13DA                     adc     bx, dx
  1.1233  53                       push    bx
  1.1234  51                       push    cx
  1.1235  9A84137D12               call    1:1384
  1.123A  8BC8                     mov     cx, ax
  1.123C  8B4610                   mov     ax, [bp+10]
  1.123F  8BDA                     mov     bx, dx
  1.1241  99                       cwd    
  1.1242  03C8                     add     cx, ax
  1.1244  13DA                     adc     bx, dx
  1.1246  030E3C09                 add     cx, [093C]
  1.124A  131E3E09                 adc     bx, [093E]
  1.124E  894EE8                   mov     [bp-18], cx
  1.1251  895EEA                   mov     [bp-16], bx
  1.1254  8B460A                   mov     ax, [bp+0A]
  1.1257  03C7                     add     ax, di
  1.1259  8946FA                   mov     [bp-06], ax
  1.125C  8D4450                   lea     ax, [si+50]
  1.125F  8946F6                   mov     [bp-0A], ax
  1.1262  8B4608                   mov     ax, [bp+08]
  1.1265  48                       dec     ax
  1.1266  8946F4                   mov     [bp-0C], ax
  1.1269  8B460C                   mov     ax, [bp+0C]
  1.126C  8946F0                   mov     [bp-10], ax
  1.126F  833E400900               cmp     word ptr [0940], 0000
  1.1274  7419                     je      128F
  1.1276  8D46EC                   lea     ax, [bp-14]
  1.1279  50                       push    ax
  1.127A  9AD610C50F               call    1:10D6
  1.127F  83C402                   add     sp, 0002
  1.1282  0BC0                     or      ax, ax
  1.1284  7409                     je      128F
  1.1286  816EE8100E               sub     word ptr [bp-18], 0E10
  1.128B  835EEA00                 sbb     word ptr [bp-16], 0000

  1.128F >8B46E8                   mov     ax, [bp-18]
  1.1292  8B56EA                   mov     dx, [bp-16]
  1.1295  5E                       pop     si
  1.1296  5F                       pop     di
  1.1297  8D66FE                   lea     sp, [bp-02]
  1.129A  1F                       pop     ds
  1.129B  5D                       pop     bp
  1.129C  4D                       dec     bp
  1.129D  CB                       retf   
  1.129E  45                       inc     bp
  1.129F  55                       push    bp
  1.12A0  8BEC                     mov     bp, sp
  1.12A2  1E                       push    ds
  1.12A3  8B4606                   mov     ax, [bp+06]
  1.12A6  A34E09                   mov     [094E], ax
  1.12A9  C70650090000             mov     word ptr [0950], 0000
  1.12AF  8D66FE                   lea     sp, [bp-02]
  1.12B2  1F                       pop     ds
  1.12B3  5D                       pop     bp
  1.12B4  4D                       dec     bp
  1.12B5  CB                       retf   
  1.12B6  45                       inc     bp
  1.12B7  55                       push    bp
  1.12B8  8BEC                     mov     bp, sp
  1.12BA  1E                       push    ds
  1.12BB  B8FD43                   mov     ax, 43FD
  1.12BE  BA0300                   mov     dx, 0003
  1.12C1  52                       push    dx
  1.12C2  50                       push    ax
  1.12C3  FF365009                 push    word ptr [0950]
  1.12C7  FF364E09                 push    word ptr [094E]
  1.12CB  9A8413C811               call    1:1384
  1.12D0  05C39E                   add     ax, 9EC3
  1.12D3  83D226                   adc     dx, 0026
  1.12D6  A34E09                   mov     [094E], ax
  1.12D9  89165009                 mov     [0950], dx
  1.12DD  8BC2                     mov     ax, dx
  1.12DF  80E47F                   and     ah, 7F
  1.12E2  8D66FE                   lea     sp, [bp-02]
  1.12E5  1F                       pop     ds
  1.12E6  5D                       pop     bp
  1.12E7  4D                       dec     bp
  1.12E8  CB                       retf   
  1.12E9  90                       nop    
  1.12EA  55                       push    bp
  1.12EB  8BEC                     mov     bp, sp
  1.12ED  57                       push    di
  1.12EE  56                       push    si
  1.12EF  53                       push    bx
  1.12F0  33FF                     xor     di, di
  1.12F2  8B4608                   mov     ax, [bp+08]
  1.12F5  0BC0                     or      ax, ax
  1.12F7  7D11                     jnl     130A
  1.12F9  47                       inc     di
  1.12FA  8B5606                   mov     dx, [bp+06]
  1.12FD  F7D8                     neg     ax
  1.12FF  F7DA                     neg     dx
  1.1301  83D800                   sbb     ax, 0000
  1.1304  894608                   mov     [bp+08], ax
  1.1307  895606                   mov     [bp+06], dx

  1.130A >8B460C                   mov     ax, [bp+0C]
  1.130D  0BC0                     or      ax, ax
  1.130F  7D11                     jnl     1322
  1.1311  47                       inc     di
  1.1312  8B560A                   mov     dx, [bp+0A]
  1.1315  F7D8                     neg     ax
  1.1317  F7DA                     neg     dx
  1.1319  83D800                   sbb     ax, 0000
  1.131C  89460C                   mov     [bp+0C], ax
  1.131F  89560A                   mov     [bp+0A], dx

  1.1322 >0BC0                     or      ax, ax
  1.1324  7515                     jne     133B
  1.1326  8B4E0A                   mov     cx, [bp+0A]
  1.1329  8B4608                   mov     ax, [bp+08]
  1.132C  33D2                     xor     dx, dx
  1.132E  F7F1                     div     cx
  1.1330  8BD8                     mov     bx, ax
  1.1332  8B4606                   mov     ax, [bp+06]
  1.1335  F7F1                     div     cx
  1.1337  8BD3                     mov     dx, bx
  1.1339  EB38                     jmp     1373

  1.133B >8BD8                     mov     bx, ax
  1.133D  8B4E0A                   mov     cx, [bp+0A]
  1.1340  8B5608                   mov     dx, [bp+08]
  1.1343  8B4606                   mov     ax, [bp+06]

  1.1346 >D1EB                     shr     bx, 1
  1.1348  D1D9                     rcr     cx, 1
  1.134A  D1EA                     shr     dx, 1
  1.134C  D1D8                     rcr     ax, 1
  1.134E  0BDB                     or      bx, bx
  1.1350  75F4                     jne     1346
  1.1352  F7F1                     div     cx
  1.1354  8BF0                     mov     si, ax
  1.1356  F7660C                   mul     word ptr [bp+0C]
  1.1359  91                       xchg    ax, cx
  1.135A  8B460A                   mov     ax, [bp+0A]
  1.135D  F7E6                     mul     si
  1.135F  03D1                     add     dx, cx
  1.1361  720C                     jb      136F
  1.1363  3B5608                   cmp     dx, [bp+08]
  1.1366  7707                     ja      136F
  1.1368  7206                     jb      1370
  1.136A  3B4606                   cmp     ax, [bp+06]
  1.136D  7601                     jbe     1370

  1.136F >4E                       dec     si

  1.1370 >33D2                     xor     dx, dx
  1.1372  96                       xchg    ax, si

  1.1373 >4F                       dec     di
  1.1374  7507                     jne     137D
  1.1376  F7DA                     neg     dx
  1.1378  F7D8                     neg     ax
  1.137A  83DA00                   sbb     dx, 0000

  1.137D >5B                       pop     bx
  1.137E  5E                       pop     si
  1.137F  5F                       pop     di
  1.1380  5D                       pop     bp
  1.1381  CA0800                   retf    0008
  1.1384  55                       push    bp
  1.1385  8BEC                     mov     bp, sp
  1.1387  8B4608                   mov     ax, [bp+08]
  1.138A  8B4E0C                   mov     cx, [bp+0C]
  1.138D  0BC8                     or      cx, ax
  1.138F  8B4E0A                   mov     cx, [bp+0A]
  1.1392  7509                     jne     139D
  1.1394  8B4606                   mov     ax, [bp+06]
  1.1397  F7E1                     mul     cx
  1.1399  5D                       pop     bp
  1.139A  CA0800                   retf    0008

  1.139D >53                       push    bx
  1.139E  F7E1                     mul     cx
  1.13A0  8BD8                     mov     bx, ax
  1.13A2  8B4606                   mov     ax, [bp+06]
  1.13A5  F7660C                   mul     word ptr [bp+0C]
  1.13A8  03D8                     add     bx, ax
  1.13AA  8B4606                   mov     ax, [bp+06]
  1.13AD  F7E1                     mul     cx
  1.13AF  03D3                     add     dx, bx
  1.13B1  5B                       pop     bx
  1.13B2  5D                       pop     bp
  1.13B3  CA0800                   retf    0008
  1.13B6  55                       push    bp
  1.13B7  8BEC                     mov     bp, sp
  1.13B9  53                       push    bx
  1.13BA  57                       push    di
  1.13BB  33FF                     xor     di, di
  1.13BD  8B4608                   mov     ax, [bp+08]
  1.13C0  0BC0                     or      ax, ax
  1.13C2  7D11                     jnl     13D5
  1.13C4  47                       inc     di
  1.13C5  8B5606                   mov     dx, [bp+06]
  1.13C8  F7D8                     neg     ax
  1.13CA  F7DA                     neg     dx
  1.13CC  83D800                   sbb     ax, 0000
  1.13CF  894608                   mov     [bp+08], ax
  1.13D2  895606                   mov     [bp+06], dx

  1.13D5 >8B460C                   mov     ax, [bp+0C]
  1.13D8  0BC0                     or      ax, ax
  1.13DA  7D10                     jnl     13EC
  1.13DC  8B560A                   mov     dx, [bp+0A]
  1.13DF  F7D8                     neg     ax
  1.13E1  F7DA                     neg     dx
  1.13E3  83D800                   sbb     ax, 0000
  1.13E6  89460C                   mov     [bp+0C], ax
  1.13E9  89560A                   mov     [bp+0A], dx

  1.13EC >0BC0                     or      ax, ax
  1.13EE  7518                     jne     1408
  1.13F0  8B4E0A                   mov     cx, [bp+0A]
  1.13F3  8B4608                   mov     ax, [bp+08]
  1.13F6  33D2                     xor     dx, dx
  1.13F8  F7F1                     div     cx
  1.13FA  8B4606                   mov     ax, [bp+06]
  1.13FD  F7F1                     div     cx
  1.13FF  8BC2                     mov     ax, dx
  1.1401  33D2                     xor     dx, dx
  1.1403  4F                       dec     di
  1.1404  7943                     jns     1449
  1.1406  EB48                     jmp     1450

  1.1408 >8BD8                     mov     bx, ax
  1.140A  8B4E0A                   mov     cx, [bp+0A]
  1.140D  8B5608                   mov     dx, [bp+08]
  1.1410  8B4606                   mov     ax, [bp+06]

  1.1413 >D1EB                     shr     bx, 1
  1.1415  D1D9                     rcr     cx, 1
  1.1417  D1EA                     shr     dx, 1
  1.1419  D1D8                     rcr     ax, 1
  1.141B  0BDB                     or      bx, bx
  1.141D  75F4                     jne     1413
  1.141F  F7F1                     div     cx
  1.1421  8BC8                     mov     cx, ax
  1.1423  F7660C                   mul     word ptr [bp+0C]
  1.1426  91                       xchg    ax, cx
  1.1427  F7660A                   mul     word ptr [bp+0A]
  1.142A  03D1                     add     dx, cx
  1.142C  720C                     jb      143A
  1.142E  3B5608                   cmp     dx, [bp+08]
  1.1431  7707                     ja      143A
  1.1433  720B                     jb      1440
  1.1435  3B4606                   cmp     ax, [bp+06]
  1.1438  7606                     jbe     1440

  1.143A >2B460A                   sub     ax, [bp+0A]
  1.143D  1B560C                   sbb     dx, [bp+0C]

  1.1440 >2B4606                   sub     ax, [bp+06]
  1.1443  1B5608                   sbb     dx, [bp+08]
  1.1446  4F                       dec     di
  1.1447  7907                     jns     1450

  1.1449 >F7DA                     neg     dx
  1.144B  F7D8                     neg     ax
  1.144D  83DA00                   sbb     dx, 0000

  1.1450 >5F                       pop     di
  1.1451  5B                       pop     bx
  1.1452  5D                       pop     bp
  1.1453  CA0800                   retf    0008

  1.1456 >55                       push    bp
  1.1457  8BEC                     mov     bp, sp
  1.1459  5D                       pop     bp
  1.145A  C3                       ret    

  1.145B >B81400                   mov     ax, 0014
  1.145E  E9FCF4                   jmp     095D
  1.1461  004555                   add     byte ptr [di+55], al
  1.1464  8BEC                     mov     bp, sp
  1.1466  1E                       push    ds
  1.1467  83EC02                   sub     sp, 0002
  1.146A  837E0600                 cmp     word ptr [bp+06], 0000
  1.146E  7505                     jne     1475
  1.1470  C746060100               mov     word ptr [bp+06], 0001

  1.1475 >B8FFFF                   mov     ax, FFFF
  1.1478  50                       push    ax
  1.1479  9A0F150000               call    KERNEL.LOCKSEGMENT
  1.147E  B82000                   mov     ax, 0020
  1.1481  50                       push    ax
  1.1482  FF7606                   push    word ptr [bp+06]
  1.1485  9AC7160000               call    KERNEL.LOCALALLOC
  1.148A  8946FC                   mov     [bp-04], ax
  1.148D  B8FFFF                   mov     ax, FFFF
  1.1490  50                       push    ax
  1.1491  9A37150000               call    KERNEL.UNLOCKSEGMENT
  1.1496  837EFC00                 cmp     word ptr [bp-04], 0000
  1.149A  7517                     jne     14B3
  1.149C  A15609                   mov     ax, [0956]
  1.149F  0B065409                 or      ax, [0954]
  1.14A3  740E                     je      14B3
  1.14A5  FF7606                   push    word ptr [bp+06]
  1.14A8  FF1E5409                 call    far ptr [0954]
  1.14AC  83C402                   add     sp, 0002
  1.14AF  0BC0                     or      ax, ax
  1.14B1  75C2                     jne     1475

  1.14B3 >8B46FC                   mov     ax, [bp-04]
  1.14B6  8D66FE                   lea     sp, [bp-02]
  1.14B9  1F                       pop     ds
  1.14BA  5D                       pop     bp
  1.14BB  4D                       dec     bp
  1.14BC  CB                       retf   
  1.14BD  90                       nop    
  1.14BE  45                       inc     bp
  1.14BF  55                       push    bp
  1.14C0  8BEC                     mov     bp, sp
  1.14C2  1E                       push    ds
  1.14C3  837E0600                 cmp     word ptr [bp+06], 0000
  1.14C7  7408                     je      14D1
  1.14C9  FF7606                   push    word ptr [bp+06]
  1.14CC  9A35190000               call    KERNEL.LOCALFREE

  1.14D1 >8D66FE                   lea     sp, [bp-02]
  1.14D4  1F                       pop     ds
  1.14D5  5D                       pop     bp
  1.14D6  4D                       dec     bp
  1.14D7  CB                       retf   
  1.14D8  45                       inc     bp
  1.14D9  55                       push    bp
  1.14DA  8BEC                     mov     bp, sp
  1.14DC  1E                       push    ds
  1.14DD  83EC04                   sub     sp, 0004
  1.14E0  837E0600                 cmp     word ptr [bp+06], 0000
  1.14E4  750E                     jne     14F4
  1.14E6  FF7608                   push    word ptr [bp+08]
  1.14E9  9A62140015               call    1:1462
  1.14EE  83C402                   add     sp, 0002
  1.14F1  EB4B                     jmp     153E
  1.14F3  90                       nop    

  1.14F4 >837E0800                 cmp     word ptr [bp+08], 0000
  1.14F8  7510                     jne     150A
  1.14FA  FF7606                   push    word ptr [bp+06]
  1.14FD  9ABE14CE12               call    1:14BE
  1.1502  83C402                   add     sp, 0002
  1.1505  33C0                     xor     ax, ax
  1.1507  EB35                     jmp     153E
  1.1509  90                       nop    

  1.150A >B8FFFF                   mov     ax, FFFF
  1.150D  50                       push    ax
  1.150E  9AFFFF0000               call    KERNEL.LOCKSEGMENT
  1.1513  FF7606                   push    word ptr [bp+06]
  1.1516  837E0800                 cmp     word ptr [bp+08], 0000
  1.151A  7406                     je      1522
  1.151C  8B4608                   mov     ax, [bp+08]
  1.151F  EB04                     jmp     1525
  1.1521  90                       nop    

  1.1522 >B80100                   mov     ax, 0001

  1.1525 >50                       push    ax
  1.1526  B86200                   mov     ax, 0062
  1.1529  50                       push    ax
  1.152A  9AFFFF0000               call    KERNEL.LOCALREALLOC
  1.152F  8946FC                   mov     [bp-04], ax
  1.1532  B8FFFF                   mov     ax, FFFF
  1.1535  50                       push    ax
  1.1536  9AFFFF0000               call    KERNEL.UNLOCKSEGMENT
  1.153B  8B46FC                   mov     ax, [bp-04]

  1.153E >8D66FE                   lea     sp, [bp-02]
  1.1541  1F                       pop     ds
  1.1542  5D                       pop     bp
  1.1543  4D                       dec     bp
  1.1544  CB                       retf   
  1.1545  90                       nop    
  1.1546  45                       inc     bp
  1.1547  55                       push    bp
  1.1548  8BEC                     mov     bp, sp
  1.154A  1E                       push    ds
  1.154B  FF7606                   push    word ptr [bp+06]
  1.154E  9AFFFF0000               call    KERNEL.LOCALSIZE
  1.1553  8D66FE                   lea     sp, [bp-02]
  1.1556  1F                       pop     ds
  1.1557  5D                       pop     bp
  1.1558  4D                       dec     bp
  1.1559  CB                       retf   
  1.155A  55                       push    bp
  1.155B  8BEC                     mov     bp, sp
  1.155D  B80600                   mov     ax, 0006
  1.1560  9A12077C15               call    1:0712
  1.1565  57                       push    di
  1.1566  56                       push    si
  1.1567  8B4606                   mov     ax, [bp+06]
  1.156A  8B5608                   mov     dx, [bp+08]
  1.156D  8946FC                   mov     [bp-04], ax
  1.1570  8956FE                   mov     [bp-02], dx
  1.1573  FF76FE                   push    word ptr [bp-02]
  1.1576  FF76FC                   push    word ptr [bp-04]
  1.1579  9AB415BD15               call    1:15B4
  1.157E  83C404                   add     sp, 0004
  1.1581  8946FA                   mov     [bp-06], ax
  1.1584  C45EFC                   les     bx, [bp-04]
  1.1587  26833F0C                 cmp     word ptr es:[bx], 000C
  1.158B  0F851800                 jne     15A7
  1.158F  26837F0200               cmp     word ptr es:[bx+02], 0000
  1.1594  0F850F00                 jne     15A7
  1.1598  8B46FA                   mov     ax, [bp-06]
  1.159B  8BC8                     mov     cx, ax
  1.159D  D1E0                     shl     ax, 1
  1.159F  03C1                     add     ax, cx
  1.15A1  E90C00                   jmp     15B0
  1.15A4  E90900                   jmp     15B0

  1.15A7 >8B46FA                   mov     ax, [bp-06]
  1.15AA  C1E002                   shl     ax, 02
  1.15AD  E90000                   jmp     15B0

  1.15B0 >5E                       pop     si
  1.15B1  5F                       pop     di
  1.15B2  C9                       leave  
  1.15B3  CB                       retf   
  1.15B4  55                       push    bp
  1.15B5  8BEC                     mov     bp, sp
  1.15B7  B80A00                   mov     ax, 000A
  1.15BA  9A12076116               call    1:0712
  1.15BF  57                       push    di
  1.15C0  56                       push    si
  1.15C1  8B4606                   mov     ax, [bp+06]
  1.15C4  8B5608                   mov     dx, [bp+08]
  1.15C7  8946FA                   mov     [bp-06], ax
  1.15CA  8956FC                   mov     [bp-04], dx
  1.15CD  8B4606                   mov     ax, [bp+06]
  1.15D0  8B5608                   mov     dx, [bp+08]
  1.15D3  8946F6                   mov     [bp-0A], ax
  1.15D6  8956F8                   mov     [bp-08], dx
  1.15D9  C45EFA                   les     bx, [bp-06]
  1.15DC  26833F0C                 cmp     word ptr es:[bx], 000C
  1.15E0  0F850900                 jne     15ED
  1.15E4  26837F0200               cmp     word ptr es:[bx+02], 0000
  1.15E9  0F842600                 je      1613

  1.15ED >C45EFA                   les     bx, [bp-06]
  1.15F0  268B4722                 mov     ax, es:[bx+22]
  1.15F4  260B4720                 or      ax, es:[bx+20]
  1.15F8  0F840A00                 je      1606
  1.15FC  C45EFA                   les     bx, [bp-06]
  1.15FF  268B4720                 mov     ax, es:[bx+20]
  1.1603  E94E00                   jmp     1654

  1.1606 >C45EFA                   les     bx, [bp-06]
  1.1609  268B470E                 mov     ax, es:[bx+0E]
  1.160D  8946FE                   mov     [bp-02], ax
  1.1610  E90A00                   jmp     161D

  1.1613 >C45EF6                   les     bx, [bp-0A]
  1.1616  268B470A                 mov     ax, es:[bx+0A]
  1.161A  8946FE                   mov     [bp-02], ax

  1.161D >8B46FE                   mov     ax, [bp-02]
  1.1620  E91B00                   jmp     163E

  1.1623 >B80200                   mov     ax, 0002
  1.1626  E92B00                   jmp     1654

  1.1629 >B81000                   mov     ax, 0010
  1.162C  E92500                   jmp     1654

  1.162F >B80001                   mov     ax, 0100
  1.1632  E91F00                   jmp     1654

  1.1635 >B80000                   mov     ax, 0000
  1.1638  E91900                   jmp     1654
  1.163B  E91600                   jmp     1654

  1.163E >48                       dec     ax
  1.163F  0F84E0FF                 je      1623
  1.1643  2D0300                   sub     ax, 0003
  1.1646  0F84DFFF                 je      1629
  1.164A  2D0400                   sub     ax, 0004
  1.164D  0F84DEFF                 je      162F
  1.1651  E9E1FF                   jmp     1635

  1.1654 >5E                       pop     si
  1.1655  5F                       pop     di
  1.1656  C9                       leave  
  1.1657  CB                       retf   
  1.1658  55                       push    bp
  1.1659  8BEC                     mov     bp, sp
  1.165B  B80C00                   mov     ax, 000C
  1.165E  9A12079A17               call    1:0712
  1.1663  57                       push    di
  1.1664  56                       push    si
  1.1665  FF7606                   push    word ptr [bp+06]
  1.1668  6A26                     push    0026
  1.166A  9AB3160000               call    GDI.GETDEVICECAPS
  1.166F  F6C401                   test    ah, 01
  1.1672  0F850800                 jne     167E
  1.1676  C746F60001               mov     word ptr [bp-0A], 0100
  1.167B  E93C00                   jmp     16BA

  1.167E >8B460A                   mov     ax, [bp+0A]
  1.1681  0B4608                   or      ax, [bp+08]
  1.1684  0F842500                 je      16AD
  1.1688  C45E08                   les     bx, [bp+08]
  1.168B  26837F2000               cmp     word ptr es:[bx+20], 0000
  1.1690  0F840A00                 je      169E
  1.1694  C45E08                   les     bx, [bp+08]
  1.1697  268B4720                 mov     ax, es:[bx+20]
  1.169B  E90C00                   jmp     16AA

  1.169E >B80100                   mov     ax, 0001
  1.16A1  C45E08                   les     bx, [bp+08]
  1.16A4  268A4F0E                 mov     cl, byte ptr es:[bx+0E]
  1.16A8  D3E0                     shl     ax, cl

  1.16AA >E90A00                   jmp     16B7

  1.16AD >FF7606                   push    word ptr [bp+06]
  1.16B0  6A68                     push    0068
  1.16B2  9A10180000               call    GDI.GETDEVICECAPS

  1.16B7 >8946F6                   mov     [bp-0A], ax

  1.16BA >6A40                     push    0040
  1.16BC  8B46F6                   mov     ax, [bp-0A]
  1.16BF  050200                   add     ax, 0002
  1.16C2  C1E002                   shl     ax, 02
  1.16C5  50                       push    ax
  1.16C6  9AA3170000               call    KERNEL.LOCALALLOC
  1.16CB  8946F8                   mov     [bp-08], ax
  1.16CE  8B5EF8                   mov     bx, [bp-08]
  1.16D1  C7070003                 mov     word ptr [bx], 0300
  1.16D5  8B46F6                   mov     ax, [bp-0A]
  1.16D8  8B5EF8                   mov     bx, [bp-08]
  1.16DB  894702                   mov     [bx+02], ax
  1.16DE  8B460A                   mov     ax, [bp+0A]
  1.16E1  0B4608                   or      ax, [bp+08]
  1.16E4  0F847600                 je      175E
  1.16E8  C45E08                   les     bx, [bp+08]
  1.16EB  268B07                   mov     ax, es:[bx]
  1.16EE  034608                   add     ax, [bp+08]
  1.16F1  8B560A                   mov     dx, [bp+0A]
  1.16F4  8946FC                   mov     [bp-04], ax
  1.16F7  8956FE                   mov     [bp-02], dx
  1.16FA  C746F40000               mov     word ptr [bp-0C], 0000
  1.16FF  E90300                   jmp     1705

  1.1702 >FF46F4                   inc     word ptr [bp-0C]

  1.1705 >8B46F6                   mov     ax, [bp-0A]
  1.1708  3946F4                   cmp     [bp-0C], ax
  1.170B  0F8D4C00                 jnl     175B
  1.170F  C45EFC                   les     bx, [bp-04]
  1.1712  268A4702                 mov     al, byte ptr es:[bx+02]
  1.1716  8B76F4                   mov     si, [bp-0C]
  1.1719  C1E602                   shl     si, 02
  1.171C  8B5EF8                   mov     bx, [bp-08]
  1.171F  884004                   mov     byte ptr [bx+si+04], al
  1.1722  C45EFC                   les     bx, [bp-04]
  1.1725  268A4701                 mov     al, byte ptr es:[bx+01]
  1.1729  8B76F4                   mov     si, [bp-0C]
  1.172C  C1E602                   shl     si, 02
  1.172F  8B5EF8                   mov     bx, [bp-08]
  1.1732  884005                   mov     byte ptr [bx+si+05], al
  1.1735  C45EFC                   les     bx, [bp-04]
  1.1738  268A07                   mov     al, byte ptr es:[bx]
  1.173B  8B76F4                   mov     si, [bp-0C]
  1.173E  C1E602                   shl     si, 02
  1.1741  8B5EF8                   mov     bx, [bp-08]
  1.1744  884006                   mov     byte ptr [bx+si+06], al
  1.1747  8B76F4                   mov     si, [bp-0C]
  1.174A  C1E602                   shl     si, 02
  1.174D  8B5EF8                   mov     bx, [bp-08]
  1.1750  C6400700                 mov     byte ptr [bx+si+07], 00
  1.1754  8346FC04                 add     word ptr [bp-04], 0004
  1.1758  E9A7FF                   jmp     1702

  1.175B >E91500                   jmp     1773

  1.175E >FF7606                   push    word ptr [bp+06]
  1.1761  6A00                     push    0000
  1.1763  FF76F6                   push    word ptr [bp-0A]
  1.1766  8B46F8                   mov     ax, [bp-08]
  1.1769  050400                   add     ax, 0004
  1.176C  1E                       push    ds
  1.176D  50                       push    ax
  1.176E  9AFFFF0000               call    GDI.GETSYSTEMPALETTEENTRIES

  1.1773 >1E                       push    ds
  1.1774  FF76F8                   push    word ptr [bp-08]
  1.1777  9AE4170000               call    GDI.CREATEPALETTE
  1.177C  8946FA                   mov     [bp-06], ax
  1.177F  FF76F8                   push    word ptr [bp-08]
  1.1782  9AEF170000               call    KERNEL.LOCALFREE
  1.1787  8B46FA                   mov     ax, [bp-06]
  1.178A  E90000                   jmp     178D

  1.178D >5E                       pop     si
  1.178E  5F                       pop     di
  1.178F  C9                       leave  
  1.1790  CB                       retf   
  1.1791  55                       push    bp
  1.1792  8BEC                     mov     bp, sp
  1.1794  B80800                   mov     ax, 0008
  1.1797  9A12070618               call    1:0712
  1.179C  57                       push    di
  1.179D  56                       push    si
  1.179E  6A40                     push    0040
  1.17A0  6A0C                     push    000C
  1.17A2  9A42180000               call    KERNEL.LOCALALLOC
  1.17A7  8946F8                   mov     [bp-08], ax
  1.17AA  8B5EF8                   mov     bx, [bp-08]
  1.17AD  C7070003                 mov     word ptr [bx], 0300
  1.17B1  8B5EF8                   mov     bx, [bp-08]
  1.17B4  C747020100               mov     word ptr [bx+02], 0001
  1.17B9  8A4608                   mov     al, byte ptr [bp+08]
  1.17BC  8B5EF8                   mov     bx, [bp-08]
  1.17BF  884704                   mov     byte ptr [bx+04], al
  1.17C2  8A4609                   mov     al, byte ptr [bp+09]
  1.17C5  8B5EF8                   mov     bx, [bp-08]
  1.17C8  884705                   mov     byte ptr [bx+05], al
  1.17CB  8A460A                   mov     al, byte ptr [bp+0A]
  1.17CE  8B5EF8                   mov     bx, [bp-08]
  1.17D1  884706                   mov     byte ptr [bx+06], al
  1.17D4  8B5EF8                   mov     bx, [bp-08]
  1.17D7  C6470700                 mov     byte ptr [bx+07], 00
  1.17DB  8346FC04                 add     word ptr [bp-04], 0004
  1.17DF  1E                       push    ds
  1.17E0  FF76F8                   push    word ptr [bp-08]
  1.17E3  9AFFFF0000               call    GDI.CREATEPALETTE
  1.17E8  8946FA                   mov     [bp-06], ax
  1.17EB  FF76F8                   push    word ptr [bp-08]
  1.17EE  9AFFFF0000               call    KERNEL.LOCALFREE
  1.17F3  8B46FA                   mov     ax, [bp-06]
  1.17F6  E90000                   jmp     17F9

  1.17F9 >5E                       pop     si
  1.17FA  5F                       pop     di
  1.17FB  C9                       leave  
  1.17FC  CB                       retf   
  1.17FD  55                       push    bp
  1.17FE  8BEC                     mov     bp, sp
  1.1800  B81200                   mov     ax, 0012
  1.1803  9A1207FFFF               call    1:0712
  1.1808  57                       push    di
  1.1809  56                       push    si
  1.180A  FF7606                   push    word ptr [bp+06]
  1.180D  6A26                     push    0026
  1.180F  9A24180000               call    GDI.GETDEVICECAPS
  1.1814  F6C401                   test    ah, 01
  1.1817  0F850300                 jne     181E
  1.181B  E92301                   jmp     1941

  1.181E >FF7606                   push    word ptr [bp+06]
  1.1821  6A68                     push    0068
  1.1823  9AFFFF0000               call    GDI.GETDEVICECAPS
  1.1828  8946FA                   mov     [bp-06], ax
  1.182B  837EFA00                 cmp     word ptr [bp-06], 0000
  1.182F  0F850500                 jne     1838
  1.1833  C746FA0001               mov     word ptr [bp-06], 0100

  1.1838 >6A40                     push    0040
  1.183A  8B460C                   mov     ax, [bp+0C]
  1.183D  C1E002                   shl     ax, 02
  1.1840  50                       push    ax
  1.1841  9A53180000               call    KERNEL.LOCALALLOC
  1.1846  8946FE                   mov     [bp-02], ax
  1.1849  6A40                     push    0040
  1.184B  8B46FA                   mov     ax, [bp-06]
  1.184E  C1E002                   shl     ax, 02
  1.1851  50                       push    ax
  1.1852  9AFFFF0000               call    KERNEL.LOCALALLOC
  1.1857  8946FC                   mov     [bp-04], ax
  1.185A  FF760A                   push    word ptr [bp+0A]
  1.185D  6A00                     push    0000
  1.185F  FF760C                   push    word ptr [bp+0C]
  1.1862  1E                       push    ds
  1.1863  FF76FE                   push    word ptr [bp-02]
  1.1866  9A78180000               call    GDI.GETPALETTEENTRIES
  1.186B  FF7608                   push    word ptr [bp+08]
  1.186E  6A00                     push    0000
  1.1870  FF76FA                   push    word ptr [bp-06]
  1.1873  1E                       push    ds
  1.1874  FF76FC                   push    word ptr [bp-04]
  1.1877  9AFFFF0000               call    GDI.GETPALETTEENTRIES
  1.187C  C746F80000               mov     word ptr [bp-08], 0000
  1.1881  E90300                   jmp     1887

  1.1884 >FF46F8                   inc     word ptr [bp-08]

  1.1887 >8B460C                   mov     ax, [bp+0C]
  1.188A  3946F8                   cmp     [bp-08], ax
  1.188D  0F8D8F00                 jnl     1920
  1.1891  8B5EF8                   mov     bx, [bp-08]
  1.1894  C1E302                   shl     bx, 02
  1.1897  8B76FE                   mov     si, [bp-02]
  1.189A  8B00                     mov     ax, [bx+si]
  1.189C  8B5002                   mov     dx, [bx+si+02]
  1.189F  8946F4                   mov     [bp-0C], ax
  1.18A2  8956F6                   mov     [bp-0A], dx
  1.18A5  FF7608                   push    word ptr [bp+08]
  1.18A8  FF76F6                   push    word ptr [bp-0A]
  1.18AB  FF76F4                   push    word ptr [bp-0C]
  1.18AE  9AFFFF0000               call    GDI.GETNEARESTPALETTEINDEX
  1.18B3  8946EE                   mov     [bp-12], ax
  1.18B6  8B5EEE                   mov     bx, [bp-12]
  1.18B9  C1E302                   shl     bx, 02
  1.18BC  8B76FC                   mov     si, [bp-04]
  1.18BF  8B00                     mov     ax, [bx+si]
  1.18C1  8B5002                   mov     dx, [bx+si+02]
  1.18C4  8946F0                   mov     [bp-10], ax
  1.18C7  8956F2                   mov     [bp-0E], dx
  1.18CA  8B46F4                   mov     ax, [bp-0C]
  1.18CD  8B56F6                   mov     dx, [bp-0A]
  1.18D0  3946F0                   cmp     [bp-10], ax
  1.18D3  0F850700                 jne     18DE
  1.18D7  3956F2                   cmp     [bp-0E], dx
  1.18DA  0F843F00                 je      191D

  1.18DE >837EEE0A                 cmp     word ptr [bp-12], 000A
  1.18E2  0F8C0A00                 jl      18F0
  1.18E6  A11000                   mov     ax, [0010]
  1.18E9  3946EE                   cmp     [bp-12], ax
  1.18EC  0F8E1900                 jle     1909

  1.18F0 >833E10000A               cmp     word ptr [0010], 000A
  1.18F5  0F8D0600                 jnl     18FF
  1.18F9  E92400                   jmp     1920
  1.18FC  E90A00                   jmp     1909

  1.18FF >A11000                   mov     ax, [0010]
  1.1902  FF0E1000                 dec     word ptr [0010]
  1.1906  8946EE                   mov     [bp-12], ax

  1.1909 >8B46F4                   mov     ax, [bp-0C]
  1.190C  8B56F6                   mov     dx, [bp-0A]
  1.190F  8B5EEE                   mov     bx, [bp-12]
  1.1912  C1E302                   shl     bx, 02
  1.1915  8B76FC                   mov     si, [bp-04]
  1.1918  8900                     mov     [bx+si], ax
  1.191A  895002                   mov     [bx+si+02], dx

  1.191D >E964FF                   jmp     1884

  1.1920 >FF7608                   push    word ptr [bp+08]
  1.1923  6A00                     push    0000
  1.1925  FF76FA                   push    word ptr [bp-06]
  1.1928  1E                       push    ds
  1.1929  FF76FC                   push    word ptr [bp-04]
  1.192C  9AFFFF0000               call    GDI.SETPALETTEENTRIES
  1.1931  FF76FC                   push    word ptr [bp-04]
  1.1934  9A3D190000               call    KERNEL.LOCALFREE
  1.1939  FF76FE                   push    word ptr [bp-02]
  1.193C  9A83170000               call    KERNEL.LOCALFREE

  1.1941 >5E                       pop     si
  1.1942  5F                       pop     di
  1.1943  C9                       leave  
  1.1944  CB                       retf   
  1.1945  55                       push    bp
  1.1946  8BEC                     mov     bp, sp
  1.1948  B80600                   mov     ax, 0006
  1.194B  9A12075B19               call    1:0712
  1.1950  57                       push    di
  1.1951  56                       push    si
  1.1952  FF7608                   push    word ptr [bp+08]
  1.1955  FF7606                   push    word ptr [bp+06]
  1.1958  9AEC19F519               call    1:19EC
  1.195D  83C404                   add     sp, 0004
  1.1960  8946FC                   mov     [bp-04], ax
  1.1963  8956FE                   mov     [bp-02], dx
  1.1966  C45EFC                   les     bx, [bp-04]
  1.1969  FF46FC                   inc     word ptr [bp-04]
  1.196C  268A07                   mov     al, byte ptr es:[bx]
  1.196F  8846FA                   mov     byte ptr [bp-06], al
  1.1972  C45E06                   les     bx, [bp+06]
  1.1975  268B4710                 mov     ax, es:[bx+10]
  1.1979  268B5712                 mov     dx, es:[bx+12]
  1.197D  E94700                   jmp     19C7

  1.1980 >C45E06                   les     bx, [bp+06]
  1.1983  26837F0E04               cmp     word ptr es:[bx+0E], 0004
  1.1988  0F850400                 jne     1990
  1.198C  C06EFA04                 shr     byte ptr [bp-06], 04

  1.1990 >E94D00                   jmp     19E0

  1.1993 >807EFA00                 cmp     byte ptr [bp-06], 00
  1.1997  0F850300                 jne     199E
  1.199B  FF46FC                   inc     word ptr [bp-04]

  1.199E >C45EFC                   les     bx, [bp-04]
  1.19A1  268A07                   mov     al, byte ptr es:[bx]
  1.19A4  8846FA                   mov     byte ptr [bp-06], al
  1.19A7  E93600                   jmp     19E0

  1.19AA >807EFA00                 cmp     byte ptr [bp-06], 00
  1.19AE  0F850300                 jne     19B5
  1.19B2  FF46FC                   inc     word ptr [bp-04]

  1.19B5 >C45EFC                   les     bx, [bp-04]
  1.19B8  268A07                   mov     al, byte ptr es:[bx]
  1.19BB  C0E804                   shr     al, 04
  1.19BE  8846FA                   mov     byte ptr [bp-06], al
  1.19C1  E91C00                   jmp     19E0
  1.19C4  E91900                   jmp     19E0

  1.19C7 >0BD2                     or      dx, dx
  1.19C9  0F851300                 jne     19E0
  1.19CD  0BC0                     or      ax, ax
  1.19CF  0F84ADFF                 je      1980
  1.19D3  48                       dec     ax
  1.19D4  0F84BBFF                 je      1993
  1.19D8  48                       dec     ax
  1.19D9  0F84CDFF                 je      19AA
  1.19DD  E90000                   jmp     19E0

  1.19E0 >8A46FA                   mov     al, byte ptr [bp-06]
  1.19E3  2AE4                     sub     ah, ah
  1.19E5  E90000                   jmp     19E8

  1.19E8 >5E                       pop     si
  1.19E9  5F                       pop     di
  1.19EA  C9                       leave  
  1.19EB  CB                       retf   
  1.19EC  55                       push    bp
  1.19ED  8BEC                     mov     bp, sp
  1.19EF  B80000                   mov     ax, 0000
  1.19F2  9A12071F1A               call    1:0712
  1.19F7  57                       push    di
  1.19F8  56                       push    si
  1.19F9  C45E06                   les     bx, [bp+06]
  1.19FC  268B4720                 mov     ax, es:[bx+20]
  1.1A00  C1E002                   shl     ax, 02
  1.1A03  C45E06                   les     bx, [bp+06]
  1.1A06  260307                   add     ax, es:[bx]
  1.1A09  034606                   add     ax, [bp+06]
  1.1A0C  8B5608                   mov     dx, [bp+08]
  1.1A0F  E90000                   jmp     1A12

  1.1A12 >5E                       pop     si
  1.1A13  5F                       pop     di
  1.1A14  C9                       leave  
  1.1A15  CB                       retf   
  1.1A16  55                       push    bp
  1.1A17  8BEC                     mov     bp, sp
  1.1A19  B81800                   mov     ax, 0018
  1.1A1C  9A1207441A               call    1:0712
  1.1A21  57                       push    di
  1.1A22  56                       push    si
  1.1A23  8B4606                   mov     ax, [bp+06]
  1.1A26  8B5608                   mov     dx, [bp+08]
  1.1A29  8946FC                   mov     [bp-04], ax
  1.1A2C  8956FE                   mov     [bp-02], dx
  1.1A2F  8B460A                   mov     ax, [bp+0A]
  1.1A32  8B560C                   mov     dx, [bp+0C]
  1.1A35  8946F8                   mov     [bp-08], ax
  1.1A38  8956FA                   mov     [bp-06], dx
  1.1A3B  FF760C                   push    word ptr [bp+0C]
  1.1A3E  FF760A                   push    word ptr [bp+0A]
  1.1A41  9AEC196315               call    1:19EC
  1.1A46  83C404                   add     sp, 0004
  1.1A49  8946F4                   mov     [bp-0C], ax
  1.1A4C  8956F6                   mov     [bp-0A], dx

  1.1A4F >8B46F8                   mov     ax, [bp-08]
  1.1A52  3946F4                   cmp     [bp-0C], ax
  1.1A55  0F861500                 jbe     1A6E
  1.1A59  C45EF8                   les     bx, [bp-08]
  1.1A5C  FF46F8                   inc     word ptr [bp-08]
  1.1A5F  268A07                   mov     al, byte ptr es:[bx]
  1.1A62  C45EFC                   les     bx, [bp-04]
  1.1A65  FF46FC                   inc     word ptr [bp-04]
  1.1A68  268807                   mov     byte ptr es:[bx], al
  1.1A6B  E9E1FF                   jmp     1A4F

  1.1A6E >C45E0A                   les     bx, [bp+0A]
  1.1A71  26837F0E04               cmp     word ptr es:[bx+0E], 0004
  1.1A76  0F851700                 jne     1A91
  1.1A7A  C45E0A                   les     bx, [bp+0A]
  1.1A7D  268B4704                 mov     ax, es:[bx+04]
  1.1A81  B90800                   mov     cx, 0008
  1.1A84  99                       cwd    
  1.1A85  F7F9                     idiv    cx
  1.1A87  8BC2                     mov     ax, dx
  1.1A89  F7D8                     neg     ax
  1.1A8B  250700                   and     ax, 0007
  1.1A8E  E91400                   jmp     1AA5

  1.1A91 >C45E0A                   les     bx, [bp+0A]
  1.1A94  268B4704                 mov     ax, es:[bx+04]
  1.1A98  B90400                   mov     cx, 0004
  1.1A9B  99                       cwd    
  1.1A9C  F7F9                     idiv    cx
  1.1A9E  8BC2                     mov     ax, dx
  1.1AA0  F7D8                     neg     ax
  1.1AA2  250300                   and     ax, 0003

  1.1AA5 >8946F2                   mov     [bp-0E], ax
  1.1AA8  C45E0A                   les     bx, [bp+0A]
  1.1AAB  26837F0E04               cmp     word ptr es:[bx+0E], 0004
  1.1AB0  0F850F00                 jne     1AC3
  1.1AB4  C45E0A                   les     bx, [bp+0A]
  1.1AB7  268B4704                 mov     ax, es:[bx+04]
  1.1ABB  0346F2                   add     ax, [bp-0E]
  1.1ABE  D1F8                     sar     ax, 1
  1.1AC0  E90A00                   jmp     1ACD

  1.1AC3 >C45E0A                   les     bx, [bp+0A]
  1.1AC6  268B4704                 mov     ax, es:[bx+04]
  1.1ACA  0346F2                   add     ax, [bp-0E]

  1.1ACD >8946F0                   mov     [bp-10], ax
  1.1AD0  F6460E02                 test    byte ptr [bp+0E], 02
  1.1AD4  0F840E00                 je      1AE6
  1.1AD8  C45E0A                   les     bx, [bp+0A]
  1.1ADB  268B4708                 mov     ax, es:[bx+08]
  1.1ADF  48                       dec     ax
  1.1AE0  F76EF0                   imul    word ptr [bp-10]
  1.1AE3  0146F4                   add     [bp-0C], ax

  1.1AE6 >F6460E01                 test    byte ptr [bp+0E], 01
  1.1AEA  0F843300                 je      1B21
  1.1AEE  C45E0A                   les     bx, [bp+0A]
  1.1AF1  26837F0E04               cmp     word ptr es:[bx+0E], 0004
  1.1AF6  0F851200                 jne     1B0C
  1.1AFA  C45E0A                   les     bx, [bp+0A]
  1.1AFD  268B4704                 mov     ax, es:[bx+04]
  1.1B01  268B5706                 mov     dx, es:[bx+06]
  1.1B05  D1FA                     sar     dx, 1
  1.1B07  D1D8                     rcr     ax, 1
  1.1B09  E90B00                   jmp     1B17

  1.1B0C >C45E0A                   les     bx, [bp+0A]
  1.1B0F  268B4704                 mov     ax, es:[bx+04]
  1.1B13  268B5706                 mov     dx, es:[bx+06]

  1.1B17 >8946E8                   mov     [bp-18], ax
  1.1B1A  8956EA                   mov     [bp-16], dx
  1.1B1D  48                       dec     ax
  1.1B1E  0146F4                   add     [bp-0C], ax

  1.1B21 >C746EE0000               mov     word ptr [bp-12], 0000
  1.1B26  E90300                   jmp     1B2C

  1.1B29 >FF46EE                   inc     word ptr [bp-12]

  1.1B2C >8B46EE                   mov     ax, [bp-12]
  1.1B2F  99                       cwd    
  1.1B30  C45E0A                   les     bx, [bp+0A]
  1.1B33  2639570A                 cmp     es:[bx+0A], dx
  1.1B37  0F8C1101                 jl      1C4C
  1.1B3B  0F8F0800                 jg      1B47
  1.1B3F  26394708                 cmp     es:[bx+08], ax
  1.1B43  0F860501                 jbe     1C4C

  1.1B47 >8B46F4                   mov     ax, [bp-0C]
  1.1B4A  8B56F6                   mov     dx, [bp-0A]
  1.1B4D  8946F8                   mov     [bp-08], ax
  1.1B50  8956FA                   mov     [bp-06], dx
  1.1B53  C45E0A                   les     bx, [bp+0A]
  1.1B56  26837F0E04               cmp     word ptr es:[bx+0E], 0004
  1.1B5B  0F857200                 jne     1BD1
  1.1B5F  F6460E01                 test    byte ptr [bp+0E], 01
  1.1B63  0F843D00                 je      1BA4
  1.1B67  C746EC0000               mov     word ptr [bp-14], 0000
  1.1B6C  E90300                   jmp     1B72

  1.1B6F >FF46EC                   inc     word ptr [bp-14]

  1.1B72 >8B46F0                   mov     ax, [bp-10]
  1.1B75  3946EC                   cmp     [bp-14], ax
  1.1B78  0F8D2500                 jnl     1BA1
  1.1B7C  C45EF8                   les     bx, [bp-08]
  1.1B7F  268A07                   mov     al, byte ptr es:[bx]
  1.1B82  C0F804                   sar     al, 04
  1.1B85  240F                     and     al, 0F
  1.1B87  C45EF8                   les     bx, [bp-08]
  1.1B8A  268A0F                   mov     cl, byte ptr es:[bx]
  1.1B8D  C0E104                   shl     cl, 04
  1.1B90  0AC1                     or      al, cl
  1.1B92  C45EFC                   les     bx, [bp-04]
  1.1B95  268807                   mov     byte ptr es:[bx], al
  1.1B98  FF4EF8                   dec     word ptr [bp-08]
  1.1B9B  FF46FC                   inc     word ptr [bp-04]
  1.1B9E  E9CEFF                   jmp     1B6F

  1.1BA1 >E92A00                   jmp     1BCE

  1.1BA4 >C746EC0000               mov     word ptr [bp-14], 0000
  1.1BA9  E90300                   jmp     1BAF

  1.1BAC >FF46EC                   inc     word ptr [bp-14]

  1.1BAF >8B46F0                   mov     ax, [bp-10]
  1.1BB2  3946EC                   cmp     [bp-14], ax
  1.1BB5  0F8D1500                 jnl     1BCE
  1.1BB9  C45EF8                   les     bx, [bp-08]
  1.1BBC  FF46F8                   inc     word ptr [bp-08]
  1.1BBF  268A07                   mov     al, byte ptr es:[bx]
  1.1BC2  C45EFC                   les     bx, [bp-04]
  1.1BC5  FF46FC                   inc     word ptr [bp-04]
  1.1BC8  268807                   mov     byte ptr es:[bx], al
  1.1BCB  E9DEFF                   jmp     1BAC

  1.1BCE >E95F00                   jmp     1C30

  1.1BD1 >F6460E01                 test    byte ptr [bp+0E], 01
  1.1BD5  0F842D00                 je      1C06
  1.1BD9  C746EC0000               mov     word ptr [bp-14], 0000
  1.1BDE  E90300                   jmp     1BE4

  1.1BE1 >FF46EC                   inc     word ptr [bp-14]

  1.1BE4 >8B46F0                   mov     ax, [bp-10]
  1.1BE7  3946EC                   cmp     [bp-14], ax
  1.1BEA  0F8D1500                 jnl     1C03
  1.1BEE  C45EF8                   les     bx, [bp-08]
  1.1BF1  FF4EF8                   dec     word ptr [bp-08]
  1.1BF4  268A07                   mov     al, byte ptr es:[bx]
  1.1BF7  C45EFC                   les     bx, [bp-04]
  1.1BFA  FF46FC                   inc     word ptr [bp-04]
  1.1BFD  268807                   mov     byte ptr es:[bx], al
  1.1C00  E9DEFF                   jmp     1BE1

  1.1C03 >E92A00                   jmp     1C30

  1.1C06 >C746EC0000               mov     word ptr [bp-14], 0000
  1.1C0B  E90300                   jmp     1C11

  1.1C0E >FF46EC                   inc     word ptr [bp-14]

  1.1C11 >8B46F0                   mov     ax, [bp-10]
  1.1C14  3946EC                   cmp     [bp-14], ax
  1.1C17  0F8D1500                 jnl     1C30
  1.1C1B  C45EF8                   les     bx, [bp-08]
  1.1C1E  FF46F8                   inc     word ptr [bp-08]
  1.1C21  268A07                   mov     al, byte ptr es:[bx]
  1.1C24  C45EFC                   les     bx, [bp-04]
  1.1C27  FF46FC                   inc     word ptr [bp-04]
  1.1C2A  268807                   mov     byte ptr es:[bx], al
  1.1C2D  E9DEFF                   jmp     1C0E

  1.1C30 >F6460E02                 test    byte ptr [bp+0E], 02
  1.1C34  0F840800                 je      1C40
  1.1C38  8B46F0                   mov     ax, [bp-10]
  1.1C3B  F7D8                     neg     ax
  1.1C3D  E90300                   jmp     1C43

  1.1C40 >8B46F0                   mov     ax, [bp-10]

  1.1C43 >8946E8                   mov     [bp-18], ax
  1.1C46  0146F4                   add     [bp-0C], ax
  1.1C49  E9DDFE                   jmp     1B29

  1.1C4C >5E                       pop     si
  1.1C4D  5F                       pop     di
  1.1C4E  C9                       leave  
  1.1C4F  CB                       retf   

                                   ;
  1.1C50                           ;  WinMain
                                   ;

  1.1C50 >55                       push    bp
  1.1C51  8BEC                     mov     bp, sp
  1.1C53  B82E00                   mov     ax, 002E
  1.1C56  9A1207721C               call    1:0712
  1.1C5B  57                       push    di
  1.1C5C  56                       push    si
  1.1C5D  837E0C00                 cmp     word ptr [bp+0C], 0000
  1.1C61  0F856900                 jne     1CCE
  1.1C65  C746D20800               mov     word ptr [bp-2E], 0008
  1.1C6A  C746D4F31D               mov     word ptr [bp-2C], 1DF3
  1.1C6F  C746D6E31C               mov     word ptr [bp-2A], selector 1:0000
  1.1C74  C746D80000               mov     word ptr [bp-28], 0000
  1.1C79  C746DA0800               mov     word ptr [bp-26], 0008
  1.1C7E  8B460E                   mov     ax, [bp+0E]
  1.1C81  8946DC                   mov     [bp-24], ax
  1.1C84  FF760E                   push    word ptr [bp+0E]
  1.1C87  6A00                     push    0000
  1.1C89  6A64                     push    0064
  1.1C8B  9AFFFF0000               call    USER.LOADICON
  1.1C90  8946DE                   mov     [bp-22], ax
  1.1C93  FF760E                   push    word ptr [bp+0E]
  1.1C96  6A00                     push    0000
  1.1C98  6A6A                     push    006A
  1.1C9A  9A021D0000               call    USER.LOADCURSOR
  1.1C9F  8946E0                   mov     [bp-20], ax
  1.1CA2  C746E20000               mov     word ptr [bp-1E], 0000
  1.1CA7  2BC0                     sub     ax, ax
  1.1CA9  8946E6                   mov     [bp-1A], ax
  1.1CAC  8946E4                   mov     [bp-1C], ax
  1.1CAF  C746E81200               mov     word ptr [bp-18], 0012
  1.1CB4  8C5EEA                   mov     [bp-16], ds
  1.1CB7  8D46D2                   lea     ax, [bp-2E]
  1.1CBA  16                       push    ss
  1.1CBB  50                       push    ax
  1.1CBC  9A241D0000               call    USER.REGISTERCLASS
  1.1CC1  3D0000                   cmp     ax, 0000
  1.1CC4  0F850600                 jne     1CCE
  1.1CC8  B80000                   mov     ax, 0000
  1.1CCB  E90801                   jmp     1DD6

  1.1CCE >837E0C00                 cmp     word ptr [bp+0C], 0000
  1.1CD2  0F855F00                 jne     1D35
  1.1CD6  C746D20800               mov     word ptr [bp-2E], 0008
  1.1CDB  C746D49926               mov     word ptr [bp-2C], 2699
  1.1CE0  C746D6E51D               mov     word ptr [bp-2A], selector 1:0000
  1.1CE5  C746D80000               mov     word ptr [bp-28], 0000
  1.1CEA  C746DA0000               mov     word ptr [bp-26], 0000
  1.1CEF  8B460E                   mov     ax, [bp+0E]
  1.1CF2  8946DC                   mov     [bp-24], ax
  1.1CF5  C746DE0000               mov     word ptr [bp-22], 0000
  1.1CFA  6A00                     push    0000
  1.1CFC  6A00                     push    0000
  1.1CFE  68007F                   push    7F00
  1.1D01  9AFFFF0000               call    USER.LOADCURSOR
  1.1D06  8946E0                   mov     [bp-20], ax
  1.1D09  C746E20000               mov     word ptr [bp-1E], 0000
  1.1D0E  2BC0                     sub     ax, ax
  1.1D10  8946E6                   mov     [bp-1A], ax
  1.1D13  8946E4                   mov     [bp-1C], ax
  1.1D16  C746E82000               mov     word ptr [bp-18], 0020
  1.1D1B  8C5EEA                   mov     [bp-16], ds
  1.1D1E  8D46D2                   lea     ax, [bp-2E]
  1.1D21  16                       push    ss
  1.1D22  50                       push    ax
  1.1D23  9AFFFF0000               call    USER.REGISTERCLASS
  1.1D28  3D0000                   cmp     ax, 0000
  1.1D2B  0F850600                 jne     1D35
  1.1D2F  B80000                   mov     ax, 0000
  1.1D32  E9A100                   jmp     1DD6

  1.1D35 >8B460E                   mov     ax, [bp+0E]
  1.1D38  A3782D                   mov     [2D78], ax
  1.1D3B  1E                       push    ds
  1.1D3C  683D00                   push    003D
  1.1D3F  1E                       push    ds
  1.1D40  683100                   push    0031
  1.1D43  9AFFFF0000               call    USER.FINDWINDOW
  1.1D48  3D0000                   cmp     ax, 0000
  1.1D4B  0F840600                 je      1D55
  1.1D4F  C7065C2D0100             mov     word ptr [2D5C], 0001

  1.1D55 >6A00                     push    0000
  1.1D57  6A00                     push    0000
  1.1D59  1E                       push    ds
  1.1D5A  685700                   push    0057
  1.1D5D  1E                       push    ds
  1.1D5E  684B00                   push    004B
  1.1D61  680080                   push    8000
  1.1D64  6A00                     push    0000
  1.1D66  6A00                     push    0000
  1.1D68  6A00                     push    0000
  1.1D6A  6A00                     push    0000
  1.1D6C  6A00                     push    0000
  1.1D6E  6A00                     push    0000
  1.1D70  6A00                     push    0000
  1.1D72  FF760E                   push    word ptr [bp+0E]
  1.1D75  6A00                     push    0000
  1.1D77  6A00                     push    0000
  1.1D79  9AFFFF0000               call    USER.CREATEWINDOWEX
  1.1D7E  8946FE                   mov     [bp-02], ax
  1.1D81  837EFE00                 cmp     word ptr [bp-02], 0000
  1.1D85  0F850600                 jne     1D8F
  1.1D89  B80000                   mov     ax, 0000
  1.1D8C  E94700                   jmp     1DD6

  1.1D8F >FF76FE                   push    word ptr [bp-02]
  1.1D92  FF7606                   push    word ptr [bp+06]
  1.1D95  9AFFFF0000               call    USER.SHOWWINDOW
  1.1D9A  FF76FE                   push    word ptr [bp-02]
  1.1D9D  9AFFFF0000               call    USER.UPDATEWINDOW

  1.1DA2 >8D46EC                   lea     ax, [bp-14]
  1.1DA5  16                       push    ss
  1.1DA6  50                       push    ax
  1.1DA7  6A00                     push    0000
  1.1DA9  6A00                     push    0000
  1.1DAB  6A00                     push    0000
  1.1DAD  9AFFFF0000               call    USER.GETMESSAGE
  1.1DB2  3D0000                   cmp     ax, 0000
  1.1DB5  0F841700                 je      1DD0
  1.1DB9  8D46EC                   lea     ax, [bp-14]
  1.1DBC  16                       push    ss
  1.1DBD  50                       push    ax
  1.1DBE  9AFFFF0000               call    USER.TRANSLATEMESSAGE
  1.1DC3  8D46EC                   lea     ax, [bp-14]
  1.1DC6  16                       push    ss
  1.1DC7  50                       push    ax
  1.1DC8  9AFFFF0000               call    USER.DISPATCHMESSAGE
  1.1DCD  E9D2FF                   jmp     1DA2

  1.1DD0 >8B46F0                   mov     ax, [bp-10]
  1.1DD3  E90000                   jmp     1DD6

  1.1DD6 >5E                       pop     si
  1.1DD7  5F                       pop     di
  1.1DD8  C9                       leave  
  1.1DD9  CA0A00                   retf    000A
  1.1DDC  55                       push    bp
  1.1DDD  8BEC                     mov     bp, sp
  1.1DDF  B80000                   mov     ax, 0000
  1.1DE2  9A1207FC1D               call    1:0712
  1.1DE7  57                       push    di
  1.1DE8  56                       push    si
  1.1DE9  C706B80A0100             mov     word ptr [0AB8], 0001
  1.1DEF  5E                       pop     si
  1.1DF0  5F                       pop     di
  1.1DF1  C9                       leave  
  1.1DF2  CB                       retf   
  1.1DF3  55                       push    bp
  1.1DF4  8BEC                     mov     bp, sp
  1.1DF6  B82801                   mov     ax, 0128
  1.1DF9  9A12070C1E               call    1:0712
  1.1DFE  57                       push    di
  1.1DFF  56                       push    si
  1.1E00  8B460C                   mov     ax, [bp+0C]
  1.1E03  E9E807                   jmp     25EE

  1.1E06 >FF760E                   push    word ptr [bp+0E]
  1.1E09  9A203C461E               call    1:3C20
  1.1E0E  83C402                   add     sp, 0002
  1.1E11  3D0000                   cmp     ax, 0000
  1.1E14  0F851B00                 jne     1E33
  1.1E18  FF760E                   push    word ptr [bp+0E]
  1.1E1B  1E                       push    ds
  1.1E1C  687100                   push    0071
  1.1E1F  1E                       push    ds
  1.1E20  686500                   push    0065
  1.1E23  6A10                     push    0010
  1.1E25  9A111F0000               call    USER.MESSAGEBOX
  1.1E2A  B8FFFF                   mov     ax, FFFF
  1.1E2D  BAFFFF                   mov     dx, FFFF
  1.1E30  E96008                   jmp     2693

  1.1E33 >FF760E                   push    word ptr [bp+0E]
  1.1E36  6A01                     push    0001
  1.1E38  9AFFFF0000               call    SHELL.DRAGACCEPTFILES
  1.1E3D  8B460E                   mov     ax, [bp+0E]
  1.1E40  A3D023                   mov     [23D0], ax
  1.1E43  9A362FA81E               call    1:2F36
  1.1E48  833E5E2D00               cmp     word ptr [2D5E], 0000
  1.1E4D  0F841400                 je      1E65
  1.1E51  FF760E                   push    word ptr [bp+0E]
  1.1E54  6AFF                     push    FFFF
  1.1E56  6A00                     push    0000
  1.1E58  6A00                     push    0000
  1.1E5A  6A00                     push    0000
  1.1E5C  6A00                     push    0000
  1.1E5E  6A03                     push    0003
  1.1E60  9AFFFF0000               call    USER.SETWINDOWPOS

  1.1E65 >FF760E                   push    word ptr [bp+0E]
  1.1E68  9AFFFF0000               call    USER.GETDC
  1.1E6D  8946FE                   mov     [bp-02], ax
  1.1E70  FF36782D                 push    word ptr [2D78]
  1.1E74  6A00                     push    0000
  1.1E76  6A65                     push    0065
  1.1E78  6A00                     push    0000
  1.1E7A  6A02                     push    0002
  1.1E7C  9AFFFF0000               call    KERNEL.FINDRESOURCE
  1.1E81  8946F6                   mov     [bp-0A], ax
  1.1E84  FF36782D                 push    word ptr [2D78]
  1.1E88  FF76F6                   push    word ptr [bp-0A]
  1.1E8B  9AFFFF0000               call    KERNEL.LOADRESOURCE
  1.1E90  8946F8                   mov     [bp-08], ax
  1.1E93  50                       push    ax
  1.1E94  9AFFFF0000               call    KERNEL.LOCKRESOURCE
  1.1E99  8946FA                   mov     [bp-06], ax
  1.1E9C  8956FC                   mov     [bp-04], dx
  1.1E9F  FF76FC                   push    word ptr [bp-04]
  1.1EA2  FF76FA                   push    word ptr [bp-06]
  1.1EA5  9A5A15CB1E               call    1:155A
  1.1EAA  83C404                   add     sp, 0004
  1.1EAD  C45EFA                   les     bx, [bp-06]
  1.1EB0  260307                   add     ax, es:[bx]
  1.1EB3  0346FA                   add     ax, [bp-06]
  1.1EB6  8B56FC                   mov     dx, [bp-04]
  1.1EB9  8946F2                   mov     [bp-0E], ax
  1.1EBC  8956F4                   mov     [bp-0C], dx
  1.1EBF  FF76FC                   push    word ptr [bp-04]
  1.1EC2  FF76FA                   push    word ptr [bp-06]
  1.1EC5  FF76FE                   push    word ptr [bp-02]
  1.1EC8  9A5816F71E               call    1:1658
  1.1ECD  83C406                   add     sp, 0006
  1.1ED0  A36A2D                   mov     [2D6A], ax
  1.1ED3  FF76F8                   push    word ptr [bp-08]
  1.1ED6  9AFFFF0000               call    KERNEL.FREERESOURCE
  1.1EDB  FF76FE                   push    word ptr [bp-02]
  1.1EDE  FF366A2D                 push    word ptr [2D6A]
  1.1EE2  6A00                     push    0000
  1.1EE4  9AFFFF0000               call    USER.SELECTPALETTE
  1.1EE9  FF76FE                   push    word ptr [bp-02]
  1.1EEC  9AFFFF0000               call    USER.REALIZEPALETTE
  1.1EF1  FF76FE                   push    word ptr [bp-02]
  1.1EF4  9AF3423A1F               call    1:42F3
  1.1EF9  83C402                   add     sp, 0002
  1.1EFC  3D0000                   cmp     ax, 0000
  1.1EFF  0F852600                 jne     1F29
  1.1F03  FF760E                   push    word ptr [bp+0E]
  1.1F06  1E                       push    ds
  1.1F07  689B00                   push    009B
  1.1F0A  1E                       push    ds
  1.1F0B  688F00                   push    008F
  1.1F0E  6A10                     push    0010
  1.1F10  9A541F0000               call    USER.MESSAGEBOX
  1.1F15  FF760E                   push    word ptr [bp+0E]
  1.1F18  FF76FE                   push    word ptr [bp-02]
  1.1F1B  9A301F0000               call    USER.RELEASEDC
  1.1F20  B8FFFF                   mov     ax, FFFF
  1.1F23  BAFFFF                   mov     dx, FFFF
  1.1F26  E96A07                   jmp     2693

  1.1F29 >FF760E                   push    word ptr [bp+0E]
  1.1F2C  FF76FE                   push    word ptr [bp-02]
  1.1F2F  9AFFFF0000               call    USER.RELEASEDC
  1.1F34  FF760E                   push    word ptr [bp+0E]
  1.1F37  9A6A30A01F               call    1:306A
  1.1F3C  83C402                   add     sp, 0002
  1.1F3F  3D0000                   cmp     ax, 0000
  1.1F42  0F851B00                 jne     1F61
  1.1F46  FF760E                   push    word ptr [bp+0E]
  1.1F49  1E                       push    ds
  1.1F4A  68BE00                   push    00BE
  1.1F4D  1E                       push    ds
  1.1F4E  68B200                   push    00B2
  1.1F51  6A10                     push    0010
  1.1F53  9AFFFF0000               call    USER.MESSAGEBOX
  1.1F58  B8FFFF                   mov     ax, FFFF
  1.1F5B  BAFFFF                   mov     dx, FFFF
  1.1F5E  E93207                   jmp     2693

  1.1F61 >FF760E                   push    word ptr [bp+0E]
  1.1F64  6A01                     push    0001
  1.1F66  6A6C                     push    006C
  1.1F68  6A00                     push    0000
  1.1F6A  6A00                     push    0000
  1.1F6C  9AFFFF0000               call    USER.SETTIMER
  1.1F71  E90807                   jmp     267C

  1.1F74 >833E902D00               cmp     word ptr [2D90], 0000
  1.1F79  0F853200                 jne     1FAF
  1.1F7D  FF760A                   push    word ptr [bp+0A]
  1.1F80  6A00                     push    0000
  1.1F82  8D86DEFE                 lea     ax, [bp-0122]
  1.1F86  16                       push    ss
  1.1F87  50                       push    ax
  1.1F88  680401                   push    0104
  1.1F8B  9AFFFF0000               call    SHELL.DRAGQUERYFILE
  1.1F90  3D0000                   cmp     ax, 0000
  1.1F93  0F841800                 je      1FAF
  1.1F97  8D86DEFE                 lea     ax, [bp-0122]
  1.1F9B  16                       push    ss
  1.1F9C  50                       push    ax
  1.1F9D  9AAA42AA1F               call    1:42AA
  1.1FA2  83C404                   add     sp, 0004
  1.1FA5  6A04                     push    0004
  1.1FA7  9AD78FDC1F               call    1:8FD7
  1.1FAC  83C402                   add     sp, 0002

  1.1FAF >FF760A                   push    word ptr [bp+0A]
  1.1FB2  9AFFFF0000               call    SHELL.DRAGFINISH
  1.1FB7  E9C206                   jmp     267C

  1.1FBA >8B4606                   mov     ax, [bp+06]
  1.1FBD  8B5608                   mov     dx, [bp+08]
  1.1FC0  E9C100                   jmp     2084

  1.1FC3 >833ECE2300               cmp     word ptr [23CE], 0000
  1.1FC8  0F842300                 je      1FEF
  1.1FCC  833E902D00               cmp     word ptr [2D90], 0000
  1.1FD1  0F840C00                 je      1FE1
  1.1FD5  FF36902D                 push    word ptr [2D90]
  1.1FD9  9ABF2AE71F               call    1:2ABF
  1.1FDE  83C402                   add     sp, 0002

  1.1FE1 >FF760E                   push    word ptr [bp+0E]
  1.1FE4  9ABF2AF51F               call    1:2ABF
  1.1FE9  83C402                   add     sp, 0002
  1.1FEC  E92000                   jmp     200F

  1.1FEF >FF760E                   push    word ptr [bp+0E]
  1.1FF2  9ABF2A4E19               call    1:2ABF
  1.1FF7  83C402                   add     sp, 0002
  1.1FFA  833E902D00               cmp     word ptr [2D90], 0000
  1.1FFF  0F840C00                 je      200F
  1.2003  FF36902D                 push    word ptr [2D90]
  1.2007  9ABF2A1520               call    1:2ABF
  1.200C  83C402                   add     sp, 0002

  1.200F >FF760E                   push    word ptr [bp+0E]
  1.2012  9ABF2A5F21               call    1:2ABF
  1.2017  83C402                   add     sp, 0002
  1.201A  9AFFFF0000               call    USER.CREATEPOPUPMENU
  1.201F  8986DEFE                 mov     [bp-0122], ax
  1.2023  FFB6DEFE                 push    word ptr [bp-0122]
  1.2027  6A00                     push    0000
  1.2029  6A65                     push    0065
  1.202B  1E                       push    ds
  1.202C  68D500                   push    00D5
  1.202F  9A41200000               call    USER.APPENDMENU
  1.2034  FFB6DEFE                 push    word ptr [bp-0122]
  1.2038  6A00                     push    0000
  1.203A  6A02                     push    0002
  1.203C  1E                       push    ds
  1.203D  68EA00                   push    00EA
  1.2040  9AFFFF0000               call    USER.APPENDMENU
  1.2045  8D86DAFE                 lea     ax, [bp-0126]
  1.2049  16                       push    ss
  1.204A  50                       push    ax
  1.204B  9A10210000               call    USER.GETCURSORPOS
  1.2050  FFB6DEFE                 push    word ptr [bp-0122]
  1.2054  6A00                     push    0000
  1.2056  FFB6DAFE                 push    word ptr [bp-0126]
  1.205A  FFB6DCFE                 push    word ptr [bp-0124]
  1.205E  6A00                     push    0000
  1.2060  FF760E                   push    word ptr [bp+0E]
  1.2063  6A00                     push    0000
  1.2065  6A00                     push    0000
  1.2067  9AFFFF0000               call    USER.TRACKPOPUPMENU
  1.206C  FFB6DEFE                 push    word ptr [bp-0122]
  1.2070  9AFFFF0000               call    USER.DESTROYMENU
  1.2075  B80000                   mov     ax, 0000
  1.2078  BA0000                   mov     dx, 0000
  1.207B  E91506                   jmp     2693
  1.207E  E91A00                   jmp     209B
  1.2081  E91700                   jmp     209B

  1.2084 >0BD2                     or      dx, dx
  1.2086  0F851100                 jne     209B
  1.208A  2D0202                   sub     ax, 0202
  1.208D  0F8432FF                 je      1FC3
  1.2091  2D0300                   sub     ax, 0003
  1.2094  0F842BFF                 je      1FC3
  1.2098  E90000                   jmp     209B

  1.209B >B80000                   mov     ax, 0000
  1.209E  BA0000                   mov     dx, 0000
  1.20A1  E9EF05                   jmp     2693

  1.20A4 >8B4606                   mov     ax, [bp+06]
  1.20A7  8B5608                   mov     dx, [bp+08]
  1.20AA  8986DAFE                 mov     [bp-0126], ax
  1.20AE  8996DCFE                 mov     [bp-0124], dx
  1.20B2  833EC20A00               cmp     word ptr [0AC2], 0000
  1.20B7  0F840E00                 je      20C9
  1.20BB  8B4606                   mov     ax, [bp+06]
  1.20BE  8B5608                   mov     dx, [bp+08]
  1.20C1  8986DAFE                 mov     [bp-0126], ax
  1.20C5  8996DCFE                 mov     [bp-0124], dx

  1.20C9 >C49EDAFE                 les     bx, [bp-0126]
  1.20CD  26814F0C0001             or      word ptr es:[bx+0C], 0100
  1.20D3  C706CC0A0100             mov     word ptr [0ACC], 0001
  1.20D9  B80000                   mov     ax, 0000
  1.20DC  BA0000                   mov     dx, 0000
  1.20DF  E9B105                   jmp     2693

  1.20E2 >B80000                   mov     ax, 0000
  1.20E5  BA0000                   mov     dx, 0000
  1.20E8  E9A805                   jmp     2693

  1.20EB >833EDA2300               cmp     word ptr [23DA], 0000
  1.20F0  0F840D00                 je      2101
  1.20F4  FF0EDA23                 dec     word ptr [23DA]
  1.20F8  B80000                   mov     ax, 0000
  1.20FB  BA0000                   mov     dx, 0000
  1.20FE  E99205                   jmp     2693

  1.2101 >833ED62300               cmp     word ptr [23D6], 0000
  1.2106  0F858D00                 jne     2197
  1.210A  8D46E2                   lea     ax, [bp-1E]
  1.210D  16                       push    ss
  1.210E  50                       push    ax
  1.210F  9AFFFF0000               call    USER.GETCURSORPOS
  1.2114  8B46E2                   mov     ax, [bp-1E]
  1.2117  3906D00A                 cmp     [0AD0], ax
  1.211B  0F850B00                 jne     212A
  1.211F  8B46E4                   mov     ax, [bp-1C]
  1.2122  3906D20A                 cmp     [0AD2], ax
  1.2126  0F841200                 je      213C

  1.212A >8B46E2                   mov     ax, [bp-1E]
  1.212D  A3D00A                   mov     [0AD0], ax
  1.2130  8B46E4                   mov     ax, [bp-1C]
  1.2133  A3D20A                   mov     [0AD2], ax
  1.2136  C706B80A0100             mov     word ptr [0AB8], 0001

  1.213C >833E962D00               cmp     word ptr [2D96], 0000
  1.2141  0F842200                 je      2167
  1.2145  833EB80A00               cmp     word ptr [0AB8], 0000
  1.214A  0F841600                 je      2164
  1.214E  C706962D0000             mov     word ptr [2D96], 0000
  1.2154  C706C4230000             mov     word ptr [23C4], 0000
  1.215A  6A00                     push    0000
  1.215C  9AD78F9221               call    1:8FD7
  1.2161  83C402                   add     sp, 0002

  1.2164 >E93000                   jmp     2197

  1.2167 >833EB80A00               cmp     word ptr [0AB8], 0000
  1.216C  0F840F00                 je      217F
  1.2170  C706B80A0000             mov     word ptr [0AB8], 0000
  1.2176  C706C4230000             mov     word ptr [23C4], 0000
  1.217C  E91800                   jmp     2197

  1.217F >A1C423                   mov     ax, [23C4]
  1.2182  FF06C423                 inc     word ptr [23C4]
  1.2186  3D2C01                   cmp     ax, 012C
  1.2189  0F8E0A00                 jle     2197
  1.218D  6A03                     push    0003
  1.218F  9AD78FA621               call    1:8FD7
  1.2194  83C402                   add     sp, 0002

  1.2197 >C706CC0A0000             mov     word ptr [0ACC], 0000
  1.219D  8B460E                   mov     ax, [bp+0E]
  1.21A0  A3D023                   mov     [23D0], ax
  1.21A3  9AF84CAE21               call    1:4CF8
  1.21A8  FF760E                   push    word ptr [bp+0E]
  1.21AB  9A8432B921               call    1:3284
  1.21B0  83C402                   add     sp, 0002
  1.21B3  FF760E                   push    word ptr [bp+0E]
  1.21B6  9A1737DB21               call    1:3717
  1.21BB  83C402                   add     sp, 0002
  1.21BE  C706C20A0100             mov     word ptr [0AC2], 0001
  1.21C4  B80000                   mov     ax, 0000
  1.21C7  BA0000                   mov     dx, 0000
  1.21CA  E9C604                   jmp     2693

  1.21CD >837E0A01                 cmp     word ptr [bp+0A], 0001
  1.21D1  0F850B00                 jne     21E0
  1.21D5  FF7606                   push    word ptr [bp+06]
  1.21D8  9A5F3DEE21               call    1:3D5F
  1.21DD  83C402                   add     sp, 0002

  1.21E0 >837E0A02                 cmp     word ptr [bp+0A], 0002
  1.21E4  0F850B00                 jne     21F3
  1.21E8  FF7606                   push    word ptr [bp+06]
  1.21EB  9AA73D2622               call    1:3DA7
  1.21F0  83C402                   add     sp, 0002

  1.21F3 >B80000                   mov     ax, 0000
  1.21F6  BA0000                   mov     dx, 0000
  1.21F9  E99704                   jmp     2693

  1.21FC >833ECC0A00               cmp     word ptr [0ACC], 0000
  1.2201  0F841B00                 je      2220
  1.2205  C706CC0A0000             mov     word ptr [0ACC], 0000
  1.220B  FF760E                   push    word ptr [bp+0E]
  1.220E  6A00                     push    0000
  1.2210  6A00                     push    0000
  1.2212  9A33220000               call    USER.VALIDATERECT
  1.2217  B80000                   mov     ax, 0000
  1.221A  BA0000                   mov     dx, 0000
  1.221D  E97304                   jmp     2693

  1.2220 >FF760E                   push    word ptr [bp+0E]
  1.2223  9A37327F22               call    1:3237
  1.2228  83C402                   add     sp, 0002
  1.222B  FF760E                   push    word ptr [bp+0E]
  1.222E  6A00                     push    0000
  1.2230  6A00                     push    0000
  1.2232  9A8C220000               call    USER.VALIDATERECT
  1.2237  B80000                   mov     ax, 0000
  1.223A  BA0000                   mov     dx, 0000
  1.223D  E95304                   jmp     2693
  1.2240  FF760E                   push    word ptr [bp+0E]
  1.2243  8D46E6                   lea     ax, [bp-1A]
  1.2246  16                       push    ss
  1.2247  50                       push    ax
  1.2248  9AA1220000               call    USER.GETWINDOWRECT
  1.224D  8B46E8                   mov     ax, [bp-18]
  1.2250  3906C60A                 cmp     [0AC6], ax
  1.2254  0F854100                 jne     2299
  1.2258  8B46EC                   mov     ax, [bp-14]
  1.225B  3906CA0A                 cmp     [0ACA], ax
  1.225F  0F853600                 jne     2299
  1.2263  8B46E6                   mov     ax, [bp-1A]
  1.2266  3906C40A                 cmp     [0AC4], ax
  1.226A  0F852B00                 jne     2299
  1.226E  8B46EA                   mov     ax, [bp-16]
  1.2271  3906C80A                 cmp     [0AC8], ax
  1.2275  0F852000                 jne     2299
  1.2279  FF760E                   push    word ptr [bp+0E]
  1.227C  9A37325123               call    1:3237
  1.2281  83C402                   add     sp, 0002
  1.2284  FF760E                   push    word ptr [bp+0E]
  1.2287  6A00                     push    0000
  1.2289  6A00                     push    0000
  1.228B  9AAD220000               call    USER.VALIDATERECT
  1.2290  B80000                   mov     ax, 0000
  1.2293  BA0000                   mov     dx, 0000
  1.2296  E9FA03                   jmp     2693

  1.2299 >FF760E                   push    word ptr [bp+0E]
  1.229C  1E                       push    ds
  1.229D  68C40A                   push    0AC4
  1.22A0  9A30230000               call    USER.GETWINDOWRECT
  1.22A5  FF760E                   push    word ptr [bp+0E]
  1.22A8  6A00                     push    0000
  1.22AA  6A00                     push    0000
  1.22AC  9AFFFF0000               call    USER.VALIDATERECT
  1.22B1  B80000                   mov     ax, 0000
  1.22B4  BA0000                   mov     dx, 0000
  1.22B7  E9D903                   jmp     2693
  1.22BA  E9BF03                   jmp     267C

  1.22BD >B80000                   mov     ax, 0000
  1.22C0  BA0000                   mov     dx, 0000
  1.22C3  E9CD03                   jmp     2693

  1.22C6 >8B460A                   mov     ax, [bp+0A]
  1.22C9  E92800                   jmp     22F4

  1.22CC >FF760E                   push    word ptr [bp+0E]
  1.22CF  680204                   push    0402
  1.22D2  6A00                     push    0000
  1.22D4  6A00                     push    0000
  1.22D6  6A00                     push    0000
  1.22D8  9AFFFF0000               call    USER.SENDMESSAGE
  1.22DD  E92400                   jmp     2304

  1.22E0 >FF760E                   push    word ptr [bp+0E]
  1.22E3  9AFFFF0000               call    USER.DESTROYWINDOW
  1.22E8  B80000                   mov     ax, 0000
  1.22EB  BA0000                   mov     dx, 0000
  1.22EE  E9A203                   jmp     2693
  1.22F1  E91000                   jmp     2304

  1.22F4 >48                       dec     ax
  1.22F5  48                       dec     ax
  1.22F6  0F84E6FF                 je      22E0
  1.22FA  2D6300                   sub     ax, 0063
  1.22FD  0F84CBFF                 je      22CC
  1.2301  E90000                   jmp     2304

  1.2304 >E97503                   jmp     267C

  1.2307 >833E902D00               cmp     word ptr [2D90], 0000
  1.230C  0F840300                 je      2313
  1.2310  E96903                   jmp     267C

  1.2313 >833EBE0A00               cmp     word ptr [0ABE], 0000
  1.2318  0F840300                 je      231F
  1.231C  E95D03                   jmp     267C

  1.231F >FF760E                   push    word ptr [bp+0E]
  1.2322  9AFFFF0000               call    USER.SETCAPTURE
  1.2327  FF760E                   push    word ptr [bp+0E]
  1.232A  8D46E6                   lea     ax, [bp-1A]
  1.232D  16                       push    ss
  1.232E  50                       push    ax
  1.232F  9A84230000               call    USER.GETWINDOWRECT
  1.2334  8B4606                   mov     ax, [bp+06]
  1.2337  0346E6                   add     ax, [bp-1A]
  1.233A  A3BA0A                   mov     [0ABA], ax
  1.233D  8B4608                   mov     ax, [bp+08]
  1.2340  0346E8                   add     ax, [bp-18]
  1.2343  A3BC0A                   mov     [0ABC], ax
  1.2346  C706BE0A0100             mov     word ptr [0ABE], 0001
  1.234C  6A01                     push    0001
  1.234E  9AD78F5C23               call    1:8FD7
  1.2353  83C402                   add     sp, 0002
  1.2356  FF760E                   push    word ptr [bp+0E]
  1.2359  9A84326723               call    1:3284
  1.235E  83C402                   add     sp, 0002
  1.2361  FF760E                   push    word ptr [bp+0E]
  1.2364  9A1737591C               call    1:3717
  1.2369  83C402                   add     sp, 0002
  1.236C  E90D03                   jmp     267C

  1.236F >833EBE0A00               cmp     word ptr [0ABE], 0000
  1.2374  0F850300                 jne     237B
  1.2378  E90103                   jmp     267C

  1.237B >FF760E                   push    word ptr [bp+0E]
  1.237E  8D46E6                   lea     ax, [bp-1A]
  1.2381  16                       push    ss
  1.2382  50                       push    ax
  1.2383  9AFFFF0000               call    USER.GETWINDOWRECT
  1.2388  8B4606                   mov     ax, [bp+06]
  1.238B  0346E6                   add     ax, [bp-1A]
  1.238E  8946F0                   mov     [bp-10], ax
  1.2391  8B4608                   mov     ax, [bp+08]
  1.2394  0346E8                   add     ax, [bp-18]
  1.2397  8946EE                   mov     [bp-12], ax
  1.239A  8B46F0                   mov     ax, [bp-10]
  1.239D  3906BA0A                 cmp     [0ABA], ax
  1.23A1  0F850E00                 jne     23B3
  1.23A5  8B46EE                   mov     ax, [bp-12]
  1.23A8  3906BC0A                 cmp     [0ABC], ax
  1.23AC  0F850300                 jne     23B3
  1.23B0  E9C902                   jmp     267C

  1.23B3 >8B46EE                   mov     ax, [bp-12]
  1.23B6  2B06BC0A                 sub     ax, [0ABC]
  1.23BA  50                       push    ax
  1.23BB  8B46F0                   mov     ax, [bp-10]
  1.23BE  2B06BA0A                 sub     ax, [0ABA]
  1.23C2  50                       push    ax
  1.23C3  9ACD91DD23               call    1:91CD
  1.23C8  83C404                   add     sp, 0004
  1.23CB  8B46F0                   mov     ax, [bp-10]
  1.23CE  A3BA0A                   mov     [0ABA], ax
  1.23D1  8B46EE                   mov     ax, [bp-12]
  1.23D4  A3BC0A                   mov     [0ABC], ax
  1.23D7  FF760E                   push    word ptr [bp+0E]
  1.23DA  9A8432E823               call    1:3284
  1.23DF  83C402                   add     sp, 0002
  1.23E2  FF760E                   push    word ptr [bp+0E]
  1.23E5  9A17373F24               call    1:3717
  1.23EA  83C402                   add     sp, 0002
  1.23ED  E98C02                   jmp     267C

  1.23F0 >833EC00A00               cmp     word ptr [0AC0], 0000
  1.23F5  0F840B00                 je      2404
  1.23F9  FF760E                   push    word ptr [bp+0E]
  1.23FC  9AC2260000               call    USER.DESTROYWINDOW
  1.2401  E97802                   jmp     267C

  1.2404 >833EBE0A00               cmp     word ptr [0ABE], 0000
  1.2409  0F847500                 je      2482
  1.240D  FF760E                   push    word ptr [bp+0E]
  1.2410  8D46E6                   lea     ax, [bp-1A]
  1.2413  16                       push    ss
  1.2414  50                       push    ax
  1.2415  9A49220000               call    USER.GETWINDOWRECT
  1.241A  8B4606                   mov     ax, [bp+06]
  1.241D  0346E6                   add     ax, [bp-1A]
  1.2420  8946F0                   mov     [bp-10], ax
  1.2423  8B4608                   mov     ax, [bp+08]
  1.2426  0346E8                   add     ax, [bp-18]
  1.2429  8946EE                   mov     [bp-12], ax
  1.242C  8B46EE                   mov     ax, [bp-12]
  1.242F  2B06BC0A                 sub     ax, [0ABC]
  1.2433  50                       push    ax
  1.2434  8B46F0                   mov     ax, [bp-10]
  1.2437  2B06BA0A                 sub     ax, [0ABA]
  1.243B  50                       push    ax
  1.243C  9ACD914924               call    1:91CD
  1.2441  83C404                   add     sp, 0004
  1.2444  6A00                     push    0000
  1.2446  9AD78F5C24               call    1:8FD7
  1.244B  83C402                   add     sp, 0002
  1.244E  817E0C0502               cmp     word ptr [bp+0C], 0205
  1.2453  0F850A00                 jne     2461
  1.2457  6A02                     push    0002
  1.2459  9AD78F6724               call    1:8FD7
  1.245E  83C402                   add     sp, 0002

  1.2461 >FF760E                   push    word ptr [bp+0E]
  1.2464  9A84327224               call    1:3284
  1.2469  83C402                   add     sp, 0002
  1.246C  FF760E                   push    word ptr [bp+0E]
  1.246F  9A1737BF24               call    1:3717
  1.2474  83C402                   add     sp, 0002
  1.2477  9AFFFF0000               call    USER.RELEASECAPTURE
  1.247C  C706BE0A0000             mov     word ptr [0ABE], 0000

  1.2482 >E9F701                   jmp     267C

  1.2485 >C706C00A0100             mov     word ptr [0AC0], 0001
  1.248B  E9EE01                   jmp     267C

  1.248E >A15E2D                   mov     ax, [2D5E]
  1.2491  8986DEFE                 mov     [bp-0122], ax
  1.2495  A1622D                   mov     ax, [2D62]
  1.2498  8986D8FE                 mov     [bp-0128], ax
  1.249C  8B460E                   mov     ax, [bp+0E]
  1.249F  A3D023                   mov     [23D0], ax
  1.24A2  6A10                     push    0010
  1.24A4  9AB3240000               call    USER.GETKEYSTATE
  1.24A9  F6C480                   test    ah, 80
  1.24AC  0F844000                 je      24F0
  1.24B0  6A11                     push    0011
  1.24B2  9AFFFF0000               call    USER.GETKEYSTATE
  1.24B7  F6C480                   test    ah, 80
  1.24BA  0F843200                 je      24F0
  1.24BE  68F124                   push    selector 1:0000
  1.24C1  682A29                   push    292A
  1.24C4  FF36782D                 push    word ptr [2D78]
  1.24C8  9AFB240000               call    KERNEL.MAKEPROCINSTANCE
  1.24CD  8986DAFE                 mov     [bp-0126], ax
  1.24D1  8996DCFE                 mov     [bp-0124], dx
  1.24D5  FF36782D                 push    word ptr [2D78]
  1.24D9  6A00                     push    0000
  1.24DB  6A6C                     push    006C
  1.24DD  FF760E                   push    word ptr [bp+0E]
  1.24E0  FFB6DCFE                 push    word ptr [bp-0124]
  1.24E4  FFB6DAFE                 push    word ptr [bp-0126]
  1.24E8  9A1B250000               call    USER.DIALOGBOX
  1.24ED  E92F00                   jmp     251F

  1.24F0 >683225                   push    selector 1:0000
  1.24F3  68FF27                   push    27FF
  1.24F6  FF36782D                 push    word ptr [2D78]
  1.24FA  9AFFFF0000               call    KERNEL.MAKEPROCINSTANCE
  1.24FF  8986DAFE                 mov     [bp-0126], ax
  1.2503  8996DCFE                 mov     [bp-0124], dx
  1.2507  FF36782D                 push    word ptr [2D78]
  1.250B  6A00                     push    0000
  1.250D  6A6B                     push    006B
  1.250F  FF760E                   push    word ptr [bp+0E]
  1.2512  FFB6DCFE                 push    word ptr [bp-0124]
  1.2516  FFB6DAFE                 push    word ptr [bp-0126]
  1.251A  9AFFFF0000               call    USER.DIALOGBOX

  1.251F >FFB6DCFE                 push    word ptr [bp-0124]
  1.2523  FFB6DAFE                 push    word ptr [bp-0126]
  1.2527  9AFFFF0000               call    KERNEL.FREEPROCINSTANCE
  1.252C  FF760E                   push    word ptr [bp+0E]
  1.252F  9A37328F25               call    1:3237
  1.2534  83C402                   add     sp, 0002
  1.2537  A15E2D                   mov     ax, [2D5E]
  1.253A  3986DEFE                 cmp     [bp-0122], ax
  1.253E  0F843400                 je      2576
  1.2542  833E5E2D00               cmp     word ptr [2D5E], 0000
  1.2547  0F841700                 je      2562
  1.254B  FF760E                   push    word ptr [bp+0E]
  1.254E  6AFF                     push    FFFF
  1.2550  6A00                     push    0000
  1.2552  6A00                     push    0000
  1.2554  6A00                     push    0000
  1.2556  6A00                     push    0000
  1.2558  6A03                     push    0003
  1.255A  9A72250000               call    USER.SETWINDOWPOS
  1.255F  E91400                   jmp     2576

  1.2562 >FF760E                   push    word ptr [bp+0E]
  1.2565  6AFE                     push    FFFE
  1.2567  6A00                     push    0000
  1.2569  6A00                     push    0000
  1.256B  6A00                     push    0000
  1.256D  6A00                     push    0000
  1.256F  6A03                     push    0003
  1.2571  9A611E0000               call    USER.SETWINDOWPOS

  1.2576 >A1622D                   mov     ax, [2D62]
  1.2579  3986D8FE                 cmp     [bp-0128], ax
  1.257D  0F841300                 je      2594
  1.2581  833E622D00               cmp     word ptr [2D62], 0000
  1.2586  0F840A00                 je      2594
  1.258A  6A02                     push    0002
  1.258C  9AD78F9D25               call    1:8FD7
  1.2591  83C402                   add     sp, 0002

  1.2594 >E9E500                   jmp     267C

  1.2597 >FF760E                   push    word ptr [bp+0E]
  1.259A  9A123DAE25               call    1:3D12
  1.259F  83C402                   add     sp, 0002
  1.25A2  833E902D00               cmp     word ptr [2D90], 0000
  1.25A7  0F840500                 je      25B0
  1.25AB  9A962ABD25               call    1:2A96

  1.25B0 >FF760E                   push    word ptr [bp+0E]
  1.25B3  6A01                     push    0001
  1.25B5  9AFFFF0000               call    USER.KILLTIMER
  1.25BA  9A8E42C425               call    1:428E
  1.25BF  6A00                     push    0000
  1.25C1  9A1931CC25               call    1:3119
  1.25C6  83C402                   add     sp, 0002
  1.25C9  9AED44A226               call    1:44ED
  1.25CE  FF366A2D                 push    word ptr [2D6A]
  1.25D2  9AFFFF0000               call    GDI.DELETEOBJECT
  1.25D7  FF760E                   push    word ptr [bp+0E]
  1.25DA  6A00                     push    0000
  1.25DC  9A391E0000               call    SHELL.DRAGACCEPTFILES
  1.25E1  6A00                     push    0000
  1.25E3  9AFFFF0000               call    USER.POSTQUITMESSAGE
  1.25E8  E99100                   jmp     267C
  1.25EB  E98E00                   jmp     267C

  1.25EE >3D0102                   cmp     ax, 0201
  1.25F1  0F8412FD                 je      2307
  1.25F5  0F874400                 ja      263D
  1.25F9  3D4600                   cmp     ax, 0046
  1.25FC  0F84A4FA                 je      20A4
  1.2600  0F871B00                 ja      261F
  1.2604  48                       dec     ax
  1.2605  0F84FDF7                 je      1E06
  1.2609  48                       dec     ax
  1.260A  0F8489FF                 je      2597
  1.260E  2D0D00                   sub     ax, 000D
  1.2611  0F84E7FB                 je      21FC
  1.2615  2D0500                   sub     ax, 0005
  1.2618  0F84A1FC                 je      22BD
  1.261C  E95D00                   jmp     267C

  1.261F >2D4700                   sub     ax, 0047
  1.2622  0F84BCFA                 je      20E2
  1.2626  2DCA00                   sub     ax, 00CA
  1.2629  0F8499FC                 je      22C6
  1.262D  48                       dec     ax
  1.262E  48                       dec     ax
  1.262F  0F84B8FA                 je      20EB
  1.2633  2DED00                   sub     ax, 00ED
  1.2636  0F8435FD                 je      236F
  1.263A  E93F00                   jmp     267C

  1.263D >3D0602                   cmp     ax, 0206
  1.2640  0F8441FE                 je      2485
  1.2644  0F871900                 ja      2661
  1.2648  2D0202                   sub     ax, 0202
  1.264B  0F84B5FD                 je      2404
  1.264F  48                       dec     ax
  1.2650  0F843AFE                 je      248E
  1.2654  48                       dec     ax
  1.2655  0F84AEFC                 je      2307
  1.2659  48                       dec     ax
  1.265A  0F8492FD                 je      23F0
  1.265E  E91B00                   jmp     267C

  1.2661 >2D3302                   sub     ax, 0233
  1.2664  0F840CF9                 je      1F74
  1.2668  2DCD01                   sub     ax, 01CD
  1.266B  0F845EFB                 je      21CD
  1.266F  48                       dec     ax
  1.2670  0F8446F9                 je      1FBA
  1.2674  48                       dec     ax
  1.2675  0F8415FE                 je      248E
  1.2679  E90000                   jmp     267C

  1.267C >FF760E                   push    word ptr [bp+0E]
  1.267F  FF760C                   push    word ptr [bp+0C]
  1.2682  FF760A                   push    word ptr [bp+0A]
  1.2685  FF7608                   push    word ptr [bp+08]
  1.2688  FF7606                   push    word ptr [bp+06]
  1.268B  9AFFFF0000               call    USER.DEFWINDOWPROC
  1.2690  E90000                   jmp     2693

  1.2693 >5E                       pop     si
  1.2694  5F                       pop     di
  1.2695  C9                       leave  
  1.2696  CA0A00                   retf    000A
  1.2699  55                       push    bp
  1.269A  8BEC                     mov     bp, sp
  1.269C  B80400                   mov     ax, 0004
  1.269F  9A1207B226               call    1:0712
  1.26A4  57                       push    di
  1.26A5  56                       push    si
  1.26A6  8B460C                   mov     ax, [bp+0C]
  1.26A9  E90101                   jmp     27AD

  1.26AC >FF760E                   push    word ptr [bp+0E]
  1.26AF  9A00921B27               call    1:9200
  1.26B4  83C402                   add     sp, 0002
  1.26B7  3D0000                   cmp     ax, 0000
  1.26BA  0F851100                 jne     26CF
  1.26BE  FF760E                   push    word ptr [bp+0E]
  1.26C1  9AE4220000               call    USER.DESTROYWINDOW
  1.26C6  B80100                   mov     ax, 0001
  1.26C9  BA0000                   mov     dx, 0000
  1.26CC  E92A01                   jmp     27F9

  1.26CF >FF760E                   push    word ptr [bp+0E]
  1.26D2  6A01                     push    0001
  1.26D4  6A6C                     push    006C
  1.26D6  6A00                     push    0000
  1.26D8  6A00                     push    0000
  1.26DA  9A6D1F0000               call    USER.SETTIMER
  1.26DF  E90001                   jmp     27E2

  1.26E2 >8B4606                   mov     ax, [bp+06]
  1.26E5  8B5608                   mov     dx, [bp+08]
  1.26E8  8946FC                   mov     [bp-04], ax
  1.26EB  8956FE                   mov     [bp-02], dx
  1.26EE  C45EFC                   les     bx, [bp-04]
  1.26F1  26814F0C0001             or      word ptr es:[bx+0C], 0100
  1.26F7  C706D40A0100             mov     word ptr [0AD4], 0001
  1.26FD  B80000                   mov     ax, 0000
  1.2700  BA0000                   mov     dx, 0000
  1.2703  E9F300                   jmp     27F9

  1.2706 >B80000                   mov     ax, 0000
  1.2709  BA0000                   mov     dx, 0000
  1.270C  E9EA00                   jmp     27F9

  1.270F >C706D40A0000             mov     word ptr [0AD4], 0000
  1.2715  FF760E                   push    word ptr [bp+0E]
  1.2718  9A38942627               call    1:9438
  1.271D  83C402                   add     sp, 0002
  1.2720  FF760E                   push    word ptr [bp+0E]
  1.2723  9A499A3B27               call    1:9A49
  1.2728  83C402                   add     sp, 0002
  1.272B  3D0000                   cmp     ax, 0000
  1.272E  0F850B00                 jne     273D
  1.2732  C7065C2D0100             mov     word ptr [2D5C], 0001
  1.2738  9AE14C0A20               call    1:4CE1

  1.273D >B80000                   mov     ax, 0000
  1.2740  BA0000                   mov     dx, 0000
  1.2743  E9B300                   jmp     27F9

  1.2746 >833ED40A00               cmp     word ptr [0AD4], 0000
  1.274B  0F841B00                 je      276A
  1.274F  C706D40A0000             mov     word ptr [0AD4], 0000
  1.2755  FF760E                   push    word ptr [bp+0E]
  1.2758  6A00                     push    0000
  1.275A  6A00                     push    0000
  1.275C  9A13220000               call    USER.VALIDATERECT
  1.2761  B80000                   mov     ax, 0000
  1.2764  BA0000                   mov     dx, 0000
  1.2767  E98F00                   jmp     27F9

  1.276A >FF760E                   push    word ptr [bp+0E]
  1.276D  9ADF939827               call    1:93DF
  1.2772  83C402                   add     sp, 0002
  1.2775  FF760E                   push    word ptr [bp+0E]
  1.2778  6A00                     push    0000
  1.277A  6A00                     push    0000
  1.277C  9A5D270000               call    USER.VALIDATERECT
  1.2781  B80000                   mov     ax, 0000
  1.2784  BA0000                   mov     dx, 0000
  1.2787  E96F00                   jmp     27F9

  1.278A >B80000                   mov     ax, 0000
  1.278D  BA0000                   mov     dx, 0000
  1.2790  E96600                   jmp     27F9

  1.2793 >6A00                     push    0000
  1.2795  9A0F930828               call    1:930F
  1.279A  83C402                   add     sp, 0002
  1.279D  FF760E                   push    word ptr [bp+0E]
  1.27A0  6A01                     push    0001
  1.27A2  9AB6250000               call    USER.KILLTIMER
  1.27A7  E93800                   jmp     27E2
  1.27AA  E93500                   jmp     27E2

  1.27AD >3D1400                   cmp     ax, 0014
  1.27B0  0F84D6FF                 je      278A
  1.27B4  0F871400                 ja      27CC
  1.27B8  48                       dec     ax
  1.27B9  0F84EFFE                 je      26AC
  1.27BD  48                       dec     ax
  1.27BE  0F84D1FF                 je      2793
  1.27C2  2D0D00                   sub     ax, 000D
  1.27C5  0F847DFF                 je      2746
  1.27C9  E91600                   jmp     27E2

  1.27CC >2D4600                   sub     ax, 0046
  1.27CF  0F840FFF                 je      26E2
  1.27D3  48                       dec     ax
  1.27D4  0F842EFF                 je      2706
  1.27D8  2DCC00                   sub     ax, 00CC
  1.27DB  0F8430FF                 je      270F
  1.27DF  E90000                   jmp     27E2

  1.27E2 >FF760E                   push    word ptr [bp+0E]
  1.27E5  FF760C                   push    word ptr [bp+0C]
  1.27E8  FF760A                   push    word ptr [bp+0A]
  1.27EB  FF7608                   push    word ptr [bp+08]
  1.27EE  FF7606                   push    word ptr [bp+06]
  1.27F1  9A8C260000               call    USER.DEFWINDOWPROC
  1.27F6  E90000                   jmp     27F9

  1.27F9 >5E                       pop     si
  1.27FA  5F                       pop     di
  1.27FB  C9                       leave  
  1.27FC  CA0A00                   retf    000A
  1.27FF  55                       push    bp
  1.2800  8BEC                     mov     bp, sp
  1.2802  B80000                   mov     ax, 0000
  1.2805  9A1207D328               call    1:0712
  1.280A  57                       push    di
  1.280B  56                       push    si
  1.280C  8B460C                   mov     ax, [bp+0C]
  1.280F  E9FD00                   jmp     290F

  1.2812 >FF760E                   push    word ptr [bp+0E]
  1.2815  68E903                   push    03E9
  1.2818  680104                   push    0401
  1.281B  FF36CC23                 push    word ptr [23CC]
  1.281F  6A00                     push    0000
  1.2821  6A00                     push    0000
  1.2823  9A3A280000               call    USER.SENDDLGITEMMESSAGE
  1.2828  FF760E                   push    word ptr [bp+0E]
  1.282B  68EA03                   push    03EA
  1.282E  680104                   push    0401
  1.2831  FF367A2D                 push    word ptr [2D7A]
  1.2835  6A00                     push    0000
  1.2837  6A00                     push    0000
  1.2839  9A50280000               call    USER.SENDDLGITEMMESSAGE
  1.283E  FF760E                   push    word ptr [bp+0E]
  1.2841  68EB03                   push    03EB
  1.2844  680104                   push    0401
  1.2847  FF36D623                 push    word ptr [23D6]
  1.284B  6A00                     push    0000
  1.284D  6A00                     push    0000
  1.284F  9A66280000               call    USER.SENDDLGITEMMESSAGE
  1.2854  FF760E                   push    word ptr [bp+0E]
  1.2857  68EC03                   push    03EC
  1.285A  680104                   push    0401
  1.285D  FF36622D                 push    word ptr [2D62]
  1.2861  6A00                     push    0000
  1.2863  6A00                     push    0000
  1.2865  9AFFFF0000               call    USER.SENDDLGITEMMESSAGE
  1.286A  B80100                   mov     ax, 0001
  1.286D  E9B400                   jmp     2924

  1.2870 >837E0A04                 cmp     word ptr [bp+0A], 0004
  1.2874  0F851800                 jne     2890
  1.2878  FF760E                   push    word ptr [bp+0E]
  1.287B  1E                       push    ds
  1.287C  68FC00                   push    00FC
  1.287F  6A03                     push    0003
  1.2881  6A00                     push    0000
  1.2883  6A00                     push    0000
  1.2885  9AFFFF0000               call    USER.WINHELP
  1.288A  B80100                   mov     ax, 0001
  1.288D  E99400                   jmp     2924

  1.2890 >837E0A01                 cmp     word ptr [bp+0A], 0001
  1.2894  0F853D00                 jne     28D5
  1.2898  FF760E                   push    word ptr [bp+0E]
  1.289B  68E903                   push    03E9
  1.289E  9AAD280000               call    USER.ISDLGBUTTONCHECKED
  1.28A3  A3CC23                   mov     [23CC], ax
  1.28A6  FF760E                   push    word ptr [bp+0E]
  1.28A9  68EA03                   push    03EA
  1.28AC  9ABB280000               call    USER.ISDLGBUTTONCHECKED
  1.28B1  A37A2D                   mov     [2D7A], ax
  1.28B4  FF760E                   push    word ptr [bp+0E]
  1.28B7  68EB03                   push    03EB
  1.28BA  9AC9280000               call    USER.ISDLGBUTTONCHECKED
  1.28BF  A3D623                   mov     [23D6], ax
  1.28C2  FF760E                   push    word ptr [bp+0E]
  1.28C5  68EC03                   push    03EC
  1.28C8  9A88290000               call    USER.ISDLGBUTTONCHECKED
  1.28CD  A3622D                   mov     [2D62], ax
  1.28D0  9AF82F3329               call    1:2FF8

  1.28D5 >837E0A03                 cmp     word ptr [bp+0A], 0003
  1.28D9  0F850900                 jne     28E6
  1.28DD  FF36D023                 push    word ptr [23D0]
  1.28E1  9AB12A0000               call    USER.DESTROYWINDOW

  1.28E6 >837E0A01                 cmp     word ptr [bp+0A], 0001
  1.28EA  0F841000                 je      28FE
  1.28EE  837E0A02                 cmp     word ptr [bp+0A], 0002
  1.28F2  0F840800                 je      28FE
  1.28F6  837E0A03                 cmp     word ptr [bp+0A], 0003
  1.28FA  0F850B00                 jne     2909

  1.28FE >FF760E                   push    word ptr [bp+0E]
  1.2901  FF760A                   push    word ptr [bp+0A]
  1.2904  9A6B290000               call    USER.ENDDIALOG

  1.2909 >E91200                   jmp     291E
  1.290C  E90F00                   jmp     291E

  1.290F >2D1001                   sub     ax, 0110
  1.2912  0F84FCFE                 je      2812
  1.2916  48                       dec     ax
  1.2917  0F8455FF                 je      2870
  1.291B  E90000                   jmp     291E

  1.291E >B80000                   mov     ax, 0000
  1.2921  E90000                   jmp     2924

  1.2924 >5E                       pop     si
  1.2925  5F                       pop     di
  1.2926  C9                       leave  
  1.2927  CA0A00                   retf    000A
  1.292A  55                       push    bp
  1.292B  8BEC                     mov     bp, sp
  1.292D  B80000                   mov     ax, 0000
  1.2930  9A12079D29               call    1:0712
  1.2935  57                       push    di
  1.2936  56                       push    si
  1.2937  8B460C                   mov     ax, [bp+0C]
  1.293A  E9C900                   jmp     2A06

  1.293D >FF760E                   push    word ptr [bp+0E]
  1.2940  68EA03                   push    03EA
  1.2943  68FB03                   push    03FB
  1.2946  68EA03                   push    03EA
  1.2949  9AFFFF0000               call    USER.CHECKRADIOBUTTON
  1.294E  B80100                   mov     ax, 0001
  1.2951  E9C700                   jmp     2A1B

  1.2954 >837E0A01                 cmp     word ptr [bp+0A], 0001
  1.2958  0F840800                 je      2964
  1.295C  837E0A02                 cmp     word ptr [bp+0A], 0002
  1.2960  0F850B00                 jne     296F

  1.2964 >FF760E                   push    word ptr [bp+0E]
  1.2967  FF760A                   push    word ptr [bp+0A]
  1.296A  9AFFFF0000               call    USER.ENDDIALOG

  1.296F >817E0AEA03               cmp     word ptr [bp+0A], 03EA
  1.2974  0F822A00                 jb      29A2
  1.2978  817E0A0704               cmp     word ptr [bp+0A], 0407
  1.297D  0F872100                 ja      29A2
  1.2981  FF760E                   push    word ptr [bp+0E]
  1.2984  FF760A                   push    word ptr [bp+0A]
  1.2987  9AFFFF0000               call    USER.ISDLGBUTTONCHECKED
  1.298C  3D0000                   cmp     ax, 0000
  1.298F  0F840F00                 je      29A2
  1.2993  8B460A                   mov     ax, [bp+0A]
  1.2996  2DEA03                   sub     ax, 03EA
  1.2999  50                       push    ax
  1.299A  9A4A90AF29               call    1:904A
  1.299F  83C402                   add     sp, 0002

  1.29A2 >8B460A                   mov     ax, [bp+0A]
  1.29A5  E93F00                   jmp     29E7

  1.29A8 >6AEC                     push    FFEC
  1.29AA  6A00                     push    0000
  1.29AC  9ACD91BE29               call    1:91CD
  1.29B1  83C404                   add     sp, 0004
  1.29B4  E94900                   jmp     2A00

  1.29B7 >6A14                     push    0014
  1.29B9  6A00                     push    0000
  1.29BB  9ACD91CD29               call    1:91CD
  1.29C0  83C404                   add     sp, 0004
  1.29C3  E93A00                   jmp     2A00

  1.29C6 >6A00                     push    0000
  1.29C8  6AEC                     push    FFEC
  1.29CA  9ACD91DC29               call    1:91CD
  1.29CF  83C404                   add     sp, 0004
  1.29D2  E92B00                   jmp     2A00

  1.29D5 >6A00                     push    0000
  1.29D7  6A14                     push    0014
  1.29D9  9ACD912A2A               call    1:91CD
  1.29DE  83C404                   add     sp, 0004
  1.29E1  E91C00                   jmp     2A00
  1.29E4  E91900                   jmp     2A00

  1.29E7 >2D0804                   sub     ax, 0408
  1.29EA  0F84BAFF                 je      29A8
  1.29EE  48                       dec     ax
  1.29EF  0F84C4FF                 je      29B7
  1.29F3  48                       dec     ax
  1.29F4  0F84CEFF                 je      29C6
  1.29F8  48                       dec     ax
  1.29F9  0F84D8FF                 je      29D5
  1.29FD  E90000                   jmp     2A00

  1.2A00 >E91200                   jmp     2A15
  1.2A03  E90F00                   jmp     2A15

  1.2A06 >2D1001                   sub     ax, 0110
  1.2A09  0F8430FF                 je      293D
  1.2A0D  48                       dec     ax
  1.2A0E  0F8442FF                 je      2954
  1.2A12  E90000                   jmp     2A15

  1.2A15 >B80000                   mov     ax, 0000
  1.2A18  E90000                   jmp     2A1B

  1.2A1B >5E                       pop     si
  1.2A1C  5F                       pop     di
  1.2A1D  C9                       leave  
  1.2A1E  CA0A00                   retf    000A
  1.2A21  55                       push    bp
  1.2A22  8BEC                     mov     bp, sp
  1.2A24  B80000                   mov     ax, 0000
  1.2A27  9A1207902A               call    1:0712
  1.2A2C  57                       push    di
  1.2A2D  56                       push    si
  1.2A2E  833E902D00               cmp     word ptr [2D90], 0000
  1.2A33  0F840300                 je      2A3A
  1.2A37  E95800                   jmp     2A92

  1.2A3A >6A00                     push    0000
  1.2A3C  6A00                     push    0000
  1.2A3E  1E                       push    ds
  1.2A3F  681801                   push    0118
  1.2A42  1E                       push    ds
  1.2A43  680901                   push    0109
  1.2A46  680080                   push    8000
  1.2A49  6A00                     push    0000
  1.2A4B  6A00                     push    0000
  1.2A4D  6A00                     push    0000
  1.2A4F  6A00                     push    0000
  1.2A51  6A00                     push    0000
  1.2A53  6A00                     push    0000
  1.2A55  6A00                     push    0000
  1.2A57  FF36782D                 push    word ptr [2D78]
  1.2A5B  6A00                     push    0000
  1.2A5D  6A00                     push    0000
  1.2A5F  9A7A1D0000               call    USER.CREATEWINDOWEX
  1.2A64  A3902D                   mov     [2D90], ax
  1.2A67  833E902D00               cmp     word ptr [2D90], 0000
  1.2A6C  0F841700                 je      2A87
  1.2A70  FF36902D                 push    word ptr [2D90]
  1.2A74  6A08                     push    0008
  1.2A76  9A961D0000               call    USER.SHOWWINDOW
  1.2A7B  FF36902D                 push    word ptr [2D90]
  1.2A7F  9A9E1D0000               call    USER.UPDATEWINDOW
  1.2A84  E90B00                   jmp     2A92

  1.2A87 >C7065C2D0100             mov     word ptr [2D5C], 0001
  1.2A8D  9AE14C9F2A               call    1:4CE1

  1.2A92 >5E                       pop     si
  1.2A93  5F                       pop     di
  1.2A94  C9                       leave  
  1.2A95  CB                       retf   
  1.2A96  55                       push    bp
  1.2A97  8BEC                     mov     bp, sp
  1.2A99  B80000                   mov     ax, 0000
  1.2A9C  9A1207C82A               call    1:0712
  1.2AA1  57                       push    di
  1.2AA2  56                       push    si
  1.2AA3  833E902D00               cmp     word ptr [2D90], 0000
  1.2AA8  0F840F00                 je      2ABB
  1.2AAC  FF36902D                 push    word ptr [2D90]
  1.2AB0  9AFD230000               call    USER.DESTROYWINDOW
  1.2AB5  C706902D0000             mov     word ptr [2D90], 0000

  1.2ABB >5E                       pop     si
  1.2ABC  5F                       pop     di
  1.2ABD  C9                       leave  
  1.2ABE  CB                       retf   
  1.2ABF  55                       push    bp
  1.2AC0  8BEC                     mov     bp, sp
  1.2AC2  B80000                   mov     ax, 0000
  1.2AC5  9A12070A2B               call    1:0712
  1.2ACA  57                       push    di
  1.2ACB  56                       push    si
  1.2ACC  833E5E2D00               cmp     word ptr [2D5E], 0000
  1.2AD1  0F852800                 jne     2AFD
  1.2AD5  FF7606                   push    word ptr [bp+06]
  1.2AD8  6AFF                     push    FFFF
  1.2ADA  6A00                     push    0000
  1.2ADC  6A00                     push    0000
  1.2ADE  6A00                     push    0000
  1.2AE0  6A00                     push    0000
  1.2AE2  6A13                     push    0013
  1.2AE4  9AF92A0000               call    USER.SETWINDOWPOS
  1.2AE9  FF7606                   push    word ptr [bp+06]
  1.2AEC  6AFE                     push    FFFE
  1.2AEE  6A00                     push    0000
  1.2AF0  6A00                     push    0000
  1.2AF2  6A00                     push    0000
  1.2AF4  6A00                     push    0000
  1.2AF6  6A13                     push    0013
  1.2AF8  9A5B250000               call    USER.SETWINDOWPOS

  1.2AFD >5E                       pop     si
  1.2AFE  5F                       pop     di
  1.2AFF  C9                       leave  
  1.2B00  CB                       retf   
  1.2B01  55                       push    bp
  1.2B02  8BEC                     mov     bp, sp
  1.2B04  B80000                   mov     ax, 0000
  1.2B07  9A1207C623               call    1:0712
  1.2B0C  57                       push    di
  1.2B0D  56                       push    si
  1.2B0E  833E5E2D00               cmp     word ptr [2D5E], 0000
  1.2B13  0F851500                 jne     2B2C
  1.2B17  FF7606                   push    word ptr [bp+06]
  1.2B1A  FF7608                   push    word ptr [bp+08]
  1.2B1D  6A00                     push    0000
  1.2B1F  6A00                     push    0000
  1.2B21  6A00                     push    0000
  1.2B23  6A00                     push    0000
  1.2B25  6A13                     push    0013
  1.2B27  9AE52A0000               call    USER.SETWINDOWPOS

  1.2B2C >5E                       pop     si
  1.2B2D  5F                       pop     di
  1.2B2E  C9                       leave  
  1.2B2F  CB                       retf   
  1.2B30  55                       push    bp
  1.2B31  8BEC                     mov     bp, sp
  1.2B33  B81A00                   mov     ax, 001A
  1.2B36  9A12071D2C               call    1:0712
  1.2B3B  57                       push    di
  1.2B3C  56                       push    si
  1.2B3D  C746EA0000               mov     word ptr [bp-16], 0000
  1.2B42  C746E80000               mov     word ptr [bp-18], 0000
  1.2B47  C746E60000               mov     word ptr [bp-1A], 0000
  1.2B4C  FF36782D                 push    word ptr [2D78]
  1.2B50  FF36782D                 push    word ptr [2D78]
  1.2B54  8B460A                   mov     ax, [bp+0A]
  1.2B57  99                       cwd    
  1.2B58  52                       push    dx
  1.2B59  50                       push    ax
  1.2B5A  6A00                     push    0000
  1.2B5C  6A02                     push    0002
  1.2B5E  9AF72D0000               call    KERNEL.FINDRESOURCE
  1.2B63  50                       push    ax
  1.2B64  9AFD2D0000               call    KERNEL.LOADRESOURCE
  1.2B69  8946EA                   mov     [bp-16], ax
  1.2B6C  50                       push    ax
  1.2B6D  9A062E0000               call    KERNEL.LOCKRESOURCE
  1.2B72  8946F4                   mov     [bp-0C], ax
  1.2B75  8956F6                   mov     [bp-0A], dx
  1.2B78  837EEA00                 cmp     word ptr [bp-16], 0000
  1.2B7C  0F850600                 jne     2B86
  1.2B80  B80000                   mov     ax, 0000
  1.2B83  E96203                   jmp     2EE8

  1.2B86 >8B5E08                   mov     bx, [bp+08]
  1.2B89  C747040000               mov     word ptr [bx+04], 0000
  1.2B8E  8B5E08                   mov     bx, [bp+08]
  1.2B91  C747060000               mov     word ptr [bx+06], 0000
  1.2B96  C45EF4                   les     bx, [bp-0C]
  1.2B99  268B4704                 mov     ax, es:[bx+04]
  1.2B9D  8B5E08                   mov     bx, [bp+08]
  1.2BA0  894708                   mov     [bx+08], ax
  1.2BA3  C45EF4                   les     bx, [bp-0C]
  1.2BA6  268B4708                 mov     ax, es:[bx+08]
  1.2BAA  8B5E08                   mov     bx, [bp+08]
  1.2BAD  89470A                   mov     [bx+0A], ax
  1.2BB0  837E0C00                 cmp     word ptr [bp+0C], 0000
  1.2BB4  0F8DC501                 jnl     2D7D
  1.2BB8  6A02                     push    0002
  1.2BBA  6A00                     push    0000
  1.2BBC  6AFF                     push    FFFF
  1.2BBE  9AEE2B0000               call    KERNEL.GLOBALALLOC
  1.2BC3  8946E8                   mov     [bp-18], ax
  1.2BC6  837EE800                 cmp     word ptr [bp-18], 0000
  1.2BCA  0F850300                 jne     2BD1
  1.2BCE  E9E102                   jmp     2EB2

  1.2BD1 >FF76E8                   push    word ptr [bp-18]
  1.2BD4  9A042C0000               call    KERNEL.GLOBALLOCK
  1.2BD9  8946F0                   mov     [bp-10], ax
  1.2BDC  8956F2                   mov     [bp-0E], dx
  1.2BDF  837E0CFF                 cmp     word ptr [bp+0C], FFFF
  1.2BE3  0F8D7F00                 jnl     2C66
  1.2BE7  6A02                     push    0002
  1.2BE9  6A00                     push    0000
  1.2BEB  6AFF                     push    FFFF
  1.2BED  9AFFFF0000               call    KERNEL.GLOBALALLOC
  1.2BF2  8946E6                   mov     [bp-1A], ax
  1.2BF5  837EE600                 cmp     word ptr [bp-1A], 0000
  1.2BF9  0F850300                 jne     2C00
  1.2BFD  E9B202                   jmp     2EB2

  1.2C00 >FF76E6                   push    word ptr [bp-1A]
  1.2C03  9AFFFF0000               call    KERNEL.GLOBALLOCK
  1.2C08  8946EC                   mov     [bp-14], ax
  1.2C0B  8956EE                   mov     [bp-12], dx
  1.2C0E  FF76EE                   push    word ptr [bp-12]
  1.2C11  FF76EC                   push    word ptr [bp-14]
  1.2C14  FF76F6                   push    word ptr [bp-0A]
  1.2C17  FF76F4                   push    word ptr [bp-0C]
  1.2C1A  9A3002382C               call    1:0230
  1.2C1F  837E0CFE                 cmp     word ptr [bp+0C], FFFE
  1.2C23  0F851900                 jne     2C40
  1.2C27  6A02                     push    0002
  1.2C29  FF76EE                   push    word ptr [bp-12]
  1.2C2C  FF76EC                   push    word ptr [bp-14]
  1.2C2F  FF76F2                   push    word ptr [bp-0E]
  1.2C32  FF76F0                   push    word ptr [bp-10]
  1.2C35  9A161A512C               call    1:1A16
  1.2C3A  83C40A                   add     sp, 000A
  1.2C3D  E91600                   jmp     2C56

  1.2C40 >6A01                     push    0001
  1.2C42  FF76EE                   push    word ptr [bp-12]
  1.2C45  FF76EC                   push    word ptr [bp-14]
  1.2C48  FF76F2                   push    word ptr [bp-0E]
  1.2C4B  FF76F0                   push    word ptr [bp-10]
  1.2C4E  9A161A752C               call    1:1A16
  1.2C53  83C40A                   add     sp, 000A

  1.2C56 >FF76E6                   push    word ptr [bp-1A]
  1.2C59  9A6E2D0000               call    KERNEL.GLOBALFREE
  1.2C5E  C746E60000               mov     word ptr [bp-1A], 0000
  1.2C63  E91100                   jmp     2C77

  1.2C66 >FF76F2                   push    word ptr [bp-0E]
  1.2C69  FF76F0                   push    word ptr [bp-10]
  1.2C6C  FF76F6                   push    word ptr [bp-0A]
  1.2C6F  FF76F4                   push    word ptr [bp-0C]
  1.2C72  9A3002802C               call    1:0230

  1.2C77 >FF76F2                   push    word ptr [bp-0E]
  1.2C7A  FF76F0                   push    word ptr [bp-10]
  1.2C7D  9A5A15A02C               call    1:155A
  1.2C82  83C404                   add     sp, 0004
  1.2C85  C45EF0                   les     bx, [bp-10]
  1.2C88  260307                   add     ax, es:[bx]
  1.2C8B  0346F0                   add     ax, [bp-10]
  1.2C8E  8B56F2                   mov     dx, [bp-0E]
  1.2C91  8946FC                   mov     [bp-04], ax
  1.2C94  8956FE                   mov     [bp-02], dx
  1.2C97  FF76F2                   push    word ptr [bp-0E]
  1.2C9A  FF76F0                   push    word ptr [bp-10]
  1.2C9D  9A4519072D               call    1:1945
  1.2CA2  83C404                   add     sp, 0004
  1.2CA5  C1E002                   shl     ax, 02
  1.2CA8  C45EF0                   les     bx, [bp-10]
  1.2CAB  260307                   add     ax, es:[bx]
  1.2CAE  0346F0                   add     ax, [bp-10]
  1.2CB1  8B56F2                   mov     dx, [bp-0E]
  1.2CB4  8946F8                   mov     [bp-08], ax
  1.2CB7  8956FA                   mov     [bp-06], dx
  1.2CBA  C45EF8                   les     bx, [bp-08]
  1.2CBD  2BC0                     sub     ax, ax
  1.2CBF  26894702                 mov     es:[bx+02], ax
  1.2CC3  268907                   mov     es:[bx], ax
  1.2CC6  FF7606                   push    word ptr [bp+06]
  1.2CC9  FF76F2                   push    word ptr [bp-0E]
  1.2CCC  FF76F0                   push    word ptr [bp-10]
  1.2CCF  6A00                     push    0000
  1.2CD1  6A04                     push    0004
  1.2CD3  FF76FE                   push    word ptr [bp-02]
  1.2CD6  FF76FC                   push    word ptr [bp-04]
  1.2CD9  FF76F2                   push    word ptr [bp-0E]
  1.2CDC  FF76F0                   push    word ptr [bp-10]
  1.2CDF  6A00                     push    0000
  1.2CE1  9A452D0000               call    GDI.CREATEDIBITMAP
  1.2CE6  8B5E08                   mov     bx, [bp+08]
  1.2CE9  8907                     mov     [bx], ax
  1.2CEB  8B5E08                   mov     bx, [bp+08]
  1.2CEE  833F00                   cmp     word ptr [bx], 0000
  1.2CF1  0F850300                 jne     2CF8
  1.2CF5  E9BA01                   jmp     2EB2

  1.2CF8 >FF76F2                   push    word ptr [bp-0E]
  1.2CFB  FF76F0                   push    word ptr [bp-10]
  1.2CFE  FF76F2                   push    word ptr [bp-0E]
  1.2D01  FF76F0                   push    word ptr [bp-10]
  1.2D04  9A1000122D               call    1:0010
  1.2D09  FF76F2                   push    word ptr [bp-0E]
  1.2D0C  FF76F0                   push    word ptr [bp-10]
  1.2D0F  9A5A15862D               call    1:155A
  1.2D14  83C404                   add     sp, 0004
  1.2D17  C45EF0                   les     bx, [bp-10]
  1.2D1A  260307                   add     ax, es:[bx]
  1.2D1D  0346F0                   add     ax, [bp-10]
  1.2D20  8B56F2                   mov     dx, [bp-0E]
  1.2D23  8946FC                   mov     [bp-04], ax
  1.2D26  8956FE                   mov     [bp-02], dx
  1.2D29  FF7606                   push    word ptr [bp+06]
  1.2D2C  FF76F2                   push    word ptr [bp-0E]
  1.2D2F  FF76F0                   push    word ptr [bp-10]
  1.2D32  6A00                     push    0000
  1.2D34  6A04                     push    0004
  1.2D36  FF76FE                   push    word ptr [bp-02]
  1.2D39  FF76FC                   push    word ptr [bp-04]
  1.2D3C  FF76F2                   push    word ptr [bp-0E]
  1.2D3F  FF76F0                   push    word ptr [bp-10]
  1.2D42  6A00                     push    0000
  1.2D44  9AB92D0000               call    GDI.CREATEDIBITMAP
  1.2D49  8B5E08                   mov     bx, [bp+08]
  1.2D4C  894702                   mov     [bx+02], ax
  1.2D4F  8B5E08                   mov     bx, [bp+08]
  1.2D52  837F0200                 cmp     word ptr [bx+02], 0000
  1.2D56  0F850300                 jne     2D5D
  1.2D5A  E95501                   jmp     2EB2

  1.2D5D >FF76EA                   push    word ptr [bp-16]
  1.2D60  9AD32D0000               call    KERNEL.FREERESOURCE
  1.2D65  C746EA0000               mov     word ptr [bp-16], 0000
  1.2D6A  FF76E8                   push    word ptr [bp-18]
  1.2D6D  9AFFFF0000               call    KERNEL.GLOBALFREE
  1.2D72  C746E80000               mov     word ptr [bp-18], 0000
  1.2D77  B80100                   mov     ax, 0001
  1.2D7A  E96B01                   jmp     2EE8

  1.2D7D >FF76F6                   push    word ptr [bp-0A]
  1.2D80  FF76F4                   push    word ptr [bp-0C]
  1.2D83  9A5A154E2E               call    1:155A
  1.2D88  83C404                   add     sp, 0004
  1.2D8B  C45EF4                   les     bx, [bp-0C]
  1.2D8E  260307                   add     ax, es:[bx]
  1.2D91  0346F4                   add     ax, [bp-0C]
  1.2D94  8B56F6                   mov     dx, [bp-0A]
  1.2D97  8946FC                   mov     [bp-04], ax
  1.2D9A  8956FE                   mov     [bp-02], dx
  1.2D9D  FF7606                   push    word ptr [bp+06]
  1.2DA0  FF76F6                   push    word ptr [bp-0A]
  1.2DA3  FF76F4                   push    word ptr [bp-0C]
  1.2DA6  6A00                     push    0000
  1.2DA8  6A04                     push    0004
  1.2DAA  FF76FE                   push    word ptr [bp-02]
  1.2DAD  FF76FC                   push    word ptr [bp-04]
  1.2DB0  FF76F6                   push    word ptr [bp-0A]
  1.2DB3  FF76F4                   push    word ptr [bp-0C]
  1.2DB6  6A00                     push    0000
  1.2DB8  9A812E0000               call    GDI.CREATEDIBITMAP
  1.2DBD  8B5E08                   mov     bx, [bp+08]
  1.2DC0  8907                     mov     [bx], ax
  1.2DC2  8B5E08                   mov     bx, [bp+08]
  1.2DC5  833F00                   cmp     word ptr [bx], 0000
  1.2DC8  0F850300                 jne     2DCF
  1.2DCC  E9E300                   jmp     2EB2

  1.2DCF >FF76EA                   push    word ptr [bp-16]
  1.2DD2  9A9D2E0000               call    KERNEL.FREERESOURCE
  1.2DD7  C746EA0000               mov     word ptr [bp-16], 0000
  1.2DDC  837E0C00                 cmp     word ptr [bp+0C], 0000
  1.2DE0  0F84C000                 je      2EA4
  1.2DE4  FF36782D                 push    word ptr [2D78]
  1.2DE8  FF36782D                 push    word ptr [2D78]
  1.2DEC  8B460C                   mov     ax, [bp+0C]
  1.2DEF  99                       cwd    
  1.2DF0  52                       push    dx
  1.2DF1  50                       push    ax
  1.2DF2  6A00                     push    0000
  1.2DF4  6A02                     push    0002
  1.2DF6  9A7D1E0000               call    KERNEL.FINDRESOURCE
  1.2DFB  50                       push    ax
  1.2DFC  9A8C1E0000               call    KERNEL.LOADRESOURCE
  1.2E01  8946EA                   mov     [bp-16], ax
  1.2E04  50                       push    ax
  1.2E05  9A951E0000               call    KERNEL.LOCKRESOURCE
  1.2E0A  8946F4                   mov     [bp-0C], ax
  1.2E0D  8956F6                   mov     [bp-0A], dx
  1.2E10  837EEA00                 cmp     word ptr [bp-16], 0000
  1.2E14  0F850300                 jne     2E1B
  1.2E18  E99700                   jmp     2EB2

  1.2E1B >8B5E08                   mov     bx, [bp+08]
  1.2E1E  C747040000               mov     word ptr [bx+04], 0000
  1.2E23  8B5E08                   mov     bx, [bp+08]
  1.2E26  C747060000               mov     word ptr [bx+06], 0000
  1.2E2B  C45EF4                   les     bx, [bp-0C]
  1.2E2E  268B4704                 mov     ax, es:[bx+04]
  1.2E32  8B5E08                   mov     bx, [bp+08]
  1.2E35  894708                   mov     [bx+08], ax
  1.2E38  C45EF4                   les     bx, [bp-0C]
  1.2E3B  268B4708                 mov     ax, es:[bx+08]
  1.2E3F  8B5E08                   mov     bx, [bp+08]
  1.2E42  89470A                   mov     [bx+0A], ax
  1.2E45  FF76F6                   push    word ptr [bp-0A]
  1.2E48  FF76F4                   push    word ptr [bp-0C]
  1.2E4B  9A5A157027               call    1:155A
  1.2E50  83C404                   add     sp, 0004
  1.2E53  C45EF4                   les     bx, [bp-0C]
  1.2E56  260307                   add     ax, es:[bx]
  1.2E59  0346F4                   add     ax, [bp-0C]
  1.2E5C  8B56F6                   mov     dx, [bp-0A]
  1.2E5F  8946FC                   mov     [bp-04], ax
  1.2E62  8956FE                   mov     [bp-02], dx
  1.2E65  FF7606                   push    word ptr [bp+06]
  1.2E68  FF76F6                   push    word ptr [bp-0A]
  1.2E6B  FF76F4                   push    word ptr [bp-0C]
  1.2E6E  6A00                     push    0000
  1.2E70  6A04                     push    0004
  1.2E72  FF76FE                   push    word ptr [bp-02]
  1.2E75  FF76FC                   push    word ptr [bp-04]
  1.2E78  FF76F6                   push    word ptr [bp-0A]
  1.2E7B  FF76F4                   push    word ptr [bp-0C]
  1.2E7E  6A00                     push    0000
  1.2E80  9AFFFF0000               call    GDI.CREATEDIBITMAP
  1.2E85  8B5E08                   mov     bx, [bp+08]
  1.2E88  894702                   mov     [bx+02], ax
  1.2E8B  8B5E08                   mov     bx, [bp+08]
  1.2E8E  837F0200                 cmp     word ptr [bx+02], 0000
  1.2E92  0F850300                 jne     2E99
  1.2E96  E91900                   jmp     2EB2

  1.2E99 >FF76EA                   push    word ptr [bp-16]
  1.2E9C  9ABE2E0000               call    KERNEL.FREERESOURCE
  1.2EA1  E90800                   jmp     2EAC

  1.2EA4 >8B5E08                   mov     bx, [bp+08]
  1.2EA7  C747020000               mov     word ptr [bx+02], 0000

  1.2EAC >B80100                   mov     ax, 0001
  1.2EAF  E93600                   jmp     2EE8

  1.2EB2 >837EEA00                 cmp     word ptr [bp-16], 0000
  1.2EB6  0F840800                 je      2EC2
  1.2EBA  FF76EA                   push    word ptr [bp-16]
  1.2EBD  9AD71E0000               call    KERNEL.FREERESOURCE

  1.2EC2 >837EE800                 cmp     word ptr [bp-18], 0000
  1.2EC6  0F840800                 je      2ED2
  1.2ECA  FF76E8                   push    word ptr [bp-18]
  1.2ECD  9ADE2E0000               call    KERNEL.GLOBALFREE

  1.2ED2 >837EE600                 cmp     word ptr [bp-1A], 0000
  1.2ED6  0F840800                 je      2EE2
  1.2EDA  FF76E6                   push    word ptr [bp-1A]
  1.2EDD  9A5A2C0000               call    KERNEL.GLOBALFREE

  1.2EE2 >B80000                   mov     ax, 0000
  1.2EE5  E90000                   jmp     2EE8

  1.2EE8 >5E                       pop     si
  1.2EE9  5F                       pop     di
  1.2EEA  C9                       leave  
  1.2EEB  CB                       retf   
  1.2EEC  55                       push    bp
  1.2EED  8BEC                     mov     bp, sp
  1.2EEF  B80000                   mov     ax, 0000
  1.2EF2  9A12073F2F               call    1:0712
  1.2EF7  57                       push    di
  1.2EF8  56                       push    si
  1.2EF9  8B5E06                   mov     bx, [bp+06]
  1.2EFC  833F00                   cmp     word ptr [bx], 0000
  1.2EFF  0F840A00                 je      2F0D
  1.2F03  8B5E06                   mov     bx, [bp+06]
  1.2F06  FF37                     push    word ptr [bx]
  1.2F08  9A1F2F0000               call    GDI.DELETEOBJECT

  1.2F0D >8B5E06                   mov     bx, [bp+06]
  1.2F10  837F0200                 cmp     word ptr [bx+02], 0000
  1.2F14  0F840B00                 je      2F23
  1.2F18  8B5E06                   mov     bx, [bp+06]
  1.2F1B  FF7702                   push    word ptr [bx+02]
  1.2F1E  9AD3250000               call    GDI.DELETEOBJECT

  1.2F23 >8B5E06                   mov     bx, [bp+06]
  1.2F26  C7070000                 mov     word ptr [bx], 0000
  1.2F2A  8B5E06                   mov     bx, [bp+06]
  1.2F2D  C747020000               mov     word ptr [bx+02], 0000
  1.2F32  5E                       pop     si
  1.2F33  5F                       pop     di
  1.2F34  C9                       leave  
  1.2F35  CB                       retf   
  1.2F36  55                       push    bp
  1.2F37  8BEC                     mov     bp, sp
  1.2F39  B80000                   mov     ax, 0000
  1.2F3C  9A1207C02F               call    1:0712
  1.2F41  57                       push    di
  1.2F42  56                       push    si
  1.2F43  C706982D0100             mov     word ptr [2D98], 0001
  1.2F49  C7065E2D0000             mov     word ptr [2D5E], 0000
  1.2F4F  C706CC230000             mov     word ptr [23CC], 0000
  1.2F55  C7067A2D0000             mov     word ptr [2D7A], 0000
  1.2F5B  1E                       push    ds
  1.2F5C  683A01                   push    013A
  1.2F5F  1E                       push    ds
  1.2F60  683401                   push    0134
  1.2F63  6A00                     push    0000
  1.2F65  1E                       push    ds
  1.2F66  682901                   push    0129
  1.2F69  9A802F0000               call    KERNEL.GETPRIVATEPROFILEINT
  1.2F6E  A37A2D                   mov     [2D7A], ax
  1.2F71  1E                       push    ds
  1.2F72  685101                   push    0151
  1.2F75  1E                       push    ds
  1.2F76  684B01                   push    014B
  1.2F79  6A00                     push    0000
  1.2F7B  1E                       push    ds
  1.2F7C  684001                   push    0140
  1.2F7F  9A962F0000               call    KERNEL.GETPRIVATEPROFILEINT
  1.2F84  A3CC23                   mov     [23CC], ax
  1.2F87  1E                       push    ds
  1.2F88  686A01                   push    016A
  1.2F8B  1E                       push    ds
  1.2F8C  686201                   push    0162
  1.2F8F  6A00                     push    0000
  1.2F91  1E                       push    ds
  1.2F92  685701                   push    0157
  1.2F95  9AAC2F0000               call    KERNEL.GETPRIVATEPROFILEINT
  1.2F9A  A3D623                   mov     [23D6], ax
  1.2F9D  1E                       push    ds
  1.2F9E  688201                   push    0182
  1.2FA1  1E                       push    ds
  1.2FA2  687B01                   push    017B
  1.2FA5  6A01                     push    0001
  1.2FA7  1E                       push    ds
  1.2FA8  687001                   push    0170
  1.2FAB  9AFFFF0000               call    KERNEL.GETPRIVATEPROFILEINT
  1.2FB0  A3622D                   mov     [2D62], ax
  1.2FB3  5E                       pop     si
  1.2FB4  5F                       pop     di
  1.2FB5  C9                       leave  
  1.2FB6  CB                       retf   
  1.2FB7  55                       push    bp
  1.2FB8  8BEC                     mov     bp, sp
  1.2FBA  B82800                   mov     ax, 0028
  1.2FBD  9A12070130               call    1:0712
  1.2FC2  57                       push    di
  1.2FC3  56                       push    si
  1.2FC4  FF760E                   push    word ptr [bp+0E]
  1.2FC7  1E                       push    ds
  1.2FC8  688801                   push    0188
  1.2FCB  8D46D8                   lea     ax, [bp-28]
  1.2FCE  16                       push    ss
  1.2FCF  50                       push    ax
  1.2FD0  9AFFFF0000               call    USER._WSPRINTF
  1.2FD5  83C40A                   add     sp, 000A
  1.2FD8  FF7608                   push    word ptr [bp+08]
  1.2FDB  FF7606                   push    word ptr [bp+06]
  1.2FDE  FF760C                   push    word ptr [bp+0C]
  1.2FE1  FF760A                   push    word ptr [bp+0A]
  1.2FE4  8D46D8                   lea     ax, [bp-28]
  1.2FE7  16                       push    ss
  1.2FE8  50                       push    ax
  1.2FE9  FF7612                   push    word ptr [bp+12]
  1.2FEC  FF7610                   push    word ptr [bp+10]
  1.2FEF  9AFFFF0000               call    KERNEL.WRITEPRIVATEPROFILESTRING
  1.2FF4  5E                       pop     si
  1.2FF5  5F                       pop     di
  1.2FF6  C9                       leave  
  1.2FF7  CB                       retf   
  1.2FF8  55                       push    bp
  1.2FF9  8BEC                     mov     bp, sp
  1.2FFB  B80000                   mov     ax, 0000
  1.2FFE  9A12071830               call    1:0712
  1.3003  57                       push    di
  1.3004  56                       push    si
  1.3005  1E                       push    ds
  1.3006  688B01                   push    018B
  1.3009  FF367A2D                 push    word ptr [2D7A]
  1.300D  1E                       push    ds
  1.300E  689601                   push    0196
  1.3011  1E                       push    ds
  1.3012  689C01                   push    019C
  1.3015  9AB72F3030               call    1:2FB7
  1.301A  83C40E                   add     sp, 000E
  1.301D  1E                       push    ds
  1.301E  68A201                   push    01A2
  1.3021  FF36CC23                 push    word ptr [23CC]
  1.3025  1E                       push    ds
  1.3026  68AD01                   push    01AD
  1.3029  1E                       push    ds
  1.302A  68B301                   push    01B3
  1.302D  9AB72F4830               call    1:2FB7
  1.3032  83C40E                   add     sp, 000E
  1.3035  1E                       push    ds
  1.3036  68B901                   push    01B9
  1.3039  FF36D623                 push    word ptr [23D6]
  1.303D  1E                       push    ds
  1.303E  68C401                   push    01C4
  1.3041  1E                       push    ds
  1.3042  68CC01                   push    01CC
  1.3045  9AB72F6030               call    1:2FB7
  1.304A  83C40E                   add     sp, 000E
  1.304D  1E                       push    ds
  1.304E  68D201                   push    01D2
  1.3051  FF36622D                 push    word ptr [2D62]
  1.3055  1E                       push    ds
  1.3056  68DD01                   push    01DD
  1.3059  1E                       push    ds
  1.305A  68E401                   push    01E4
  1.305D  9AB72F392B               call    1:2FB7
  1.3062  83C40E                   add     sp, 000E
  1.3065  5E                       pop     si
  1.3066  5F                       pop     di
  1.3067  C9                       leave  
  1.3068  CB                       retf   
  1.3069  00558B                   add     byte ptr [di-75], dl
  1.306C  EC                       in      al, dx
  1.306D  B80200                   mov     ax, 0002
  1.3070  9A12072231               call    1:0712
  1.3075  57                       push    di
  1.3076  56                       push    si
  1.3077  FF7606                   push    word ptr [bp+06]
  1.307A  9ADD320000               call    USER.GETDC
  1.307F  8946FE                   mov     [bp-02], ax
  1.3082  FF76FE                   push    word ptr [bp-02]
  1.3085  6A64                     push    0064
  1.3087  6A64                     push    0064
  1.3089  9AA5300000               call    GDI.CREATECOMPATIBLEBITMAP
  1.308E  A3D60A                   mov     [0AD6], ax
  1.3091  833ED60A00               cmp     word ptr [0AD6], 0000
  1.3096  0F850300                 jne     309D
  1.309A  E96700                   jmp     3104

  1.309D >FF76FE                   push    word ptr [bp-02]
  1.30A0  6A64                     push    0064
  1.30A2  6A64                     push    0064
  1.30A4  9AC0300000               call    GDI.CREATECOMPATIBLEBITMAP
  1.30A9  A3D80A                   mov     [0AD8], ax
  1.30AC  833ED80A00               cmp     word ptr [0AD8], 0000
  1.30B1  0F850300                 jne     30B8
  1.30B5  E94C00                   jmp     3104

  1.30B8 >FF76FE                   push    word ptr [bp-02]
  1.30BB  6A64                     push    0064
  1.30BD  6A64                     push    0064
  1.30BF  9AFFFF0000               call    GDI.CREATECOMPATIBLEBITMAP
  1.30C4  A3DA0A                   mov     [0ADA], ax
  1.30C7  833EDA0A00               cmp     word ptr [0ADA], 0000
  1.30CC  0F850300                 jne     30D3
  1.30D0  E93100                   jmp     3104

  1.30D3 >C7066C2D0000             mov     word ptr [2D6C], 0000
  1.30D9  C7066E2D0000             mov     word ptr [2D6E], 0000
  1.30DF  6A00                     push    0000
  1.30E1  9AEC300000               call    USER.GETSYSTEMMETRICS
  1.30E6  A3702D                   mov     [2D70], ax
  1.30E9  6A01                     push    0001
  1.30EB  9AFFFF0000               call    USER.GETSYSTEMMETRICS
  1.30F0  A3722D                   mov     [2D72], ax
  1.30F3  FF7606                   push    word ptr [bp+06]
  1.30F6  FF76FE                   push    word ptr [bp-02]
  1.30F9  9A0B310000               call    USER.RELEASEDC
  1.30FE  B80100                   mov     ax, 0001
  1.3101  E91100                   jmp     3115

  1.3104 >FF7606                   push    word ptr [bp+06]
  1.3107  FF76FE                   push    word ptr [bp-02]
  1.310A  9A1C1F0000               call    USER.RELEASEDC
  1.310F  B80000                   mov     ax, 0000
  1.3112  E90000                   jmp     3115

  1.3115 >5E                       pop     si
  1.3116  5F                       pop     di
  1.3117  C9                       leave  
  1.3118  CB                       retf   
  1.3119  55                       push    bp
  1.311A  8BEC                     mov     bp, sp
  1.311C  B80000                   mov     ax, 0000
  1.311F  9A1207B131               call    1:0712
  1.3124  57                       push    di
  1.3125  56                       push    si
  1.3126  FF36D60A                 push    word ptr [0AD6]
  1.312A  9A34310000               call    GDI.DELETEOBJECT
  1.312F  FF36D80A                 push    word ptr [0AD8]
  1.3133  9A3D310000               call    GDI.DELETEOBJECT
  1.3138  FF36DA0A                 push    word ptr [0ADA]
  1.313C  9A4F310000               call    GDI.DELETEOBJECT
  1.3141  833ED42300               cmp     word ptr [23D4], 0000
  1.3146  0F840F00                 je      3159
  1.314A  FF36D423                 push    word ptr [23D4]
  1.314E  9A67310000               call    GDI.DELETEOBJECT
  1.3153  C706D4230000             mov     word ptr [23D4], 0000

  1.3159 >833E642D00               cmp     word ptr [2D64], 0000
  1.315E  0F840F00                 je      3171
  1.3162  FF36642D                 push    word ptr [2D64]
  1.3166  9A7F310000               call    GDI.DELETEOBJECT
  1.316B  C706642D0000             mov     word ptr [2D64], 0000

  1.3171 >833ED22300               cmp     word ptr [23D2], 0000
  1.3176  0F840F00                 je      3189
  1.317A  FF36D223                 push    word ptr [23D2]
  1.317E  9A97310000               call    GDI.DELETEOBJECT
  1.3183  C706D2230000             mov     word ptr [23D2], 0000

  1.3189 >833ED82300               cmp     word ptr [23D8], 0000
  1.318E  0F840F00                 je      31A1
  1.3192  FF36D823                 push    word ptr [23D8]
  1.3196  9A092F0000               call    GDI.DELETEOBJECT
  1.319B  C706D8230000             mov     word ptr [23D8], 0000

  1.31A1 >E90000                   jmp     31A4

  1.31A4 >5E                       pop     si
  1.31A5  5F                       pop     di
  1.31A6  C9                       leave  
  1.31A7  CB                       retf   
  1.31A8  55                       push    bp
  1.31A9  8BEC                     mov     bp, sp
  1.31AB  B80000                   mov     ax, 0000
  1.31AE  9A12074032               call    1:0712
  1.31B3  57                       push    di
  1.31B4  56                       push    si
  1.31B5  8B4606                   mov     ax, [bp+06]
  1.31B8  A3FA0A                   mov     [0AFA], ax
  1.31BB  8B4608                   mov     ax, [bp+08]
  1.31BE  A3FC0A                   mov     [0AFC], ax
  1.31C1  8B5E0A                   mov     bx, [bp+0A]
  1.31C4  8BC3                     mov     ax, bx
  1.31C6  D1E3                     shl     bx, 1
  1.31C8  03D8                     add     bx, ax
  1.31CA  C1E302                   shl     bx, 02
  1.31CD  8B87C20B                 mov     ax, [bx+0BC2]
  1.31D1  A3DC0A                   mov     [0ADC], ax
  1.31D4  8B5E0A                   mov     bx, [bp+0A]
  1.31D7  8BC3                     mov     ax, bx
  1.31D9  D1E3                     shl     bx, 1
  1.31DB  03D8                     add     bx, ax
  1.31DD  C1E302                   shl     bx, 02
  1.31E0  8B87C40B                 mov     ax, [bx+0BC4]
  1.31E4  A3DE0A                   mov     [0ADE], ax
  1.31E7  8B5E0A                   mov     bx, [bp+0A]
  1.31EA  8BC3                     mov     ax, bx
  1.31EC  D1E3                     shl     bx, 1
  1.31EE  03D8                     add     bx, ax
  1.31F0  C1E302                   shl     bx, 02
  1.31F3  8B87C60B                 mov     ax, [bx+0BC6]
  1.31F7  A3E00A                   mov     [0AE0], ax
  1.31FA  8B5E0A                   mov     bx, [bp+0A]
  1.31FD  8BC3                     mov     ax, bx
  1.31FF  D1E3                     shl     bx, 1
  1.3201  03D8                     add     bx, ax
  1.3203  C1E302                   shl     bx, 02
  1.3206  8B87C80B                 mov     ax, [bx+0BC8]
  1.320A  A3E20A                   mov     [0AE2], ax
  1.320D  8B5E0A                   mov     bx, [bp+0A]
  1.3210  8BC3                     mov     ax, bx
  1.3212  D1E3                     shl     bx, 1
  1.3214  03D8                     add     bx, ax
  1.3216  C1E302                   shl     bx, 02
  1.3219  8B87CA0B                 mov     ax, [bx+0BCA]
  1.321D  A3FE0A                   mov     [0AFE], ax
  1.3220  8B5E0A                   mov     bx, [bp+0A]
  1.3223  8BC3                     mov     ax, bx
  1.3225  D1E3                     shl     bx, 1
  1.3227  03D8                     add     bx, ax
  1.3229  C1E302                   shl     bx, 02
  1.322C  8B87CC0B                 mov     ax, [bx+0BCC]
  1.3230  A3000B                   mov     [0B00], ax
  1.3233  5E                       pop     si
  1.3234  5F                       pop     di
  1.3235  C9                       leave  
  1.3236  CB                       retf   
  1.3237  55                       push    bp
  1.3238  8BEC                     mov     bp, sp
  1.323A  B80000                   mov     ax, 0000
  1.323D  9A12078D32               call    1:0712
  1.3242  57                       push    di
  1.3243  56                       push    si
  1.3244  C706120B0000             mov     word ptr [0B12], 0000
  1.324A  C706140B0000             mov     word ptr [0B14], 0000
  1.3250  C706160B0000             mov     word ptr [0B16], 0000
  1.3256  C706180B0000             mov     word ptr [0B18], 0000
  1.325C  FF7606                   push    word ptr [bp+06]
  1.325F  6A00                     push    0000
  1.3261  6A00                     push    0000
  1.3263  6A00                     push    0000
  1.3265  6A00                     push    0000
  1.3267  6A01                     push    0001
  1.3269  9AFFFF0000               call    USER.MOVEWINDOW
  1.326E  C706F40A0100             mov     word ptr [0AF4], 0001
  1.3274  C706DA230100             mov     word ptr [23DA], 0001
  1.327A  C706F80A0000             mov     word ptr [0AF8], 0000
  1.3280  5E                       pop     si
  1.3281  5F                       pop     di
  1.3282  C9                       leave  
  1.3283  CB                       retf   
  1.3284  55                       push    bp
  1.3285  8BEC                     mov     bp, sp
  1.3287  B81E00                   mov     ax, 001E
  1.328A  9A1207F52E               call    1:0712
  1.328F  57                       push    di
  1.3290  56                       push    si
  1.3291  833EF20A00               cmp     word ptr [0AF2], 0000
  1.3296  0F840300                 je      329D
  1.329A  E97604                   jmp     3713

  1.329D >A1FA0A                   mov     ax, [0AFA]
  1.32A0  3906120B                 cmp     [0B12], ax
  1.32A4  0F852D00                 jne     32D5
  1.32A8  A1FC0A                   mov     ax, [0AFC]
  1.32AB  3906140B                 cmp     [0B14], ax
  1.32AF  0F852200                 jne     32D5
  1.32B3  A1DC0A                   mov     ax, [0ADC]
  1.32B6  3906F80A                 cmp     [0AF8], ax
  1.32BA  0F851700                 jne     32D5
  1.32BE  A1E00A                   mov     ax, [0AE0]
  1.32C1  3906E80A                 cmp     [0AE8], ax
  1.32C5  0F850C00                 jne     32D5
  1.32C9  833E922D00               cmp     word ptr [2D92], 0000
  1.32CE  0F850300                 jne     32D5
  1.32D2  E93E04                   jmp     3713

  1.32D5 >8336F00A01               xor     word ptr [0AF0], 0001
  1.32DA  6A00                     push    0000
  1.32DC  9A691E0000               call    USER.GETDC
  1.32E1  8946FE                   mov     [bp-02], ax
  1.32E4  FF76FE                   push    word ptr [bp-02]
  1.32E7  FF366A2D                 push    word ptr [2D6A]
  1.32EB  6A00                     push    0000
  1.32ED  9A12330000               call    USER.SELECTPALETTE
  1.32F2  FF76FE                   push    word ptr [bp-02]
  1.32F5  9A01330000               call    GDI.CREATECOMPATIBLEDC
  1.32FA  8946FC                   mov     [bp-04], ax
  1.32FD  FF76FE                   push    word ptr [bp-02]
  1.3300  9AFFFF0000               call    GDI.CREATECOMPATIBLEDC
  1.3305  8946FA                   mov     [bp-06], ax
  1.3308  FF76FA                   push    word ptr [bp-06]
  1.330B  FF366A2D                 push    word ptr [2D6A]
  1.330F  6A00                     push    0000
  1.3311  9A20330000               call    USER.SELECTPALETTE
  1.3316  FF76FC                   push    word ptr [bp-04]
  1.3319  FF366A2D                 push    word ptr [2D6A]
  1.331D  6A00                     push    0000
  1.331F  9AE51E0000               call    USER.SELECTPALETTE
  1.3324  A1120B                   mov     ax, [0B12]
  1.3327  3B06FA0A                 cmp     ax, [0AFA]
  1.332B  0F8D0300                 jnl     3332
  1.332F  A1FA0A                   mov     ax, [0AFA]

  1.3332 >8946EA                   mov     [bp-16], ax
  1.3335  A1140B                   mov     ax, [0B14]
  1.3338  3B06FC0A                 cmp     ax, [0AFC]
  1.333C  0F8D0300                 jnl     3343
  1.3340  A1FC0A                   mov     ax, [0AFC]

  1.3343 >8946EC                   mov     [bp-14], ax
  1.3346  A1160B                   mov     ax, [0B16]
  1.3349  0306120B                 add     ax, [0B12]
  1.334D  8B0EFE0A                 mov     cx, [0AFE]
  1.3351  030EFA0A                 add     cx, [0AFA]
  1.3355  3BC1                     cmp     ax, cx
  1.3357  0F8E0200                 jle     335D
  1.335B  8BC1                     mov     ax, cx

  1.335D >2B46EA                   sub     ax, [bp-16]
  1.3360  8946EE                   mov     [bp-12], ax
  1.3363  A1140B                   mov     ax, [0B14]
  1.3366  0306180B                 add     ax, [0B18]
  1.336A  8B0EFC0A                 mov     cx, [0AFC]
  1.336E  030E000B                 add     cx, [0B00]
  1.3372  3BC1                     cmp     ax, cx
  1.3374  0F8E0200                 jle     337A
  1.3378  8BC1                     mov     ax, cx

  1.337A >2B46EC                   sub     ax, [bp-14]
  1.337D  8946F0                   mov     [bp-10], ax
  1.3380  837EEE00                 cmp     word ptr [bp-12], 0000
  1.3384  0F8E0800                 jle     3390
  1.3388  837EF000                 cmp     word ptr [bp-10], 0000
  1.338C  0F8F6600                 jg      33F6

  1.3390 >C7061A0B0100             mov     word ptr [0B1A], 0001
  1.3396  833EF40A00               cmp     word ptr [0AF4], 0000
  1.339B  0F840600                 je      33A5
  1.339F  C706F40A0000             mov     word ptr [0AF4], 0000

  1.33A5 >A1FA0A                   mov     ax, [0AFA]
  1.33A8  A3020B                   mov     [0B02], ax
  1.33AB  A1FC0A                   mov     ax, [0AFC]
  1.33AE  A3040B                   mov     [0B04], ax
  1.33B1  A1FE0A                   mov     ax, [0AFE]
  1.33B4  A3060B                   mov     [0B06], ax
  1.33B7  A1000B                   mov     ax, [0B00]
  1.33BA  A3080B                   mov     [0B08], ax
  1.33BD  FF76FC                   push    word ptr [bp-04]
  1.33C0  8B1EF00A                 mov     bx, [0AF0]
  1.33C4  D1E3                     shl     bx, 1
  1.33C6  FFB7D60A                 push    word ptr [bx+0AD6]
  1.33CA  9AFFFF0000               call    GDI.SELECTOBJECT
  1.33CF  FF76FC                   push    word ptr [bp-04]
  1.33D2  6A00                     push    0000
  1.33D4  6A00                     push    0000
  1.33D6  FF36060B                 push    word ptr [0B06]
  1.33DA  FF36080B                 push    word ptr [0B08]
  1.33DE  FF76FE                   push    word ptr [bp-02]
  1.33E1  FF36020B                 push    word ptr [0B02]
  1.33E5  FF36040B                 push    word ptr [0B04]
  1.33E9  68CC00                   push    00CC
  1.33EC  6A20                     push    0020
  1.33EE  9AFFFF0000               call    GDI.BITBLT
  1.33F3  E99001                   jmp     3586

  1.33F6 >C7061A0B0000             mov     word ptr [0B1A], 0000
  1.33FC  A1120B                   mov     ax, [0B12]
  1.33FF  3B06FA0A                 cmp     ax, [0AFA]
  1.3403  0F8E0300                 jle     340A
  1.3407  A1FA0A                   mov     ax, [0AFA]

  1.340A >A3020B                   mov     [0B02], ax
  1.340D  A1140B                   mov     ax, [0B14]
  1.3410  3B06FC0A                 cmp     ax, [0AFC]
  1.3414  0F8E0300                 jle     341B
  1.3418  A1FC0A                   mov     ax, [0AFC]

  1.341B >A3040B                   mov     [0B04], ax
  1.341E  A1160B                   mov     ax, [0B16]
  1.3421  0306120B                 add     ax, [0B12]
  1.3425  8B0EFE0A                 mov     cx, [0AFE]
  1.3429  030EFA0A                 add     cx, [0AFA]
  1.342D  3BC1                     cmp     ax, cx
  1.342F  0F8D0200                 jnl     3435
  1.3433  8BC1                     mov     ax, cx

  1.3435 >2B06020B                 sub     ax, [0B02]
  1.3439  A3060B                   mov     [0B06], ax
  1.343C  A1140B                   mov     ax, [0B14]
  1.343F  0306180B                 add     ax, [0B18]
  1.3443  8B0EFC0A                 mov     cx, [0AFC]
  1.3447  030E000B                 add     cx, [0B00]
  1.344B  3BC1                     cmp     ax, cx
  1.344D  0F8D0200                 jnl     3453
  1.3451  8BC1                     mov     ax, cx

  1.3453 >2B06040B                 sub     ax, [0B04]
  1.3457  A3080B                   mov     [0B08], ax
  1.345A  FF76FC                   push    word ptr [bp-04]
  1.345D  8B1EF00A                 mov     bx, [0AF0]
  1.3461  D1E3                     shl     bx, 1
  1.3463  FFB7D60A                 push    word ptr [bx+0AD6]
  1.3467  9A60350000               call    GDI.SELECTOBJECT
  1.346C  FF76FC                   push    word ptr [bp-04]
  1.346F  6A00                     push    0000
  1.3471  6A00                     push    0000
  1.3473  FF36060B                 push    word ptr [0B06]
  1.3477  FF36080B                 push    word ptr [0B08]
  1.347B  FF76FE                   push    word ptr [bp-02]
  1.347E  FF36020B                 push    word ptr [0B02]
  1.3482  FF36040B                 push    word ptr [0B04]
  1.3486  68CC00                   push    00CC
  1.3489  6A20                     push    0020
  1.348B  9A82350000               call    GDI.BITBLT
  1.3490  A10A0B                   mov     ax, [0B0A]
  1.3493  3B06020B                 cmp     ax, [0B02]
  1.3497  0F8D0300                 jnl     349E
  1.349B  A1020B                   mov     ax, [0B02]

  1.349E >8946E2                   mov     [bp-1E], ax
  1.34A1  A10C0B                   mov     ax, [0B0C]
  1.34A4  3B06040B                 cmp     ax, [0B04]
  1.34A8  0F8D0300                 jnl     34AF
  1.34AC  A1040B                   mov     ax, [0B04]

  1.34AF >8946E4                   mov     [bp-1C], ax
  1.34B2  A10E0B                   mov     ax, [0B0E]
  1.34B5  03060A0B                 add     ax, [0B0A]
  1.34B9  8B0E060B                 mov     cx, [0B06]
  1.34BD  030E020B                 add     cx, [0B02]
  1.34C1  3BC1                     cmp     ax, cx
  1.34C3  0F8E0200                 jle     34C9
  1.34C7  8BC1                     mov     ax, cx

  1.34C9 >2B46E2                   sub     ax, [bp-1E]
  1.34CC  8946E6                   mov     [bp-1A], ax
  1.34CF  A10C0B                   mov     ax, [0B0C]
  1.34D2  0306100B                 add     ax, [0B10]
  1.34D6  8B0E040B                 mov     cx, [0B04]
  1.34DA  030E080B                 add     cx, [0B08]
  1.34DE  3BC1                     cmp     ax, cx
  1.34E0  0F8E0200                 jle     34E6
  1.34E4  8BC1                     mov     ax, cx

  1.34E6 >2B46E4                   sub     ax, [bp-1C]
  1.34E9  8946E8                   mov     [bp-18], ax
  1.34EC  8B46E2                   mov     ax, [bp-1E]
  1.34EF  2B06020B                 sub     ax, [0B02]
  1.34F3  3D0000                   cmp     ax, 0000
  1.34F6  0F8D0300                 jnl     34FD
  1.34FA  B80000                   mov     ax, 0000

  1.34FD >8946EA                   mov     [bp-16], ax
  1.3500  8B46E4                   mov     ax, [bp-1C]
  1.3503  2B06040B                 sub     ax, [0B04]
  1.3507  3D0000                   cmp     ax, 0000
  1.350A  0F8D0300                 jnl     3511
  1.350E  B80000                   mov     ax, 0000

  1.3511 >8946EC                   mov     [bp-14], ax
  1.3514  8B46E2                   mov     ax, [bp-1E]
  1.3517  2B060A0B                 sub     ax, [0B0A]
  1.351B  3D0000                   cmp     ax, 0000
  1.351E  0F8D0300                 jnl     3525
  1.3522  B80000                   mov     ax, 0000

  1.3525 >8946F2                   mov     [bp-0E], ax
  1.3528  8B46E4                   mov     ax, [bp-1C]
  1.352B  2B060C0B                 sub     ax, [0B0C]
  1.352F  3D0000                   cmp     ax, 0000
  1.3532  0F8D0300                 jnl     3539
  1.3536  B80000                   mov     ax, 0000

  1.3539 >8946F4                   mov     [bp-0C], ax
  1.353C  837EE600                 cmp     word ptr [bp-1A], 0000
  1.3540  0F8E4200                 jle     3586
  1.3544  837EE800                 cmp     word ptr [bp-18], 0000
  1.3548  0F8E3A00                 jle     3586
  1.354C  FF76FA                   push    word ptr [bp-06]
  1.354F  8A1EF00A                 mov     bl, byte ptr [0AF0]
  1.3553  80EBFF                   sub     bl, FF
  1.3556  83E301                   and     bx, 0001
  1.3559  D1E3                     shl     bx, 1
  1.355B  FFB7D60A                 push    word ptr [bx+0AD6]
  1.355F  9A97350000               call    GDI.SELECTOBJECT
  1.3564  FF76FC                   push    word ptr [bp-04]
  1.3567  FF76EA                   push    word ptr [bp-16]
  1.356A  FF76EC                   push    word ptr [bp-14]
  1.356D  FF76E6                   push    word ptr [bp-1A]
  1.3570  FF76E8                   push    word ptr [bp-18]
  1.3573  FF76FA                   push    word ptr [bp-06]
  1.3576  FF76F2                   push    word ptr [bp-0E]
  1.3579  FF76F4                   push    word ptr [bp-0C]
  1.357C  68CC00                   push    00CC
  1.357F  6A20                     push    0020
  1.3581  9AB7350000               call    GDI.BITBLT

  1.3586 >833EDC0A00               cmp     word ptr [0ADC], 0000
  1.358B  0F842801                 je      36B7
  1.358F  FF76FA                   push    word ptr [bp-06]
  1.3592  FF36DA0A                 push    word ptr [0ADA]
  1.3596  9AF4350000               call    GDI.SELECTOBJECT
  1.359B  FF76FA                   push    word ptr [bp-06]
  1.359E  6A00                     push    0000
  1.35A0  6A00                     push    0000
  1.35A2  FF36060B                 push    word ptr [0B06]
  1.35A6  FF36080B                 push    word ptr [0B08]
  1.35AA  FF76FC                   push    word ptr [bp-04]
  1.35AD  6A00                     push    0000
  1.35AF  6A00                     push    0000
  1.35B1  68CC00                   push    00CC
  1.35B4  6A20                     push    0020
  1.35B6  9A1B360000               call    GDI.BITBLT
  1.35BB  A1FA0A                   mov     ax, [0AFA]
  1.35BE  2B06020B                 sub     ax, [0B02]
  1.35C2  3D0000                   cmp     ax, 0000
  1.35C5  0F8D0300                 jnl     35CC
  1.35C9  B80000                   mov     ax, 0000

  1.35CC >8946EA                   mov     [bp-16], ax
  1.35CF  A1FC0A                   mov     ax, [0AFC]
  1.35D2  2B06040B                 sub     ax, [0B04]
  1.35D6  3D0000                   cmp     ax, 0000
  1.35D9  0F8D0300                 jnl     35E0
  1.35DD  B80000                   mov     ax, 0000

  1.35E0 >8946EC                   mov     [bp-14], ax
  1.35E3  833EDE0A00               cmp     word ptr [0ADE], 0000
  1.35E8  0F846900                 je      3655
  1.35EC  FF76FC                   push    word ptr [bp-04]
  1.35EF  FF36DE0A                 push    word ptr [0ADE]
  1.35F3  9A27360000               call    GDI.SELECTOBJECT
  1.35F8  FF76FA                   push    word ptr [bp-06]
  1.35FB  FF76EA                   push    word ptr [bp-16]
  1.35FE  FF76EC                   push    word ptr [bp-14]
  1.3601  FF36FE0A                 push    word ptr [0AFE]
  1.3605  FF36000B                 push    word ptr [0B00]
  1.3609  FF76FC                   push    word ptr [bp-04]
  1.360C  FF36E00A                 push    word ptr [0AE0]
  1.3610  FF36E20A                 push    word ptr [0AE2]
  1.3614  688800                   push    0088
  1.3617  68C600                   push    00C6
  1.361A  9A4E360000               call    GDI.BITBLT
  1.361F  FF76FC                   push    word ptr [bp-04]
  1.3622  FF36DC0A                 push    word ptr [0ADC]
  1.3626  9A5D360000               call    GDI.SELECTOBJECT
  1.362B  FF76FA                   push    word ptr [bp-06]
  1.362E  FF76EA                   push    word ptr [bp-16]
  1.3631  FF76EC                   push    word ptr [bp-14]
  1.3634  FF36FE0A                 push    word ptr [0AFE]
  1.3638  FF36000B                 push    word ptr [0B00]
  1.363C  FF76FC                   push    word ptr [bp-04]
  1.363F  FF36E00A                 push    word ptr [0AE0]
  1.3643  FF36E20A                 push    word ptr [0AE2]
  1.3647  68EE00                   push    00EE
  1.364A  688600                   push    0086
  1.364D  9A83360000               call    GDI.BITBLT
  1.3652  E93200                   jmp     3687

  1.3655 >FF76FC                   push    word ptr [bp-04]
  1.3658  FF36DC0A                 push    word ptr [0ADC]
  1.365C  9A78370000               call    GDI.SELECTOBJECT
  1.3661  FF76FA                   push    word ptr [bp-06]
  1.3664  FF76EA                   push    word ptr [bp-16]
  1.3667  FF76EC                   push    word ptr [bp-14]
  1.366A  FF36FE0A                 push    word ptr [0AFE]
  1.366E  FF36000B                 push    word ptr [0B00]
  1.3672  FF76FC                   push    word ptr [bp-04]
  1.3675  FF36E00A                 push    word ptr [0AE0]
  1.3679  FF36E20A                 push    word ptr [0AE2]
  1.367D  68CC00                   push    00CC
  1.3680  6A20                     push    0020
  1.3682  9A98370000               call    GDI.BITBLT

  1.3687 >C706F20A0100             mov     word ptr [0AF2], 0001
  1.368D  C7067E2D0100             mov     word ptr [2D7E], 0001
  1.3693  FF7606                   push    word ptr [bp+06]
  1.3696  FF36020B                 push    word ptr [0B02]
  1.369A  FF36040B                 push    word ptr [0B04]
  1.369E  FF36060B                 push    word ptr [0B06]
  1.36A2  A1080B                   mov     ax, [0B08]
  1.36A5  0306922D                 add     ax, [2D92]
  1.36A9  50                       push    ax
  1.36AA  6A01                     push    0001
  1.36AC  9A6A320000               call    USER.MOVEWINDOW
  1.36B1  C7067E2D0000             mov     word ptr [2D7E], 0000

  1.36B7 >FF76FC                   push    word ptr [bp-04]
  1.36BA  9AC3360000               call    GDI.DELETEDC
  1.36BF  FF76FA                   push    word ptr [bp-06]
  1.36C2  9AFFFF0000               call    GDI.DELETEDC
  1.36C7  A1020B                   mov     ax, [0B02]
  1.36CA  A30A0B                   mov     [0B0A], ax
  1.36CD  A1040B                   mov     ax, [0B04]
  1.36D0  A30C0B                   mov     [0B0C], ax
  1.36D3  A1060B                   mov     ax, [0B06]
  1.36D6  A30E0B                   mov     [0B0E], ax
  1.36D9  A1080B                   mov     ax, [0B08]
  1.36DC  A3100B                   mov     [0B10], ax
  1.36DF  A1FA0A                   mov     ax, [0AFA]
  1.36E2  A3120B                   mov     [0B12], ax
  1.36E5  A1FC0A                   mov     ax, [0AFC]
  1.36E8  A3140B                   mov     [0B14], ax
  1.36EB  A1FE0A                   mov     ax, [0AFE]
  1.36EE  A3160B                   mov     [0B16], ax
  1.36F1  A1000B                   mov     ax, [0B00]
  1.36F4  A3180B                   mov     [0B18], ax
  1.36F7  A1DC0A                   mov     ax, [0ADC]
  1.36FA  A3F80A                   mov     [0AF8], ax
  1.36FD  A1E00A                   mov     ax, [0AE0]
  1.3700  A3E80A                   mov     [0AE8], ax
  1.3703  A1E20A                   mov     ax, [0AE2]
  1.3706  A3EA0A                   mov     [0AEA], ax
  1.3709  6A00                     push    0000
  1.370B  FF76FE                   push    word ptr [bp-02]
  1.370E  9AFA300000               call    USER.RELEASEDC

  1.3713 >5E                       pop     si
  1.3714  5F                       pop     di
  1.3715  C9                       leave  
  1.3716  CB                       retf   
  1.3717  55                       push    bp
  1.3718  8BEC                     mov     bp, sp
  1.371A  B80E00                   mov     ax, 000E
  1.371D  9A12077330               call    1:0712
  1.3722  57                       push    di
  1.3723  56                       push    si
  1.3724  833EF20A00               cmp     word ptr [0AF2], 0000
  1.3729  0F850300                 jne     3730
  1.372D  E96902                   jmp     3999

  1.3730 >C706F20A0000             mov     word ptr [0AF2], 0000
  1.3736  FF7606                   push    word ptr [bp+06]
  1.3739  9A7B300000               call    USER.GETDC
  1.373E  8946FE                   mov     [bp-02], ax
  1.3741  FF76FE                   push    word ptr [bp-02]
  1.3744  FF366A2D                 push    word ptr [2D6A]
  1.3748  6A00                     push    0000
  1.374A  9A6C370000               call    USER.SELECTPALETTE
  1.374F  FF76FE                   push    word ptr [bp-02]
  1.3752  9AED1E0000               call    USER.REALIZEPALETTE
  1.3757  FF76FE                   push    word ptr [bp-02]
  1.375A  9AF6320000               call    GDI.CREATECOMPATIBLEDC
  1.375F  8946FC                   mov     [bp-04], ax
  1.3762  FF76FC                   push    word ptr [bp-04]
  1.3765  FF366A2D                 push    word ptr [2D6A]
  1.3769  6A00                     push    0000
  1.376B  9AEE320000               call    USER.SELECTPALETTE
  1.3770  FF76FC                   push    word ptr [bp-04]
  1.3773  FF36DA0A                 push    word ptr [0ADA]
  1.3777  9ACB330000               call    GDI.SELECTOBJECT
  1.377C  FF76FE                   push    word ptr [bp-02]
  1.377F  6A00                     push    0000
  1.3781  6A00                     push    0000
  1.3783  FF36060B                 push    word ptr [0B06]
  1.3787  FF36080B                 push    word ptr [0B08]
  1.378B  FF76FC                   push    word ptr [bp-04]
  1.378E  6A00                     push    0000
  1.3790  6A00                     push    0000
  1.3792  68CC00                   push    00CC
  1.3795  6A20                     push    0020
  1.3797  9AEF330000               call    GDI.BITBLT
  1.379C  833E922D00               cmp     word ptr [2D92], 0000
  1.37A1  0F847001                 je      3915
  1.37A5  833ED82300               cmp     word ptr [23D8], 0000
  1.37AA  0F852600                 jne     37D4
  1.37AE  FF76FE                   push    word ptr [bp-02]
  1.37B1  6A28                     push    0028
  1.37B3  A1722D                   mov     ax, [2D72]
  1.37B6  C1E002                   shl     ax, 02
  1.37B9  B90500                   mov     cx, 0005
  1.37BC  99                       cwd    
  1.37BD  F7F9                     idiv    cx
  1.37BF  50                       push    ax
  1.37C0  9A8A300000               call    GDI.CREATECOMPATIBLEBITMAP
  1.37C5  A3D823                   mov     [23D8], ax
  1.37C8  833ED82300               cmp     word ptr [23D8], 0000
  1.37CD  0F850300                 jne     37D4
  1.37D1  E9B701                   jmp     398B

  1.37D4 >833ED22300               cmp     word ptr [23D2], 0000
  1.37D9  0F852600                 jne     3803
  1.37DD  FF76FE                   push    word ptr [bp-02]
  1.37E0  6A28                     push    0028
  1.37E2  A1722D                   mov     ax, [2D72]
  1.37E5  C1E002                   shl     ax, 02
  1.37E8  B90500                   mov     cx, 0005
  1.37EB  99                       cwd    
  1.37EC  F7F9                     idiv    cx
  1.37EE  50                       push    ax
  1.37EF  9AC1370000               call    GDI.CREATECOMPATIBLEBITMAP
  1.37F4  A3D223                   mov     [23D2], ax
  1.37F7  833ED22300               cmp     word ptr [23D2], 0000
  1.37FC  0F850300                 jne     3803
  1.3800  E98801                   jmp     398B

  1.3803 >833E642D00               cmp     word ptr [2D64], 0000
  1.3808  0F850C00                 jne     3818
  1.380C  6A00                     push    0000
  1.380E  6AFF                     push    FFFF
  1.3810  9A27380000               call    GDI.CREATESOLIDBRUSH
  1.3815  A3642D                   mov     [2D64], ax

  1.3818 >833ED42300               cmp     word ptr [23D4], 0000
  1.381D  0F850D00                 jne     382E
  1.3821  6A00                     push    0000
  1.3823  688080                   push    8080
  1.3826  9AFFFF0000               call    GDI.CREATESOLIDBRUSH
  1.382B  A3D423                   mov     [23D4], ax

  1.382E >FF76FE                   push    word ptr [bp-02]
  1.3831  9A5B370000               call    GDI.CREATECOMPATIBLEDC
  1.3836  8946F2                   mov     [bp-0E], ax
  1.3839  FF76F2                   push    word ptr [bp-0E]
  1.383C  FF36D223                 push    word ptr [23D2]
  1.3840  9A80380000               call    GDI.SELECTOBJECT
  1.3845  FF76F2                   push    word ptr [bp-0E]
  1.3848  6A00                     push    0000
  1.384A  6A00                     push    0000
  1.384C  6A28                     push    0028
  1.384E  FF36922D                 push    word ptr [2D92]
  1.3852  FF76FE                   push    word ptr [bp-02]
  1.3855  6A00                     push    0000
  1.3857  6A28                     push    0028
  1.3859  68CC00                   push    00CC
  1.385C  6A20                     push    0020
  1.385E  9AB0380000               call    GDI.BITBLT
  1.3863  C746F40000               mov     word ptr [bp-0C], 0000
  1.3868  C746F60000               mov     word ptr [bp-0A], 0000
  1.386D  C746F82800               mov     word ptr [bp-08], 0028
  1.3872  A1922D                   mov     ax, [2D92]
  1.3875  8946FA                   mov     [bp-06], ax
  1.3878  FF76FC                   push    word ptr [bp-04]
  1.387B  FF36D823                 push    word ptr [23D8]
  1.387F  9A68340000               call    GDI.SELECTOBJECT
  1.3884  FF76FC                   push    word ptr [bp-04]
  1.3887  8D46F4                   lea     ax, [bp-0C]
  1.388A  16                       push    ss
  1.388B  50                       push    ax
  1.388C  FF36642D                 push    word ptr [2D64]
  1.3890  9AC1380000               call    USER.FILLRECT
  1.3895  FF76F2                   push    word ptr [bp-0E]
  1.3898  6A00                     push    0000
  1.389A  6A00                     push    0000
  1.389C  6A28                     push    0028
  1.389E  FF36922D                 push    word ptr [2D92]
  1.38A2  FF76FC                   push    word ptr [bp-04]
  1.38A5  6A00                     push    0000
  1.38A7  6A00                     push    0000
  1.38A9  688800                   push    0088
  1.38AC  68C600                   push    00C6
  1.38AF  9AE0380000               call    GDI.BITBLT
  1.38B4  FF76FC                   push    word ptr [bp-04]
  1.38B7  8D46F4                   lea     ax, [bp-0C]
  1.38BA  16                       push    ss
  1.38BB  50                       push    ax
  1.38BC  FF36D423                 push    word ptr [23D4]
  1.38C0  9AFFFF0000               call    USER.FILLRECT
  1.38C5  FF76F2                   push    word ptr [bp-0E]
  1.38C8  6A00                     push    0000
  1.38CA  6A00                     push    0000
  1.38CC  6A28                     push    0028
  1.38CE  FF36922D                 push    word ptr [2D92]
  1.38D2  FF76FC                   push    word ptr [bp-04]
  1.38D5  6A00                     push    0000
  1.38D7  6A00                     push    0000
  1.38D9  68EE00                   push    00EE
  1.38DC  688600                   push    0086
  1.38DF  9AFE380000               call    GDI.BITBLT
  1.38E4  FF76FE                   push    word ptr [bp-02]
  1.38E7  6A00                     push    0000
  1.38E9  6A28                     push    0028
  1.38EB  6A28                     push    0028
  1.38ED  FF36922D                 push    word ptr [2D92]
  1.38F1  FF76F2                   push    word ptr [bp-0E]
  1.38F4  6A00                     push    0000
  1.38F6  6A00                     push    0000
  1.38F8  68CC00                   push    00CC
  1.38FB  6A20                     push    0020
  1.38FD  9A8C340000               call    GDI.BITBLT
  1.3902  FF76F2                   push    word ptr [bp-0E]
  1.3905  9A0E390000               call    GDI.DELETEDC
  1.390A  FF76FC                   push    word ptr [bp-04]
  1.390D  9A79390000               call    GDI.DELETEDC
  1.3912  E96800                   jmp     397D

  1.3915 >833ED42300               cmp     word ptr [23D4], 0000
  1.391A  0F840F00                 je      392D
  1.391E  FF36D423                 push    word ptr [23D4]
  1.3922  9A3B390000               call    GDI.DELETEOBJECT
  1.3927  C706D4230000             mov     word ptr [23D4], 0000

  1.392D >833E642D00               cmp     word ptr [2D64], 0000
  1.3932  0F840F00                 je      3945
  1.3936  FF36642D                 push    word ptr [2D64]
  1.393A  9A53390000               call    GDI.DELETEOBJECT
  1.393F  C706642D0000             mov     word ptr [2D64], 0000

  1.3945 >833ED22300               cmp     word ptr [23D2], 0000
  1.394A  0F840F00                 je      395D
  1.394E  FF36D223                 push    word ptr [23D2]
  1.3952  9A6B390000               call    GDI.DELETEOBJECT
  1.3957  C706D2230000             mov     word ptr [23D2], 0000

  1.395D >833ED82300               cmp     word ptr [23D8], 0000
  1.3962  0F840F00                 je      3975
  1.3966  FF36D823                 push    word ptr [23D8]
  1.396A  9A2B310000               call    GDI.DELETEOBJECT
  1.396F  C706D8230000             mov     word ptr [23D8], 0000

  1.3975 >FF76FC                   push    word ptr [bp-04]
  1.3978  9ABB360000               call    GDI.DELETEDC

  1.397D >FF7606                   push    word ptr [bp+06]
  1.3980  FF76FE                   push    word ptr [bp-02]
  1.3983  9A92390000               call    USER.RELEASEDC
  1.3988  E90E00                   jmp     3999

  1.398B >FF7606                   push    word ptr [bp+06]
  1.398E  FF76FE                   push    word ptr [bp-02]
  1.3991  9A0F370000               call    USER.RELEASEDC
  1.3996  E90000                   jmp     3999

  1.3999 >5E                       pop     si
  1.399A  5F                       pop     di
  1.399B  C9                       leave  
  1.399C  CB                       retf   
  1.399D  55                       push    bp
  1.399E  8BEC                     mov     bp, sp
  1.39A0  B80000                   mov     ax, 0000
  1.39A3  9A12072037               call    1:0712
  1.39A8  57                       push    di
  1.39A9  56                       push    si
  1.39AA  FF7606                   push    word ptr [bp+06]
  1.39AD  FF7608                   push    word ptr [bp+08]
  1.39B0  FF760A                   push    word ptr [bp+0A]
  1.39B3  FF760C                   push    word ptr [bp+0C]
  1.39B6  FF760E                   push    word ptr [bp+0E]
  1.39B9  6A00                     push    0000
  1.39BB  9ACE390000               call    USER.MOVEWINDOW
  1.39C0  FF7606                   push    word ptr [bp+06]
  1.39C3  6A00                     push    0000
  1.39C5  6A00                     push    0000
  1.39C7  6A00                     push    0000
  1.39C9  6A00                     push    0000
  1.39CB  6A01                     push    0001
  1.39CD  9AAD360000               call    USER.MOVEWINDOW
  1.39D2  5E                       pop     si
  1.39D3  5F                       pop     di
  1.39D4  C9                       leave  
  1.39D5  CB                       retf   
  1.39D6  55                       push    bp
  1.39D7  8BEC                     mov     bp, sp
  1.39D9  B80200                   mov     ax, 0002
  1.39DC  9A12073F3A               call    1:0712
  1.39E1  57                       push    di
  1.39E2  56                       push    si
  1.39E3  833E602D00               cmp     word ptr [2D60], 0000
  1.39E8  0F850600                 jne     39F2
  1.39EC  B80000                   mov     ax, 0000
  1.39EF  E94000                   jmp     3A32

  1.39F2 >C746FE0000               mov     word ptr [bp-02], 0000
  1.39F7  E90300                   jmp     39FD

  1.39FA >FF46FE                   inc     word ptr [bp-02]

  1.39FD >837EFE08                 cmp     word ptr [bp-02], 0008
  1.3A01  0F8D2700                 jnl     3A2C
  1.3A05  8B4606                   mov     ax, [bp+06]
  1.3A08  8B5EFE                   mov     bx, [bp-02]
  1.3A0B  D1E3                     shl     bx, 1
  1.3A0D  3987802D                 cmp     [bx+2D80], ax
  1.3A11  0F851400                 jne     3A29
  1.3A15  8B5EFE                   mov     bx, [bp-02]
  1.3A18  D1E3                     shl     bx, 1
  1.3A1A  83BF802D00               cmp     word ptr [bx+2D80], 0000
  1.3A1F  0F840600                 je      3A29
  1.3A23  B80100                   mov     ax, 0001
  1.3A26  E90900                   jmp     3A32

  1.3A29 >E9CEFF                   jmp     39FA

  1.3A2C >B80000                   mov     ax, 0000
  1.3A2F  E90000                   jmp     3A32

  1.3A32 >5E                       pop     si
  1.3A33  5F                       pop     di
  1.3A34  C9                       leave  
  1.3A35  CB                       retf   
  1.3A36  55                       push    bp
  1.3A37  8BEC                     mov     bp, sp
  1.3A39  B80A00                   mov     ax, 000A
  1.3A3C  9A1207553B               call    1:0712
  1.3A41  57                       push    di
  1.3A42  56                       push    si
  1.3A43  C746FE0000               mov     word ptr [bp-02], 0000
  1.3A48  E90300                   jmp     3A4E

  1.3A4B >FF46FE                   inc     word ptr [bp-02]

  1.3A4E >837EFE08                 cmp     word ptr [bp-02], 0008
  1.3A52  0F8DEC00                 jnl     3B42
  1.3A56  8B5EFE                   mov     bx, [bp-02]
  1.3A59  D1E3                     shl     bx, 1
  1.3A5B  83BF802D00               cmp     word ptr [bx+2D80], 0000
  1.3A60  0F84DB00                 je      3B3F
  1.3A64  8B5EFE                   mov     bx, [bp-02]
  1.3A67  D1E3                     shl     bx, 1
  1.3A69  FFB7802D                 push    word ptr [bx+2D80]
  1.3A6D  6A00                     push    0000
  1.3A6F  9A833A0000               call    USER.GETWINDOWWORD
  1.3A74  8946FC                   mov     [bp-04], ax
  1.3A77  8B5EFE                   mov     bx, [bp-02]
  1.3A7A  D1E3                     shl     bx, 1
  1.3A7C  FFB7802D                 push    word ptr [bx+2D80]
  1.3A80  6A02                     push    0002
  1.3A82  9AFFFF0000               call    USER.GETWINDOWWORD
  1.3A87  8946F8                   mov     [bp-08], ax
  1.3A8A  8B46FC                   mov     ax, [bp-04]
  1.3A8D  052800                   add     ax, 0028
  1.3A90  8946FA                   mov     [bp-06], ax
  1.3A93  8B46F8                   mov     ax, [bp-08]
  1.3A96  052800                   add     ax, 0028
  1.3A99  8946F6                   mov     [bp-0A], ax
  1.3A9C  837EFA00                 cmp     word ptr [bp-06], 0000
  1.3AA0  0F850300                 jne     3AA7
  1.3AA4  E9A4FF                   jmp     3A4B

  1.3AA7 >8B460A                   mov     ax, [bp+0A]
  1.3AAA  3946F8                   cmp     [bp-08], ax
  1.3AAD  0F8F0A00                 jg      3ABB
  1.3AB1  8B460A                   mov     ax, [bp+0A]
  1.3AB4  3946F6                   cmp     [bp-0A], ax
  1.3AB7  0F8F1400                 jg      3ACF

  1.3ABB >8B460C                   mov     ax, [bp+0C]
  1.3ABE  3946F8                   cmp     [bp-08], ax
  1.3AC1  0F8D2E00                 jnl     3AF3
  1.3AC5  8B460C                   mov     ax, [bp+0C]
  1.3AC8  3946F6                   cmp     [bp-0A], ax
  1.3ACB  0F8E2400                 jle     3AF3

  1.3ACF >8B4606                   mov     ax, [bp+06]
  1.3AD2  3946FA                   cmp     [bp-06], ax
  1.3AD5  0F8E1A00                 jle     3AF3
  1.3AD9  8B4608                   mov     ax, [bp+08]
  1.3ADC  3946FA                   cmp     [bp-06], ax
  1.3ADF  0F8F1000                 jg      3AF3
  1.3AE3  8B4606                   mov     ax, [bp+06]
  1.3AE6  394608                   cmp     [bp+08], ax
  1.3AE9  0F8E0600                 jle     3AF3
  1.3AED  8B46FA                   mov     ax, [bp-06]
  1.3AF0  E95500                   jmp     3B48

  1.3AF3 >8B460A                   mov     ax, [bp+0A]
  1.3AF6  3946F8                   cmp     [bp-08], ax
  1.3AF9  0F8F0A00                 jg      3B07
  1.3AFD  8B460A                   mov     ax, [bp+0A]
  1.3B00  3946F6                   cmp     [bp-0A], ax
  1.3B03  0F8F1400                 jg      3B1B

  1.3B07 >8B460C                   mov     ax, [bp+0C]
  1.3B0A  3946F8                   cmp     [bp-08], ax
  1.3B0D  0F8D2E00                 jnl     3B3F
  1.3B11  8B460C                   mov     ax, [bp+0C]
  1.3B14  3946F6                   cmp     [bp-0A], ax
  1.3B17  0F8E2400                 jle     3B3F

  1.3B1B >8B4608                   mov     ax, [bp+08]
  1.3B1E  3946FC                   cmp     [bp-04], ax
  1.3B21  0F8C1A00                 jl      3B3F
  1.3B25  8B4606                   mov     ax, [bp+06]
  1.3B28  3946FC                   cmp     [bp-04], ax
  1.3B2B  0F8D1000                 jnl     3B3F
  1.3B2F  8B4606                   mov     ax, [bp+06]
  1.3B32  394608                   cmp     [bp+08], ax
  1.3B35  0F8D0600                 jnl     3B3F
  1.3B39  8B46FC                   mov     ax, [bp-04]
  1.3B3C  E90900                   jmp     3B48

  1.3B3F >E909FF                   jmp     3A4B

  1.3B42 >B80000                   mov     ax, 0000
  1.3B45  E90000                   jmp     3B48

  1.3B48 >5E                       pop     si
  1.3B49  5F                       pop     di
  1.3B4A  C9                       leave  
  1.3B4B  CB                       retf   
  1.3B4C  55                       push    bp
  1.3B4D  8BEC                     mov     bp, sp
  1.3B4F  B84800                   mov     ax, 0048
  1.3B52  9A1207293C               call    1:0712
  1.3B57  57                       push    di
  1.3B58  56                       push    si
  1.3B59  C746FA0000               mov     word ptr [bp-06], 0000
  1.3B5E  E90300                   jmp     3B64

  1.3B61 >FF46FA                   inc     word ptr [bp-06]

  1.3B64 >837EFA08                 cmp     word ptr [bp-06], 0008
  1.3B68  0F8D0E00                 jnl     3B7A
  1.3B6C  8B5EFA                   mov     bx, [bp-06]
  1.3B6F  D1E3                     shl     bx, 1
  1.3B71  C787802D0000             mov     word ptr [bx+2D80], 0000
  1.3B77  E9E7FF                   jmp     3B61

  1.3B7A >9A2E3C0000               call    USER.GETDESKTOPWINDOW
  1.3B7F  8946FE                   mov     [bp-02], ax
  1.3B82  C746FC0500               mov     word ptr [bp-04], 0005
  1.3B87  C746FA0000               mov     word ptr [bp-06], 0000
  1.3B8C  C746F80000               mov     word ptr [bp-08], 0000

  1.3B91 >FF76FE                   push    word ptr [bp-02]
  1.3B94  FF76FC                   push    word ptr [bp-04]
  1.3B97  9A4B3C0000               call    USER.GETWINDOW
  1.3B9C  8946FE                   mov     [bp-02], ax
  1.3B9F  3D0000                   cmp     ax, 0000
  1.3BA2  0F847000                 je      3C16
  1.3BA6  837EFA40                 cmp     word ptr [bp-06], 0040
  1.3BAA  0F8D6800                 jnl     3C16
  1.3BAE  C746FC0200               mov     word ptr [bp-04], 0002
  1.3BB3  8B4606                   mov     ax, [bp+06]
  1.3BB6  3946FE                   cmp     [bp-02], ax
  1.3BB9  0F850300                 jne     3BC0
  1.3BBD  E9D1FF                   jmp     3B91

  1.3BC0 >FF76FE                   push    word ptr [bp-02]
  1.3BC3  6AF0                     push    FFF0
  1.3BC5  9A793C0000               call    USER.GETWINDOWLONG
  1.3BCA  F7C20010                 test    dx, 1000
  1.3BCE  0F844100                 je      3C13
  1.3BD2  FF76FE                   push    word ptr [bp-02]
  1.3BD5  8D46B8                   lea     ax, [bp-48]
  1.3BD8  16                       push    ss
  1.3BD9  50                       push    ax
  1.3BDA  6A10                     push    0010
  1.3BDC  9A903C0000               call    USER.GETWINDOWTEXT
  1.3BE1  8D46B8                   lea     ax, [bp-48]
  1.3BE4  16                       push    ss
  1.3BE5  50                       push    ax
  1.3BE6  1E                       push    ds
  1.3BE7  68EA01                   push    01EA
  1.3BEA  9A9E3C0000               call    USER.LSTRCMP
  1.3BEF  3D0000                   cmp     ax, 0000
  1.3BF2  0F851A00                 jne     3C10
  1.3BF6  8B46FE                   mov     ax, [bp-02]
  1.3BF9  8B5EF8                   mov     bx, [bp-08]
  1.3BFC  D1E3                     shl     bx, 1
  1.3BFE  8987802D                 mov     [bx+2D80], ax
  1.3C02  FF46F8                   inc     word ptr [bp-08]
  1.3C05  837EF808                 cmp     word ptr [bp-08], 0008
  1.3C09  0F8E0300                 jle     3C10
  1.3C0D  E90C00                   jmp     3C1C

  1.3C10 >FF46FA                   inc     word ptr [bp-06]

  1.3C13 >E97BFF                   jmp     3B91

  1.3C16 >8B46F8                   mov     ax, [bp-08]
  1.3C19  A3602D                   mov     [2D60], ax

  1.3C1C >5E                       pop     si
  1.3C1D  5F                       pop     di
  1.3C1E  C9                       leave  
  1.3C1F  CB                       retf   
  1.3C20  55                       push    bp
  1.3C21  8BEC                     mov     bp, sp
  1.3C23  B84800                   mov     ax, 0048
  1.3C26  9A12071B3D               call    1:0712
  1.3C2B  57                       push    di
  1.3C2C  56                       push    si
  1.3C2D  9AFFFF0000               call    USER.GETDESKTOPWINDOW
  1.3C32  8946FE                   mov     [bp-02], ax
  1.3C35  C746FC0500               mov     word ptr [bp-04], 0005
  1.3C3A  C746FA0000               mov     word ptr [bp-06], 0000
  1.3C3F  C746F80000               mov     word ptr [bp-08], 0000

  1.3C44 >FF76FE                   push    word ptr [bp-02]
  1.3C47  FF76FC                   push    word ptr [bp-04]
  1.3C4A  9AFFFF0000               call    USER.GETWINDOW
  1.3C4F  8946FE                   mov     [bp-02], ax
  1.3C52  3D0000                   cmp     ax, 0000
  1.3C55  0F847300                 je      3CCC
  1.3C59  837EFA40                 cmp     word ptr [bp-06], 0040
  1.3C5D  0F8D6B00                 jnl     3CCC
  1.3C61  C746FC0200               mov     word ptr [bp-04], 0002
  1.3C66  8B4606                   mov     ax, [bp+06]
  1.3C69  3946FE                   cmp     [bp-02], ax
  1.3C6C  0F850300                 jne     3C73
  1.3C70  E9D1FF                   jmp     3C44

  1.3C73 >FF76FE                   push    word ptr [bp-02]
  1.3C76  6AF0                     push    FFF0
  1.3C78  9AFFFF0000               call    USER.GETWINDOWLONG
  1.3C7D  F7C20010                 test    dx, 1000
  1.3C81  0F844400                 je      3CC9
  1.3C85  FF76FE                   push    word ptr [bp-02]
  1.3C88  8D46B8                   lea     ax, [bp-48]
  1.3C8B  16                       push    ss
  1.3C8C  50                       push    ax
  1.3C8D  6A10                     push    0010
  1.3C8F  9AFFFF0000               call    USER.GETWINDOWTEXT
  1.3C94  8D46B8                   lea     ax, [bp-48]
  1.3C97  16                       push    ss
  1.3C98  50                       push    ax
  1.3C99  1E                       push    ds
  1.3C9A  68F601                   push    01F6
  1.3C9D  9AFFFF0000               call    USER.LSTRCMP
  1.3CA2  3D0000                   cmp     ax, 0000
  1.3CA5  0F851D00                 jne     3CC6
  1.3CA9  8B46FE                   mov     ax, [bp-02]
  1.3CAC  8B5EF8                   mov     bx, [bp-08]
  1.3CAF  D1E3                     shl     bx, 1
  1.3CB1  8987802D                 mov     [bx+2D80], ax
  1.3CB5  FF46F8                   inc     word ptr [bp-08]
  1.3CB8  837EF808                 cmp     word ptr [bp-08], 0008
  1.3CBC  0F8E0600                 jle     3CC6
  1.3CC0  B80000                   mov     ax, 0000
  1.3CC3  E94800                   jmp     3D0E

  1.3CC6 >FF46FA                   inc     word ptr [bp-06]

  1.3CC9 >E978FF                   jmp     3C44

  1.3CCC >8B46F8                   mov     ax, [bp-08]
  1.3CCF  A3602D                   mov     [2D60], ax
  1.3CD2  8B46F8                   mov     ax, [bp-08]
  1.3CD5  A3682D                   mov     [2D68], ax
  1.3CD8  C746FA0000               mov     word ptr [bp-06], 0000
  1.3CDD  E90300                   jmp     3CE3

  1.3CE0 >FF46FA                   inc     word ptr [bp-06]

  1.3CE3 >A1602D                   mov     ax, [2D60]
  1.3CE6  3946FA                   cmp     [bp-06], ax
  1.3CE9  0F8D1B00                 jnl     3D08
  1.3CED  8B5EFA                   mov     bx, [bp-06]
  1.3CF0  D1E3                     shl     bx, 1
  1.3CF2  FFB7802D                 push    word ptr [bx+2D80]
  1.3CF6  680004                   push    0400
  1.3CF9  6A01                     push    0001
  1.3CFB  6A00                     push    0000
  1.3CFD  FF7606                   push    word ptr [bp+06]
  1.3D00  9A543D0000               call    USER.SENDMESSAGE
  1.3D05  E9D8FF                   jmp     3CE0

  1.3D08 >B80100                   mov     ax, 0001
  1.3D0B  E90000                   jmp     3D0E

  1.3D0E >5E                       pop     si
  1.3D0F  5F                       pop     di
  1.3D10  C9                       leave  
  1.3D11  CB                       retf   
  1.3D12  55                       push    bp
  1.3D13  8BEC                     mov     bp, sp
  1.3D15  B80200                   mov     ax, 0002
  1.3D18  9A1207683D               call    1:0712
  1.3D1D  57                       push    di
  1.3D1E  56                       push    si
  1.3D1F  C746FE0000               mov     word ptr [bp-02], 0000
  1.3D24  E90300                   jmp     3D2A

  1.3D27 >FF46FE                   inc     word ptr [bp-02]

  1.3D2A >837EFE08                 cmp     word ptr [bp-02], 0008
  1.3D2E  0F8D2900                 jnl     3D5B
  1.3D32  8B5EFE                   mov     bx, [bp-02]
  1.3D35  D1E3                     shl     bx, 1
  1.3D37  83BF802D00               cmp     word ptr [bx+2D80], 0000
  1.3D3C  0F841800                 je      3D58
  1.3D40  8B5EFE                   mov     bx, [bp-02]
  1.3D43  D1E3                     shl     bx, 1
  1.3D45  FFB7802D                 push    word ptr [bx+2D80]
  1.3D49  680004                   push    0400
  1.3D4C  6A02                     push    0002
  1.3D4E  6A00                     push    0000
  1.3D50  FF7606                   push    word ptr [bp+06]
  1.3D53  9AD9220000               call    USER.SENDMESSAGE

  1.3D58 >E9CCFF                   jmp     3D27

  1.3D5B >5E                       pop     si
  1.3D5C  5F                       pop     di
  1.3D5D  C9                       leave  
  1.3D5E  CB                       retf   
  1.3D5F  55                       push    bp
  1.3D60  8BEC                     mov     bp, sp
  1.3D62  B80200                   mov     ax, 0002
  1.3D65  9A1207A639               call    1:0712
  1.3D6A  57                       push    di
  1.3D6B  56                       push    si
  1.3D6C  C746FE0000               mov     word ptr [bp-02], 0000
  1.3D71  E90300                   jmp     3D77

  1.3D74 >FF46FE                   inc     word ptr [bp-02]

  1.3D77 >837EFE08                 cmp     word ptr [bp-02], 0008
  1.3D7B  0F8D2400                 jnl     3DA3
  1.3D7F  8B5EFE                   mov     bx, [bp-02]
  1.3D82  D1E3                     shl     bx, 1
  1.3D84  83BF802D00               cmp     word ptr [bx+2D80], 0000
  1.3D89  0F851300                 jne     3DA0
  1.3D8D  FF06602D                 inc     word ptr [2D60]
  1.3D91  8B4606                   mov     ax, [bp+06]
  1.3D94  8B5EFE                   mov     bx, [bp-02]
  1.3D97  D1E3                     shl     bx, 1
  1.3D99  8987802D                 mov     [bx+2D80], ax
  1.3D9D  E90300                   jmp     3DA3

  1.3DA0 >E9D1FF                   jmp     3D74

  1.3DA3 >5E                       pop     si
  1.3DA4  5F                       pop     di
  1.3DA5  C9                       leave  
  1.3DA6  CB                       retf   
  1.3DA7  55                       push    bp
  1.3DA8  8BEC                     mov     bp, sp
  1.3DAA  B80200                   mov     ax, 0002
  1.3DAD  9A1207F93D               call    1:0712
  1.3DB2  57                       push    di
  1.3DB3  56                       push    si
  1.3DB4  C746FE0000               mov     word ptr [bp-02], 0000
  1.3DB9  E90300                   jmp     3DBF

  1.3DBC >FF46FE                   inc     word ptr [bp-02]

  1.3DBF >837EFE08                 cmp     word ptr [bp-02], 0008
  1.3DC3  0F8D2500                 jnl     3DEC
  1.3DC7  8B4606                   mov     ax, [bp+06]
  1.3DCA  8B5EFE                   mov     bx, [bp-02]
  1.3DCD  D1E3                     shl     bx, 1
  1.3DCF  3987802D                 cmp     [bx+2D80], ax
  1.3DD3  0F851200                 jne     3DE9
  1.3DD7  FF0E602D                 dec     word ptr [2D60]
  1.3DDB  8B5EFE                   mov     bx, [bp-02]
  1.3DDE  D1E3                     shl     bx, 1
  1.3DE0  C787802D0000             mov     word ptr [bx+2D80], 0000
  1.3DE6  E90300                   jmp     3DEC

  1.3DE9 >E9D0FF                   jmp     3DBC

  1.3DEC >5E                       pop     si
  1.3DED  5F                       pop     di
  1.3DEE  C9                       leave  
  1.3DEF  CB                       retf   
  1.3DF0  55                       push    bp
  1.3DF1  8BEC                     mov     bp, sp
  1.3DF3  B80600                   mov     ax, 0006
  1.3DF6  9A1207853E               call    1:0712
  1.3DFB  57                       push    di
  1.3DFC  56                       push    si
  1.3DFD  9A7B3B0000               call    USER.GETDESKTOPWINDOW
  1.3E02  8946FE                   mov     [bp-02], ax
  1.3E05  C746FC0500               mov     word ptr [bp-04], 0005
  1.3E0A  C746FA0000               mov     word ptr [bp-06], 0000

  1.3E0F >FF76FE                   push    word ptr [bp-02]
  1.3E12  FF76FC                   push    word ptr [bp-04]
  1.3E15  9A983B0000               call    USER.GETWINDOW
  1.3E1A  8946FE                   mov     [bp-02], ax
  1.3E1D  3D0000                   cmp     ax, 0000
  1.3E20  0F844E00                 je      3E72
  1.3E24  837EFA20                 cmp     word ptr [bp-06], 0020
  1.3E28  0F8D4600                 jnl     3E72
  1.3E2C  C746FC0200               mov     word ptr [bp-04], 0002
  1.3E31  A1D023                   mov     ax, [23D0]
  1.3E34  3946FE                   cmp     [bp-02], ax
  1.3E37  0F850300                 jne     3E3E
  1.3E3B  E9D1FF                   jmp     3E0F

  1.3E3E >FF76FE                   push    word ptr [bp-02]
  1.3E41  6AF0                     push    FFF0
  1.3E43  9AC63B0000               call    USER.GETWINDOWLONG
  1.3E48  F7C20010                 test    dx, 1000
  1.3E4C  0F841F00                 je      3E6F
  1.3E50  FF76FE                   push    word ptr [bp-02]
  1.3E53  6B46FA4C                 imul    ax, [bp-06], 004C
  1.3E57  05DE23                   add     ax, 23DE
  1.3E5A  1E                       push    ds
  1.3E5B  50                       push    ax
  1.3E5C  9A673F0000               call    USER.GETWINDOWRECT
  1.3E61  8B46FE                   mov     ax, [bp-02]
  1.3E64  6B5EFA4C                 imul    bx, [bp-06], 004C
  1.3E68  8987DC23                 mov     [bx+23DC], ax
  1.3E6C  FF46FA                   inc     word ptr [bp-06]

  1.3E6F >E99DFF                   jmp     3E0F

  1.3E72 >8B46FA                   mov     ax, [bp-06]
  1.3E75  A3942D                   mov     [2D94], ax
  1.3E78  5E                       pop     si
  1.3E79  5F                       pop     di
  1.3E7A  C9                       leave  
  1.3E7B  CB                       retf   
  1.3E7C  55                       push    bp
  1.3E7D  8BEC                     mov     bp, sp
  1.3E7F  B80C00                   mov     ax, 000C
  1.3E82  9A12079540               call    1:0712
  1.3E87  57                       push    di
  1.3E88  56                       push    si
  1.3E89  C746FE0000               mov     word ptr [bp-02], 0000
  1.3E8E  E90300                   jmp     3E94

  1.3E91 >FF46FE                   inc     word ptr [bp-02]

  1.3E94 >A1942D                   mov     ax, [2D94]
  1.3E97  3946FE                   cmp     [bp-02], ax
  1.3E9A  0F8DE401                 jnl     4082
  1.3E9E  8B460C                   mov     ax, [bp+0C]
  1.3EA1  39460E                   cmp     [bp+0E], ax
  1.3EA4  0F8EED00                 jle     3F95
  1.3EA8  8B460C                   mov     ax, [bp+0C]
  1.3EAB  6B5EFE4C                 imul    bx, [bp-02], 004C
  1.3EAF  3987E223                 cmp     [bx+23E2], ax
  1.3EB3  0F8CDB00                 jl      3F92
  1.3EB7  8B460E                   mov     ax, [bp+0E]
  1.3EBA  6B5EFE4C                 imul    bx, [bp-02], 004C
  1.3EBE  3987E223                 cmp     [bx+23E2], ax
  1.3EC2  0F8DCC00                 jnl     3F92
  1.3EC6  8B4608                   mov     ax, [bp+08]
  1.3EC9  6B5EFE4C                 imul    bx, [bp-02], 004C
  1.3ECD  3987E023                 cmp     [bx+23E0], ax
  1.3ED1  0F8DBD00                 jnl     3F92
  1.3ED5  8B460A                   mov     ax, [bp+0A]
  1.3ED8  6B5EFE4C                 imul    bx, [bp-02], 004C
  1.3EDC  3987E423                 cmp     [bx+23E4], ax
  1.3EE0  0F8EAE00                 jle     3F92
  1.3EE4  C746FC0000               mov     word ptr [bp-04], 0000
  1.3EE9  E90300                   jmp     3EEF

  1.3EEC >FF46FC                   inc     word ptr [bp-04]

  1.3EEF >8B46FE                   mov     ax, [bp-02]
  1.3EF2  3946FC                   cmp     [bp-04], ax
  1.3EF5  0F8D4200                 jnl     3F3B
  1.3EF9  8B4608                   mov     ax, [bp+08]
  1.3EFC  6B5EFC4C                 imul    bx, [bp-04], 004C
  1.3F00  3987E023                 cmp     [bx+23E0], ax
  1.3F04  0F8F3000                 jg      3F38
  1.3F08  8B460A                   mov     ax, [bp+0A]
  1.3F0B  6B5EFC4C                 imul    bx, [bp-04], 004C
  1.3F0F  3987E423                 cmp     [bx+23E4], ax
  1.3F13  0F8C2100                 jl      3F38
  1.3F17  8B460C                   mov     ax, [bp+0C]
  1.3F1A  6B5EFC4C                 imul    bx, [bp-04], 004C
  1.3F1E  3987DE23                 cmp     [bx+23DE], ax
  1.3F22  0F8F1200                 jg      3F38
  1.3F26  8B460E                   mov     ax, [bp+0E]
  1.3F29  6B5EFC4C                 imul    bx, [bp-04], 004C
  1.3F2D  3987E223                 cmp     [bx+23E2], ax
  1.3F31  0F8C0300                 jl      3F38
  1.3F35  E90300                   jmp     3F3B

  1.3F38 >E9B1FF                   jmp     3EEC

  1.3F3B >8B46FE                   mov     ax, [bp-02]
  1.3F3E  3946FC                   cmp     [bp-04], ax
  1.3F41  0F854D00                 jne     3F92
  1.3F45  6B5EFE4C                 imul    bx, [bp-02], 004C
  1.3F49  FFB7DC23                 push    word ptr [bx+23DC]
  1.3F4D  9A3B400000               call    USER.ISWINDOW
  1.3F52  3D0000                   cmp     ax, 0000
  1.3F55  0F843900                 je      3F92
  1.3F59  6B5EFE4C                 imul    bx, [bp-02], 004C
  1.3F5D  FFB7DC23                 push    word ptr [bx+23DC]
  1.3F61  8D46F4                   lea     ax, [bp-0C]
  1.3F64  16                       push    ss
  1.3F65  50                       push    ax
  1.3F66  9A54400000               call    USER.GETWINDOWRECT
  1.3F6B  8B46F8                   mov     ax, [bp-08]
  1.3F6E  6B5EFE4C                 imul    bx, [bp-02], 004C
  1.3F72  3987E223                 cmp     [bx+23E2], ax
  1.3F76  0F851800                 jne     3F92
  1.3F7A  6B5EFE4C                 imul    bx, [bp-02], 004C
  1.3F7E  8B87DC23                 mov     ax, [bx+23DC]
  1.3F82  8B5E06                   mov     bx, [bp+06]
  1.3F85  8907                     mov     [bx], ax
  1.3F87  6B5EFE4C                 imul    bx, [bp-02], 004C
  1.3F8B  8B87E223                 mov     ax, [bx+23E2]
  1.3F8F  E9F600                   jmp     4088

  1.3F92 >E9EA00                   jmp     407F

  1.3F95 >8B460C                   mov     ax, [bp+0C]
  1.3F98  6B5EFE4C                 imul    bx, [bp-02], 004C
  1.3F9C  3987DE23                 cmp     [bx+23DE], ax
  1.3FA0  0F8FDB00                 jg      407F
  1.3FA4  8B460E                   mov     ax, [bp+0E]
  1.3FA7  6B5EFE4C                 imul    bx, [bp-02], 004C
  1.3FAB  3987DE23                 cmp     [bx+23DE], ax
  1.3FAF  0F8ECC00                 jle     407F
  1.3FB3  8B4608                   mov     ax, [bp+08]
  1.3FB6  6B5EFE4C                 imul    bx, [bp-02], 004C
  1.3FBA  3987E023                 cmp     [bx+23E0], ax
  1.3FBE  0F8DBD00                 jnl     407F
  1.3FC2  8B460A                   mov     ax, [bp+0A]
  1.3FC5  6B5EFE4C                 imul    bx, [bp-02], 004C
  1.3FC9  3987E423                 cmp     [bx+23E4], ax
  1.3FCD  0F8EAE00                 jle     407F
  1.3FD1  C746FC0000               mov     word ptr [bp-04], 0000
  1.3FD6  E90300                   jmp     3FDC

  1.3FD9 >FF46FC                   inc     word ptr [bp-04]

  1.3FDC >8B46FE                   mov     ax, [bp-02]
  1.3FDF  3946FC                   cmp     [bp-04], ax
  1.3FE2  0F8D4200                 jnl     4028
  1.3FE6  8B4608                   mov     ax, [bp+08]
  1.3FE9  6B5EFC4C                 imul    bx, [bp-04], 004C
  1.3FED  3987E023                 cmp     [bx+23E0], ax
  1.3FF1  0F8F3000                 jg      4025
  1.3FF5  8B460A                   mov     ax, [bp+0A]
  1.3FF8  6B5EFC4C                 imul    bx, [bp-04], 004C
  1.3FFC  3987E423                 cmp     [bx+23E4], ax
  1.4000  0F8C2100                 jl      4025
  1.4004  8B460C                   mov     ax, [bp+0C]
  1.4007  6B5EFC4C                 imul    bx, [bp-04], 004C
  1.400B  3987DE23                 cmp     [bx+23DE], ax
  1.400F  0F8F1200                 jg      4025
  1.4013  8B460E                   mov     ax, [bp+0E]
  1.4016  6B5EFC4C                 imul    bx, [bp-04], 004C
  1.401A  3987E223                 cmp     [bx+23E2], ax
  1.401E  0F8C0300                 jl      4025
  1.4022  E90300                   jmp     4028

  1.4025 >E9B1FF                   jmp     3FD9

  1.4028 >8B46FE                   mov     ax, [bp-02]
  1.402B  3946FC                   cmp     [bp-04], ax
  1.402E  0F854D00                 jne     407F
  1.4032  6B5EFE4C                 imul    bx, [bp-02], 004C
  1.4036  FFB7DC23                 push    word ptr [bx+23DC]
  1.403A  9AFFFF0000               call    USER.ISWINDOW
  1.403F  3D0000                   cmp     ax, 0000
  1.4042  0F843900                 je      407F
  1.4046  6B5EFE4C                 imul    bx, [bp-02], 004C
  1.404A  FFB7DC23                 push    word ptr [bx+23DC]
  1.404E  8D46F4                   lea     ax, [bp-0C]
  1.4051  16                       push    ss
  1.4052  50                       push    ax
  1.4053  9A16240000               call    USER.GETWINDOWRECT
  1.4058  8B46F4                   mov     ax, [bp-0C]
  1.405B  6B5EFE4C                 imul    bx, [bp-02], 004C
  1.405F  3987DE23                 cmp     [bx+23DE], ax
  1.4063  0F851800                 jne     407F
  1.4067  6B5EFE4C                 imul    bx, [bp-02], 004C
  1.406B  8B87DC23                 mov     ax, [bx+23DC]
  1.406F  8B5E06                   mov     bx, [bp+06]
  1.4072  8907                     mov     [bx], ax
  1.4074  6B5EFE4C                 imul    bx, [bp-02], 004C
  1.4078  8B87DE23                 mov     ax, [bx+23DE]
  1.407C  E90900                   jmp     4088

  1.407F >E90FFE                   jmp     3E91

  1.4082 >B80000                   mov     ax, 0000
  1.4085  E90000                   jmp     4088

  1.4088 >5E                       pop     si
  1.4089  5F                       pop     di
  1.408A  C9                       leave  
  1.408B  CB                       retf   
  1.408C  55                       push    bp
  1.408D  8BEC                     mov     bp, sp
  1.408F  B80400                   mov     ax, 0004
  1.4092  9A1207DF39               call    1:0712
  1.4097  57                       push    di
  1.4098  56                       push    si
  1.4099  C746FE0000               mov     word ptr [bp-02], 0000
  1.409E  E90300                   jmp     40A4

  1.40A1 >FF46FE                   inc     word ptr [bp-02]

  1.40A4 >A1942D                   mov     ax, [2D94]
  1.40A7  3946FE                   cmp     [bp-02], ax
  1.40AA  0F8DC500                 jnl     4173
  1.40AE  8B4608                   mov     ax, [bp+08]
  1.40B1  6B5EFE4C                 imul    bx, [bp-02], 004C
  1.40B5  3987E023                 cmp     [bx+23E0], ax
  1.40B9  0F8FB300                 jg      4170
  1.40BD  8B460A                   mov     ax, [bp+0A]
  1.40C0  6B5EFE4C                 imul    bx, [bp-02], 004C
  1.40C4  3987E023                 cmp     [bx+23E0], ax
  1.40C8  0F8EA400                 jle     4170
  1.40CC  8B460E                   mov     ax, [bp+0E]
  1.40CF  6B5EFE4C                 imul    bx, [bp-02], 004C
  1.40D3  3987DE23                 cmp     [bx+23DE], ax
  1.40D7  0F8D9500                 jnl     4170
  1.40DB  8B460C                   mov     ax, [bp+0C]
  1.40DE  6B5EFE4C                 imul    bx, [bp-02], 004C
  1.40E2  3987E223                 cmp     [bx+23E2], ax
  1.40E6  0F8E8600                 jle     4170
  1.40EA  6B5EFE4C                 imul    bx, [bp-02], 004C
  1.40EE  83BFE0230A               cmp     word ptr [bx+23E0], 000A
  1.40F3  0F8E7900                 jle     4170
  1.40F7  C746FC0000               mov     word ptr [bp-04], 0000
  1.40FC  E90300                   jmp     4102

  1.40FF >FF46FC                   inc     word ptr [bp-04]

  1.4102 >8B46FE                   mov     ax, [bp-02]
  1.4105  3946FC                   cmp     [bp-04], ax
  1.4108  0F8D4200                 jnl     414E
  1.410C  8B460C                   mov     ax, [bp+0C]
  1.410F  6B5EFC4C                 imul    bx, [bp-04], 004C
  1.4113  3987DE23                 cmp     [bx+23DE], ax
  1.4117  0F8F3000                 jg      414B
  1.411B  8B460E                   mov     ax, [bp+0E]
  1.411E  6B5EFC4C                 imul    bx, [bp-04], 004C
  1.4122  3987E223                 cmp     [bx+23E2], ax
  1.4126  0F8C2100                 jl      414B
  1.412A  8B460A                   mov     ax, [bp+0A]
  1.412D  6B5EFC4C                 imul    bx, [bp-04], 004C
  1.4131  3987E023                 cmp     [bx+23E0], ax
  1.4135  0F8F1200                 jg      414B
  1.4139  8B4608                   mov     ax, [bp+08]
  1.413C  6B5EFC4C                 imul    bx, [bp-04], 004C
  1.4140  3987E423                 cmp     [bx+23E4], ax
  1.4144  0F8C0300                 jl      414B
  1.4148  E90300                   jmp     414E

  1.414B >E9B1FF                   jmp     40FF

  1.414E >8B46FE                   mov     ax, [bp-02]
  1.4151  3946FC                   cmp     [bp-04], ax
  1.4154  0F851800                 jne     4170
  1.4158  6B5EFE4C                 imul    bx, [bp-02], 004C
  1.415C  8B87DC23                 mov     ax, [bx+23DC]
  1.4160  8B5E06                   mov     bx, [bp+06]
  1.4163  8907                     mov     [bx], ax
  1.4165  6B5EFE4C                 imul    bx, [bp-02], 004C
  1.4169  8B87E023                 mov     ax, [bx+23E0]
  1.416D  E92A00                   jmp     419A

  1.4170 >E92EFF                   jmp     40A1

  1.4173 >A1722D                   mov     ax, [2D72]
  1.4176  394608                   cmp     [bp+08], ax
  1.4179  0F8C1700                 jl      4194
  1.417D  A1722D                   mov     ax, [2D72]
  1.4180  39460A                   cmp     [bp+0A], ax
  1.4183  0F8F0D00                 jg      4194
  1.4187  8B5E06                   mov     bx, [bp+06]
  1.418A  C7070000                 mov     word ptr [bx], 0000
  1.418E  A1722D                   mov     ax, [2D72]
  1.4191  E90600                   jmp     419A

  1.4194 >B80000                   mov     ax, 0000
  1.4197  E90000                   jmp     419A

  1.419A >5E                       pop     si
  1.419B  5F                       pop     di
  1.419C  C9                       leave  
  1.419D  CB                       retf   
  1.419E  55                       push    bp
  1.419F  8BEC                     mov     bp, sp
  1.41A1  B80800                   mov     ax, 0008
  1.41A4  9A1207B03D               call    1:0712
  1.41A9  57                       push    di
  1.41AA  56                       push    si
  1.41AB  FF7606                   push    word ptr [bp+06]
  1.41AE  9A4E3F0000               call    USER.ISWINDOW
  1.41B3  3D0000                   cmp     ax, 0000
  1.41B6  0F843B00                 je      41F5
  1.41BA  FF7606                   push    word ptr [bp+06]
  1.41BD  8D46F8                   lea     ax, [bp-08]
  1.41C0  16                       push    ss
  1.41C1  50                       push    ax
  1.41C2  9A5D3E0000               call    USER.GETWINDOWRECT
  1.41C7  8B4608                   mov     ax, [bp+08]
  1.41CA  3946FA                   cmp     [bp-06], ax
  1.41CD  0F8F2400                 jg      41F5
  1.41D1  8B460A                   mov     ax, [bp+0A]
  1.41D4  3946FA                   cmp     [bp-06], ax
  1.41D7  0F8E1A00                 jle     41F5
  1.41DB  8B460E                   mov     ax, [bp+0E]
  1.41DE  3946F8                   cmp     [bp-08], ax
  1.41E1  0F8D1000                 jnl     41F5
  1.41E5  8B460C                   mov     ax, [bp+0C]
  1.41E8  3946FC                   cmp     [bp-04], ax
  1.41EB  0F8E0600                 jle     41F5
  1.41EF  8B46FA                   mov     ax, [bp-06]
  1.41F2  E91600                   jmp     420B

  1.41F5 >A1722D                   mov     ax, [2D72]
  1.41F8  394608                   cmp     [bp+08], ax
  1.41FB  0F8E0600                 jle     4205
  1.41FF  B8FFFF                   mov     ax, FFFF
  1.4202  E90600                   jmp     420B

  1.4205 >B80000                   mov     ax, 0000
  1.4208  E90000                   jmp     420B

  1.420B >5E                       pop     si
  1.420C  5F                       pop     di
  1.420D  C9                       leave  
  1.420E  CB                       retf   
  1.420F  00558B                   add     byte ptr [di-75], dl
  1.4212  EC                       in      al, dx
  1.4213  B80400                   mov     ax, 0004
  1.4216  9A12079742               call    1:0712
  1.421B  57                       push    di
  1.421C  56                       push    si
  1.421D  833E4E0B00               cmp     word ptr [0B4E], 0000
  1.4222  0F842300                 je      4249
  1.4226  6A00                     push    0000
  1.4228  6A00                     push    0000
  1.422A  6A00                     push    0000
  1.422C  9A86420000               call    MMSYSTEM.SNDPLAYSOUND
  1.4231  FF364E0B                 push    word ptr [0B4E]
  1.4235  9AFFFF0000               call    KERNEL.GLOBALUNLOCK
  1.423A  FF364E0B                 push    word ptr [0B4E]
  1.423E  9A612D0000               call    KERNEL.FREERESOURCE
  1.4243  C7064E0B0000             mov     word ptr [0B4E], 0000

  1.4249 >FF36782D                 push    word ptr [2D78]
  1.424D  FF36782D                 push    word ptr [2D78]
  1.4251  8B4606                   mov     ax, [bp+06]
  1.4254  99                       cwd    
  1.4255  52                       push    dx
  1.4256  50                       push    ax
  1.4257  1E                       push    ds
  1.4258  68CE05                   push    05CE
  1.425B  9A5F2B0000               call    KERNEL.FINDRESOURCE
  1.4260  50                       push    ax
  1.4261  9A652B0000               call    KERNEL.LOADRESOURCE
  1.4266  A34E0B                   mov     [0B4E], ax
  1.4269  FF364E0B                 push    word ptr [0B4E]
  1.426D  9A6E2B0000               call    KERNEL.LOCKRESOURCE
  1.4272  8946FC                   mov     [bp-04], ax
  1.4275  8956FE                   mov     [bp-02], dx
  1.4278  FF76FE                   push    word ptr [bp-02]
  1.427B  FF76FC                   push    word ptr [bp-04]
  1.427E  8B4608                   mov     ax, [bp+08]
  1.4281  0D0500                   or      ax, 0005
  1.4284  50                       push    ax
  1.4285  9AA2420000               call    MMSYSTEM.SNDPLAYSOUND
  1.428A  5E                       pop     si
  1.428B  5F                       pop     di
  1.428C  C9                       leave  
  1.428D  CB                       retf   
  1.428E  55                       push    bp
  1.428F  8BEC                     mov     bp, sp
  1.4291  B80000                   mov     ax, 0000
  1.4294  9A1207B342               call    1:0712
  1.4299  57                       push    di
  1.429A  56                       push    si
  1.429B  6A00                     push    0000
  1.429D  6A00                     push    0000
  1.429F  6A00                     push    0000
  1.42A1  9AC0420000               call    MMSYSTEM.SNDPLAYSOUND
  1.42A6  5E                       pop     si
  1.42A7  5F                       pop     di
  1.42A8  C9                       leave  
  1.42A9  CB                       retf   
  1.42AA  55                       push    bp
  1.42AB  8BEC                     mov     bp, sp
  1.42AD  B80000                   mov     ax, 0000
  1.42B0  9A1207D142               call    1:0712
  1.42B5  57                       push    di
  1.42B6  56                       push    si
  1.42B7  FF7608                   push    word ptr [bp+08]
  1.42BA  FF7606                   push    word ptr [bp+06]
  1.42BD  6A01                     push    0001
  1.42BF  9AFFFF0000               call    MMSYSTEM.SNDPLAYSOUND
  1.42C4  5E                       pop     si
  1.42C5  5F                       pop     di
  1.42C6  C9                       leave  
  1.42C7  CB                       retf   
  1.42C8  55                       push    bp
  1.42C9  8BEC                     mov     bp, sp
  1.42CB  B80000                   mov     ax, 0000
  1.42CE  9A1207EA42               call    1:0712
  1.42D3  57                       push    di
  1.42D4  56                       push    si
  1.42D5  833E7A2D00               cmp     word ptr [2D7A], 0000
  1.42DA  0F841100                 je      42EF
  1.42DE  FF760A                   push    word ptr [bp+0A]
  1.42E1  FF7608                   push    word ptr [bp+08]
  1.42E4  FF7606                   push    word ptr [bp+06]
  1.42E7  9A1042FC42               call    1:4210
  1.42EC  83C406                   add     sp, 0006

  1.42EF >5E                       pop     si
  1.42F0  5F                       pop     di
  1.42F1  C9                       leave  
  1.42F2  CB                       retf   
  1.42F3  55                       push    bp
  1.42F4  8BEC                     mov     bp, sp
  1.42F6  B80400                   mov     ax, 0004
  1.42F9  9A12074143               call    1:0712
  1.42FE  57                       push    di
  1.42FF  56                       push    si
  1.4300  C746FE0000               mov     word ptr [bp-02], 0000
  1.4305  E90300                   jmp     430B

  1.4308 >FF46FE                   inc     word ptr [bp-02]

  1.430B >837EFE10                 cmp     word ptr [bp-02], 0010
  1.430F  0F8DD001                 jnl     44E3
  1.4313  8B5EFE                   mov     bx, [bp-02]
  1.4316  C1E304                   shl     bx, 04
  1.4319  83BF020200               cmp     word ptr [bx+0202], 0000
  1.431E  0F850300                 jne     4325
  1.4322  E9BE01                   jmp     44E3

  1.4325 >6AFF                     push    FFFF
  1.4327  8B5EFE                   mov     bx, [bp-02]
  1.432A  C1E304                   shl     bx, 04
  1.432D  FFB70202                 push    word ptr [bx+0202]
  1.4331  8B46FE                   mov     ax, [bp-02]
  1.4334  C1E004                   shl     ax, 04
  1.4337  050602                   add     ax, 0206
  1.433A  50                       push    ax
  1.433B  FF7606                   push    word ptr [bp+06]
  1.433E  9A302B6F43               call    1:2B30
  1.4343  83C408                   add     sp, 0008
  1.4346  3D0000                   cmp     ax, 0000
  1.4349  0F850600                 jne     4353
  1.434D  B80000                   mov     ax, 0000
  1.4350  E99601                   jmp     44E9

  1.4353 >6AFD                     push    FFFD
  1.4355  8B5EFE                   mov     bx, [bp-02]
  1.4358  C1E304                   shl     bx, 04
  1.435B  FFB70202                 push    word ptr [bx+0202]
  1.435F  8B46FE                   mov     ax, [bp-02]
  1.4362  C1E004                   shl     ax, 04
  1.4365  050603                   add     ax, 0306
  1.4368  50                       push    ax
  1.4369  FF7606                   push    word ptr [bp+06]
  1.436C  9A302BF644               call    1:2B30
  1.4371  83C408                   add     sp, 0008
  1.4374  3D0000                   cmp     ax, 0000
  1.4377  0F850600                 jne     4381
  1.437B  B80000                   mov     ax, 0000
  1.437E  E96801                   jmp     44E9

  1.4381 >C746FC0000               mov     word ptr [bp-04], 0000
  1.4386  E90300                   jmp     438C

  1.4389 >FF46FC                   inc     word ptr [bp-04]

  1.438C >837EFC10                 cmp     word ptr [bp-04], 0010
  1.4390  0F8D4C01                 jnl     44E0
  1.4394  8B5EFE                   mov     bx, [bp-02]
  1.4397  C1E304                   shl     bx, 04
  1.439A  8B870602                 mov     ax, [bx+0206]
  1.439E  8B5EFE                   mov     bx, [bp-02]
  1.43A1  C1E304                   shl     bx, 04
  1.43A4  035EFC                   add     bx, [bp-04]
  1.43A7  8BCB                     mov     cx, bx
  1.43A9  D1E3                     shl     bx, 1
  1.43AB  03D9                     add     bx, cx
  1.43AD  C1E302                   shl     bx, 02
  1.43B0  8987C20B                 mov     [bx+0BC2], ax
  1.43B4  8B5EFE                   mov     bx, [bp-02]
  1.43B7  C1E304                   shl     bx, 04
  1.43BA  8B870802                 mov     ax, [bx+0208]
  1.43BE  8B5EFE                   mov     bx, [bp-02]
  1.43C1  C1E304                   shl     bx, 04
  1.43C4  035EFC                   add     bx, [bp-04]
  1.43C7  8BCB                     mov     cx, bx
  1.43C9  D1E3                     shl     bx, 1
  1.43CB  03D9                     add     bx, cx
  1.43CD  C1E302                   shl     bx, 02
  1.43D0  8987C40B                 mov     [bx+0BC4], ax
  1.43D4  8B5EFE                   mov     bx, [bp-02]
  1.43D7  C1E304                   shl     bx, 04
  1.43DA  035EFC                   add     bx, [bp-04]
  1.43DD  8BC3                     mov     ax, bx
  1.43DF  D1E3                     shl     bx, 1
  1.43E1  03D8                     add     bx, ax
  1.43E3  C1E302                   shl     bx, 02
  1.43E6  C787CA0B2800             mov     word ptr [bx+0BCA], 0028
  1.43EC  8B5EFE                   mov     bx, [bp-02]
  1.43EF  C1E304                   shl     bx, 04
  1.43F2  035EFC                   add     bx, [bp-04]
  1.43F5  8BC3                     mov     ax, bx
  1.43F7  D1E3                     shl     bx, 1
  1.43F9  03D8                     add     bx, ax
  1.43FB  C1E302                   shl     bx, 02
  1.43FE  C787CC0B2800             mov     word ptr [bx+0BCC], 0028
  1.4404  6B46FC28                 imul    ax, [bp-04], 0028
  1.4408  8B5EFE                   mov     bx, [bp-02]
  1.440B  C1E304                   shl     bx, 04
  1.440E  035EFC                   add     bx, [bp-04]
  1.4411  8BCB                     mov     cx, bx
  1.4413  D1E3                     shl     bx, 1
  1.4415  03D9                     add     bx, cx
  1.4417  C1E302                   shl     bx, 02
  1.441A  8987C60B                 mov     [bx+0BC6], ax
  1.441E  8B5EFE                   mov     bx, [bp-02]
  1.4421  C1E304                   shl     bx, 04
  1.4424  035EFC                   add     bx, [bp-04]
  1.4427  8BC3                     mov     ax, bx
  1.4429  D1E3                     shl     bx, 1
  1.442B  03D8                     add     bx, ax
  1.442D  C1E302                   shl     bx, 02
  1.4430  C787C80B0000             mov     word ptr [bx+0BC8], 0000
  1.4436  8B5EFE                   mov     bx, [bp-02]
  1.4439  C1E304                   shl     bx, 04
  1.443C  8B870603                 mov     ax, [bx+0306]
  1.4440  8B5EFE                   mov     bx, [bp-02]
  1.4443  C1E304                   shl     bx, 04
  1.4446  035EFC                   add     bx, [bp-04]
  1.4449  8BCB                     mov     cx, bx
  1.444B  D1E3                     shl     bx, 1
  1.444D  03D9                     add     bx, cx
  1.444F  C1E302                   shl     bx, 02
  1.4452  8987C217                 mov     [bx+17C2], ax
  1.4456  8B5EFE                   mov     bx, [bp-02]
  1.4459  C1E304                   shl     bx, 04
  1.445C  8B870803                 mov     ax, [bx+0308]
  1.4460  8B5EFE                   mov     bx, [bp-02]
  1.4463  C1E304                   shl     bx, 04
  1.4466  035EFC                   add     bx, [bp-04]
  1.4469  8BCB                     mov     cx, bx
  1.446B  D1E3                     shl     bx, 1
  1.446D  03D9                     add     bx, cx
  1.446F  C1E302                   shl     bx, 02
  1.4472  8987C417                 mov     [bx+17C4], ax
  1.4476  8B5EFE                   mov     bx, [bp-02]
  1.4479  C1E304                   shl     bx, 04
  1.447C  035EFC                   add     bx, [bp-04]
  1.447F  8BC3                     mov     ax, bx
  1.4481  D1E3                     shl     bx, 1
  1.4483  03D8                     add     bx, ax
  1.4485  C1E302                   shl     bx, 02
  1.4488  C787CA172800             mov     word ptr [bx+17CA], 0028
  1.448E  8B5EFE                   mov     bx, [bp-02]
  1.4491  C1E304                   shl     bx, 04
  1.4494  035EFC                   add     bx, [bp-04]
  1.4497  8BC3                     mov     ax, bx
  1.4499  D1E3                     shl     bx, 1
  1.449B  03D8                     add     bx, ax
  1.449D  C1E302                   shl     bx, 02
  1.44A0  C787CC172800             mov     word ptr [bx+17CC], 0028
  1.44A6  B80F00                   mov     ax, 000F
  1.44A9  2B46FC                   sub     ax, [bp-04]
  1.44AC  6BC028                   imul    ax, 0028
  1.44AF  8B5EFE                   mov     bx, [bp-02]
  1.44B2  C1E304                   shl     bx, 04
  1.44B5  035EFC                   add     bx, [bp-04]
  1.44B8  8BCB                     mov     cx, bx
  1.44BA  D1E3                     shl     bx, 1
  1.44BC  03D9                     add     bx, cx
  1.44BE  C1E302                   shl     bx, 02
  1.44C1  8987C617                 mov     [bx+17C6], ax
  1.44C5  8B5EFE                   mov     bx, [bp-02]
  1.44C8  C1E304                   shl     bx, 04
  1.44CB  035EFC                   add     bx, [bp-04]
  1.44CE  8BC3                     mov     ax, bx
  1.44D0  D1E3                     shl     bx, 1
  1.44D2  03D8                     add     bx, ax
  1.44D4  C1E302                   shl     bx, 02
  1.44D7  C787C8170000             mov     word ptr [bx+17C8], 0000
  1.44DD  E9A9FE                   jmp     4389

  1.44E0 >E925FE                   jmp     4308

  1.44E3 >B80100                   mov     ax, 0001
  1.44E6  E90000                   jmp     44E9

  1.44E9 >5E                       pop     si
  1.44EA  5F                       pop     di
  1.44EB  C9                       leave  
  1.44EC  CB                       retf   
  1.44ED  55                       push    bp
  1.44EE  8BEC                     mov     bp, sp
  1.44F0  B80200                   mov     ax, 0002
  1.44F3  9A12072C45               call    1:0712
  1.44F8  57                       push    di
  1.44F9  56                       push    si
  1.44FA  C746FE0000               mov     word ptr [bp-02], 0000
  1.44FF  E90300                   jmp     4505

  1.4502 >FF46FE                   inc     word ptr [bp-02]

  1.4505 >837EFE10                 cmp     word ptr [bp-02], 0010
  1.4509  0F8D4800                 jnl     4555
  1.450D  8B5EFE                   mov     bx, [bp-02]
  1.4510  C1E304                   shl     bx, 04
  1.4513  83BF020200               cmp     word ptr [bx+0202], 0000
  1.4518  0F850300                 jne     451F
  1.451C  E93600                   jmp     4555

  1.451F >8B46FE                   mov     ax, [bp-02]
  1.4522  C1E004                   shl     ax, 04
  1.4525  050602                   add     ax, 0206
  1.4528  50                       push    ax
  1.4529  9AEC2E4D45               call    1:2EEC
  1.452E  83C402                   add     sp, 0002
  1.4531  8B5EFE                   mov     bx, [bp-02]
  1.4534  C1E304                   shl     bx, 04
  1.4537  83BF040201               cmp     word ptr [bx+0204], 0001
  1.453C  0F851200                 jne     4552
  1.4540  8B46FE                   mov     ax, [bp-02]
  1.4543  C1E004                   shl     ax, 04
  1.4546  050603                   add     ax, 0306
  1.4549  50                       push    ax
  1.454A  9AEC2E6245               call    1:2EEC
  1.454F  83C402                   add     sp, 0002

  1.4552 >E9ADFF                   jmp     4502

  1.4555 >5E                       pop     si
  1.4556  5F                       pop     di
  1.4557  C9                       leave  
  1.4558  CB                       retf   
  1.4559  55                       push    bp
  1.455A  8BEC                     mov     bp, sp
  1.455C  B80000                   mov     ax, 0000
  1.455F  9A1207A741               call    1:0712
  1.4564  57                       push    di
  1.4565  56                       push    si
  1.4566  833ECA0500               cmp     word ptr [05CA], 0000
  1.456B  0F8E0F00                 jle     457E
  1.456F  833E200B00               cmp     word ptr [0B20], 0000
  1.4574  0F8D0600                 jnl     457E
  1.4578  C706C00B1800             mov     word ptr [0BC0], 0018

  1.457E >833ECA0500               cmp     word ptr [05CA], 0000
  1.4583  0F8D2200                 jnl     45A9
  1.4587  A1702D                   mov     ax, [2D70]
  1.458A  8B1E240B                 mov     bx, [0B24]
  1.458E  8BCB                     mov     cx, bx
  1.4590  D1E3                     shl     bx, 1
  1.4592  03D9                     add     bx, cx
  1.4594  C1E302                   shl     bx, 02
  1.4597  2B87CA0B                 sub     ax, [bx+0BCA]
  1.459B  3B06200B                 cmp     ax, [0B20]
  1.459F  0F8D0600                 jnl     45A9
  1.45A3  C706C00B1800             mov     word ptr [0BC0], 0018

  1.45A9 >833ECA0500               cmp     word ptr [05CA], 0000
  1.45AE  0F8E3400                 jle     45E6
  1.45B2  A1702D                   mov     ax, [2D70]
  1.45B5  8B1E240B                 mov     bx, [0B24]
  1.45B9  8BCB                     mov     cx, bx
  1.45BB  D1E3                     shl     bx, 1
  1.45BD  03D9                     add     bx, cx
  1.45BF  C1E302                   shl     bx, 02
  1.45C2  2B87CA0B                 sub     ax, [bx+0BCA]
  1.45C6  3B06200B                 cmp     ax, [0B20]
  1.45CA  0F8E1800                 jle     45E6
  1.45CE  9AB612FB45               call    1:12B6
  1.45D3  B91400                   mov     cx, 0014
  1.45D6  99                       cwd    
  1.45D7  F7F9                     idiv    cx
  1.45D9  83FA00                   cmp     dx, 0000
  1.45DC  0F850600                 jne     45E6
  1.45E0  C706C00B1800             mov     word ptr [0BC0], 0018

  1.45E6 >833ECA0500               cmp     word ptr [05CA], 0000
  1.45EB  0F8D2100                 jnl     4610
  1.45EF  833E200B00               cmp     word ptr [0B20], 0000
  1.45F4  0F8E1800                 jle     4610
  1.45F8  9AB6121D46               call    1:12B6
  1.45FD  B91400                   mov     cx, 0014
  1.4600  99                       cwd    
  1.4601  F7F9                     idiv    cx
  1.4603  83FA00                   cmp     dx, 0000
  1.4606  0F850600                 jne     4610
  1.460A  C706C00B1800             mov     word ptr [0BC0], 0018

  1.4610 >5E                       pop     si
  1.4611  5F                       pop     di
  1.4612  C9                       leave  
  1.4613  CB                       retf   
  1.4614  55                       push    bp
  1.4615  8BEC                     mov     bp, sp
  1.4617  B80000                   mov     ax, 0000
  1.461A  9A12078F46               call    1:0712
  1.461F  57                       push    di
  1.4620  56                       push    si
  1.4621  833E1C0B00               cmp     word ptr [0B1C], 0000
  1.4626  0F854300                 jne     466D
  1.462A  833ECA0500               cmp     word ptr [05CA], 0000
  1.462F  0F8E0F00                 jle     4642
  1.4633  833E200B00               cmp     word ptr [0B20], 0000
  1.4638  0F8D0600                 jnl     4642
  1.463C  C706C00B1E00             mov     word ptr [0BC0], 001E

  1.4642 >833ECA0500               cmp     word ptr [05CA], 0000
  1.4647  0F8D2200                 jnl     466D
  1.464B  A1702D                   mov     ax, [2D70]
  1.464E  8B1E240B                 mov     bx, [0B24]
  1.4652  8BCB                     mov     cx, bx
  1.4654  D1E3                     shl     bx, 1
  1.4656  03D9                     add     bx, cx
  1.4658  C1E302                   shl     bx, 02
  1.465B  2B87CA0B                 sub     ax, [bx+0BCA]
  1.465F  3B06200B                 cmp     ax, [0B20]
  1.4663  0F8D0600                 jnl     466D
  1.4667  C706C00B1E00             mov     word ptr [0BC0], 001E

  1.466D >837E0600                 cmp     word ptr [bp+06], 0000
  1.4671  0F845900                 je      46CE
  1.4675  833ECA0500               cmp     word ptr [05CA], 0000
  1.467A  0F8E2600                 jle     46A4
  1.467E  A1702D                   mov     ax, [2D70]
  1.4681  2D5000                   sub     ax, 0050
  1.4684  3B06200B                 cmp     ax, [0B20]
  1.4688  0F8E1800                 jle     46A4
  1.468C  9AB612B946               call    1:12B6
  1.4691  B91400                   mov     cx, 0014
  1.4694  99                       cwd    
  1.4695  F7F9                     idiv    cx
  1.4697  83FA00                   cmp     dx, 0000
  1.469A  0F850600                 jne     46A4
  1.469E  C706C00B1800             mov     word ptr [0BC0], 0018

  1.46A4 >833ECA0500               cmp     word ptr [05CA], 0000
  1.46A9  0F8D2100                 jnl     46CE
  1.46AD  833E200B28               cmp     word ptr [0B20], 0028
  1.46B2  0F8E1800                 jle     46CE
  1.46B6  9AB612DB46               call    1:12B6
  1.46BB  B91400                   mov     cx, 0014
  1.46BE  99                       cwd    
  1.46BF  F7F9                     idiv    cx
  1.46C1  83FA00                   cmp     dx, 0000
  1.46C4  0F850600                 jne     46CE
  1.46C8  C706C00B1800             mov     word ptr [0BC0], 0018

  1.46CE >5E                       pop     si
  1.46CF  5F                       pop     di
  1.46D0  C9                       leave  
  1.46D1  CB                       retf   
  1.46D2  55                       push    bp
  1.46D3  8BEC                     mov     bp, sp
  1.46D5  B80200                   mov     ax, 0002
  1.46D8  9A12070047               call    1:0712
  1.46DD  57                       push    di
  1.46DE  56                       push    si
  1.46DF  A1460B                   mov     ax, [0B46]
  1.46E2  FF0E460B                 dec     word ptr [0B46]
  1.46E6  3D0000                   cmp     ax, 0000
  1.46E9  0F8F0600                 jg      46F3
  1.46ED  C706C00B2A00             mov     word ptr [0BC0], 002A

  1.46F3 >5E                       pop     si
  1.46F4  5F                       pop     di
  1.46F5  C9                       leave  
  1.46F6  CB                       retf   
  1.46F7  55                       push    bp
  1.46F8  8BEC                     mov     bp, sp
  1.46FA  B80E00                   mov     ax, 000E
  1.46FD  9A12075A47               call    1:0712
  1.4702  57                       push    di
  1.4703  56                       push    si
  1.4704  833E520B00               cmp     word ptr [0B52], 0000
  1.4709  0F847000                 je      477D
  1.470D  9AFFFF0000               call    USER.GETTICKCOUNT
  1.4712  8946F6                   mov     [bp-0A], ax
  1.4715  8956F8                   mov     [bp-08], dx
  1.4718  A1540B                   mov     ax, [0B54]
  1.471B  8B16560B                 mov     dx, [0B56]
  1.471F  05E803                   add     ax, 03E8
  1.4722  83D200                   adc     dx, 0000
  1.4725  3B56F8                   cmp     dx, [bp-08]
  1.4728  0F874E00                 ja      477A
  1.472C  0F820700                 jb      4737
  1.4730  3B46F6                   cmp     ax, [bp-0A]
  1.4733  0F834300                 jnb     477A

  1.4737 >8B46F6                   mov     ax, [bp-0A]
  1.473A  8B56F8                   mov     dx, [bp-08]
  1.473D  A3540B                   mov     [0B54], ax
  1.4740  8916560B                 mov     [0B56], dx
  1.4744  FF0E520B                 dec     word ptr [0B52]
  1.4748  833E520B00               cmp     word ptr [0B52], 0000
  1.474D  0F841100                 je      4762
  1.4751  6A00                     push    0000
  1.4753  6A00                     push    0000
  1.4755  6A6C                     push    006C
  1.4757  9A10429B47               call    1:4210
  1.475C  83C406                   add     sp, 0006
  1.475F  E91800                   jmp     477A

  1.4762 >833E962D00               cmp     word ptr [2D96], 0000
  1.4767  0F840900                 je      4774
  1.476B  C706C00B7100             mov     word ptr [0BC0], 0071
  1.4771  E90600                   jmp     477A

  1.4774 >C706C00B0100             mov     word ptr [0BC0], 0001

  1.477A >E98600                   jmp     4803

  1.477D >A1580B                   mov     ax, [0B58]
  1.4780  FF06580B                 inc     word ptr [0B58]
  1.4784  3D0A00                   cmp     ax, 000A
  1.4787  0F8D0300                 jnl     478E
  1.478B  E97500                   jmp     4803

  1.478E >C706580B0000             mov     word ptr [0B58], 0000
  1.4794  8D46FA                   lea     ax, [bp-06]
  1.4797  50                       push    ax
  1.4798  9A240FA747               call    1:0F24
  1.479D  83C402                   add     sp, 0002
  1.47A0  8D46FA                   lea     ax, [bp-06]
  1.47A3  50                       push    ax
  1.47A4  9A260EE647               call    1:0E26
  1.47A9  83C402                   add     sp, 0002
  1.47AC  8946FE                   mov     [bp-02], ax
  1.47AF  8B5EFE                   mov     bx, [bp-02]
  1.47B2  8B4704                   mov     ax, [bx+04]
  1.47B5  B90C00                   mov     cx, 000C
  1.47B8  99                       cwd    
  1.47B9  F7F9                     idiv    cx
  1.47BB  8956F4                   mov     [bp-0C], dx
  1.47BE  837EF400                 cmp     word ptr [bp-0C], 0000
  1.47C2  0F850800                 jne     47CE
  1.47C6  C746F40C00               mov     word ptr [bp-0C], 000C
  1.47CB  E90000                   jmp     47CE

  1.47CE >8B5EFE                   mov     bx, [bp-02]
  1.47D1  837F0200                 cmp     word ptr [bx+02], 0000
  1.47D5  0F852A00                 jne     4803
  1.47D9  A1500B                   mov     ax, [0B50]
  1.47DC  3946F4                   cmp     [bp-0C], ax
  1.47DF  0F842000                 je      4803
  1.47E3  9A962A1048               call    1:2A96
  1.47E8  2BC0                     sub     ax, ax
  1.47EA  A3560B                   mov     [0B56], ax
  1.47ED  A3540B                   mov     [0B54], ax
  1.47F0  8B46F4                   mov     ax, [bp-0C]
  1.47F3  A3500B                   mov     [0B50], ax
  1.47F6  A1500B                   mov     ax, [0B50]
  1.47F9  40                       inc     ax
  1.47FA  A3520B                   mov     [0B52], ax
  1.47FD  C706C00B5100             mov     word ptr [0BC0], 0051

  1.4803 >5E                       pop     si
  1.4804  5F                       pop     di
  1.4805  C9                       leave  
  1.4806  CB                       retf   
  1.4807  55                       push    bp
  1.4808  8BEC                     mov     bp, sp
  1.480A  B80000                   mov     ax, 0000
  1.480D  9A12074E48               call    1:0712
  1.4812  57                       push    di
  1.4813  56                       push    si
  1.4814  FF36D023                 push    word ptr [23D0]
  1.4818  6A00                     push    0000
  1.481A  FF36200B                 push    word ptr [0B20]
  1.481E  9A2E480000               call    USER.SETWINDOWWORD
  1.4823  FF36D023                 push    word ptr [23D0]
  1.4827  6A02                     push    0002
  1.4829  FF36220B                 push    word ptr [0B22]
  1.482D  9AFFFF0000               call    USER.SETWINDOWWORD
  1.4832  837E0A09                 cmp     word ptr [bp+0A], 0009
  1.4836  0F8C1C00                 jl      4856
  1.483A  837E0A0E                 cmp     word ptr [bp+0A], 000E
  1.483E  0F8F1400                 jg      4856
  1.4842  FF760A                   push    word ptr [bp+0A]
  1.4845  FF7608                   push    word ptr [bp+08]
  1.4848  FF7606                   push    word ptr [bp+06]
  1.484B  9AA8316B48               call    1:31A8
  1.4850  83C406                   add     sp, 0006
  1.4853  E93200                   jmp     4888

  1.4856 >833ECA0500               cmp     word ptr [05CA], 0000
  1.485B  0F8E1400                 jle     4873
  1.485F  FF760A                   push    word ptr [bp+0A]
  1.4862  FF7608                   push    word ptr [bp+08]
  1.4865  FF7606                   push    word ptr [bp+06]
  1.4868  9AA8318348               call    1:31A8
  1.486D  83C406                   add     sp, 0006
  1.4870  E91500                   jmp     4888

  1.4873 >8B460A                   mov     ax, [bp+0A]
  1.4876  050001                   add     ax, 0100
  1.4879  50                       push    ax
  1.487A  FF7608                   push    word ptr [bp+08]
  1.487D  FF7606                   push    word ptr [bp+06]
  1.4880  9AA8319548               call    1:31A8
  1.4885  83C406                   add     sp, 0006

  1.4888 >5E                       pop     si
  1.4889  5F                       pop     di
  1.488A  C9                       leave  
  1.488B  CB                       retf   
  1.488C  55                       push    bp
  1.488D  8BEC                     mov     bp, sp
  1.488F  B80000                   mov     ax, 0000
  1.4892  9A1207B548               call    1:0712
  1.4897  57                       push    di
  1.4898  56                       push    si
  1.4899  837E0A09                 cmp     word ptr [bp+0A], 0009
  1.489D  0F8C1C00                 jl      48BD
  1.48A1  837E0A0E                 cmp     word ptr [bp+0A], 000E
  1.48A5  0F8F1400                 jg      48BD
  1.48A9  FF760A                   push    word ptr [bp+0A]
  1.48AC  FF7608                   push    word ptr [bp+08]
  1.48AF  FF7606                   push    word ptr [bp+06]
  1.48B2  9A5093D248               call    1:9350
  1.48B7  83C406                   add     sp, 0006
  1.48BA  E93200                   jmp     48EF

  1.48BD >833ECC0500               cmp     word ptr [05CC], 0000
  1.48C2  0F8E1400                 jle     48DA
  1.48C6  FF760A                   push    word ptr [bp+0A]
  1.48C9  FF7608                   push    word ptr [bp+08]
  1.48CC  FF7606                   push    word ptr [bp+06]
  1.48CF  9A5093EA48               call    1:9350
  1.48D4  83C406                   add     sp, 0006
  1.48D7  E91500                   jmp     48EF

  1.48DA >8B460A                   mov     ax, [bp+0A]
  1.48DD  050001                   add     ax, 0100
  1.48E0  50                       push    ax
  1.48E1  FF7608                   push    word ptr [bp+08]
  1.48E4  FF7606                   push    word ptr [bp+06]
  1.48E7  9A5093FC48               call    1:9350
  1.48EC  83C406                   add     sp, 0006

  1.48EF >5E                       pop     si
  1.48F0  5F                       pop     di
  1.48F1  C9                       leave  
  1.48F2  CB                       retf   
  1.48F3  55                       push    bp
  1.48F4  8BEC                     mov     bp, sp
  1.48F6  B80000                   mov     ax, 0000
  1.48F9  9A12072649               call    1:0712
  1.48FE  57                       push    di
  1.48FF  56                       push    si
  1.4900  837E0600                 cmp     word ptr [bp+06], 0000
  1.4904  0F850600                 jne     490E
  1.4908  B80100                   mov     ax, 0001
  1.490B  E90B00                   jmp     4919

  1.490E >FF7606                   push    word ptr [bp+06]
  1.4911  9AAF410000               call    USER.ISWINDOW
  1.4916  E90000                   jmp     4919

  1.4919 >5E                       pop     si
  1.491A  5F                       pop     di
  1.491B  C9                       leave  
  1.491C  CB                       retf   
  1.491D  55                       push    bp
  1.491E  8BEC                     mov     bp, sp
  1.4920  B80000                   mov     ax, 0000
  1.4923  9A12071942               call    1:0712
  1.4928  57                       push    di
  1.4929  56                       push    si
  1.492A  837E0600                 cmp     word ptr [bp+06], 0000
  1.492E  0F852B00                 jne     495D
  1.4932  C45E08                   les     bx, [bp+08]
  1.4935  26C7070000               mov     word ptr es:[bx], 0000
  1.493A  A1702D                   mov     ax, [2D70]
  1.493D  C45E08                   les     bx, [bp+08]
  1.4940  26894704                 mov     es:[bx+04], ax
  1.4944  A1722D                   mov     ax, [2D72]
  1.4947  C45E08                   les     bx, [bp+08]
  1.494A  26894702                 mov     es:[bx+02], ax
  1.494E  A1722D                   mov     ax, [2D72]
  1.4951  D1E0                     shl     ax, 1
  1.4953  C45E08                   les     bx, [bp+08]
  1.4956  26894706                 mov     es:[bx+06], ax
  1.495A  E90E00                   jmp     496B

  1.495D >FF7606                   push    word ptr [bp+06]
  1.4960  FF760A                   push    word ptr [bp+0A]
  1.4963  FF7608                   push    word ptr [bp+08]
  1.4966  9AC3410000               call    USER.GETWINDOWRECT

  1.496B >5E                       pop     si
  1.496C  5F                       pop     di
  1.496D  C9                       leave  
  1.496E  CB                       retf   
  1.496F  55                       push    bp
  1.4970  8BEC                     mov     bp, sp
  1.4972  B80800                   mov     ax, 0008
  1.4975  9A12079849               call    1:0712
  1.497A  57                       push    di
  1.497B  56                       push    si
  1.497C  833E1C0B00               cmp     word ptr [0B1C], 0000
  1.4981  0F850300                 jne     4988
  1.4985  E9AF01                   jmp     4B37

  1.4988 >833E3C0B00               cmp     word ptr [0B3C], 0000
  1.498D  0F847301                 je      4B04
  1.4991  FF363C0B                 push    word ptr [0B3C]
  1.4995  9AF348CA49               call    1:48F3
  1.499A  83C402                   add     sp, 0002
  1.499D  3D0000                   cmp     ax, 0000
  1.49A0  0F851A00                 jne     49BE
  1.49A4  837E0602                 cmp     word ptr [bp+06], 0002
  1.49A8  0F850900                 jne     49B5
  1.49AC  C706C00B5E00             mov     word ptr [0BC0], 005E
  1.49B2  E90600                   jmp     49BB

  1.49B5 >C706C00B6600             mov     word ptr [0BC0], 0066

  1.49BB >E97901                   jmp     4B37

  1.49BE >8D46F8                   lea     ax, [bp-08]
  1.49C1  16                       push    ss
  1.49C2  50                       push    ax
  1.49C3  FF363C0B                 push    word ptr [0B3C]
  1.49C7  9A1D49524A               call    1:491D
  1.49CC  83C406                   add     sp, 0006
  1.49CF  A1400B                   mov     ax, [0B40]
  1.49D2  3946FA                   cmp     [bp-06], ax
  1.49D5  0F8F1700                 jg      49F0
  1.49D9  A1200B                   mov     ax, [0B20]
  1.49DC  052800                   add     ax, 0028
  1.49DF  3B46F8                   cmp     ax, [bp-08]
  1.49E2  0F8C0A00                 jl      49F0
  1.49E6  A1200B                   mov     ax, [0B20]
  1.49E9  3946FC                   cmp     [bp-04], ax
  1.49EC  0F8D1A00                 jnl     4A0A

  1.49F0 >837E0602                 cmp     word ptr [bp+06], 0002
  1.49F4  0F850900                 jne     4A01
  1.49F8  C706C00B5E00             mov     word ptr [0BC0], 005E
  1.49FE  E90600                   jmp     4A07

  1.4A01 >C706C00B6600             mov     word ptr [0BC0], 0066

  1.4A07 >E92D01                   jmp     4B37

  1.4A0A >A1400B                   mov     ax, [0B40]
  1.4A0D  3946FA                   cmp     [bp-06], ax
  1.4A10  0F8D4600                 jnl     4A5A
  1.4A14  8B46FA                   mov     ax, [bp-06]
  1.4A17  8B1E240B                 mov     bx, [0B24]
  1.4A1B  8BCB                     mov     cx, bx
  1.4A1D  D1E3                     shl     bx, 1
  1.4A1F  03D9                     add     bx, cx
  1.4A21  C1E302                   shl     bx, 02
  1.4A24  2B87CC0B                 sub     ax, [bx+0BCC]
  1.4A28  A3220B                   mov     [0B22], ax
  1.4A2B  8B46FA                   mov     ax, [bp-06]
  1.4A2E  A3400B                   mov     [0B40], ax
  1.4A31  8B46FE                   mov     ax, [bp-02]
  1.4A34  A3440B                   mov     [0B44], ax
  1.4A37  8B46F8                   mov     ax, [bp-08]
  1.4A3A  A33E0B                   mov     [0B3E], ax
  1.4A3D  8B46FC                   mov     ax, [bp-04]
  1.4A40  A3420B                   mov     [0B42], ax
  1.4A43  FF36240B                 push    word ptr [0B24]
  1.4A47  FF36220B                 push    word ptr [0B22]
  1.4A4B  FF36200B                 push    word ptr [0B20]
  1.4A4F  9A0748B54A               call    1:4807
  1.4A54  83C406                   add     sp, 0006
  1.4A57  E9DD00                   jmp     4B37

  1.4A5A >837E0601                 cmp     word ptr [bp+06], 0001
  1.4A5E  0F857700                 jne     4AD9
  1.4A62  A1200B                   mov     ax, [0B20]
  1.4A65  050800                   add     ax, 0008
  1.4A68  3B46F8                   cmp     ax, [bp-08]
  1.4A6B  0F8D1B00                 jnl     4A8A
  1.4A6F  833ECA0500               cmp     word ptr [05CA], 0000
  1.4A74  0F8E1200                 jle     4A8A
  1.4A78  C706C00B6900             mov     word ptr [0BC0], 0069
  1.4A7E  8B46F8                   mov     ax, [bp-08]
  1.4A81  2D0A00                   sub     ax, 000A
  1.4A84  A3200B                   mov     [0B20], ax
  1.4A87  E9AD00                   jmp     4B37

  1.4A8A >A1200B                   mov     ax, [0B20]
  1.4A8D  052000                   add     ax, 0020
  1.4A90  3B46FC                   cmp     ax, [bp-04]
  1.4A93  0F8C1B00                 jl      4AB2
  1.4A97  833ECA0500               cmp     word ptr [05CA], 0000
  1.4A9C  0F8D1200                 jnl     4AB2
  1.4AA0  C706C00B6900             mov     word ptr [0BC0], 0069
  1.4AA6  8B46FC                   mov     ax, [bp-04]
  1.4AA9  2D1E00                   sub     ax, 001E
  1.4AAC  A3200B                   mov     [0B20], ax
  1.4AAF  E98500                   jmp     4B37

  1.4AB2 >9AB612444B               call    1:12B6
  1.4AB7  B91400                   mov     cx, 0014
  1.4ABA  99                       cwd    
  1.4ABB  F7F9                     idiv    cx
  1.4ABD  4A                       dec     dx
  1.4ABE  0F851700                 jne     4AD9
  1.4AC2  A1722D                   mov     ax, [2D72]
  1.4AC5  2B06220B                 sub     ax, [0B22]
  1.4AC9  3D6400                   cmp     ax, 0064
  1.4ACC  0F8E0900                 jle     4AD9
  1.4AD0  C706C00B6800             mov     word ptr [0BC0], 0068
  1.4AD6  E95E00                   jmp     4B37

  1.4AD9 >837E0602                 cmp     word ptr [bp+06], 0002
  1.4ADD  0F852300                 jne     4B04
  1.4AE1  A1200B                   mov     ax, [0B20]
  1.4AE4  052000                   add     ax, 0020
  1.4AE7  3B46F8                   cmp     ax, [bp-08]
  1.4AEA  0F8C0D00                 jl      4AFB
  1.4AEE  A1200B                   mov     ax, [0B20]
  1.4AF1  050800                   add     ax, 0008
  1.4AF4  3B46FC                   cmp     ax, [bp-04]
  1.4AF7  0F8E0900                 jle     4B04

  1.4AFB >C706C00B5E00             mov     word ptr [0BC0], 005E
  1.4B01  E93300                   jmp     4B37

  1.4B04 >8B1E240B                 mov     bx, [0B24]
  1.4B08  8BC3                     mov     ax, bx
  1.4B0A  D1E3                     shl     bx, 1
  1.4B0C  03D8                     add     bx, ax
  1.4B0E  C1E302                   shl     bx, 02
  1.4B11  8B87CA0B                 mov     ax, [bx+0BCA]
  1.4B15  0306200B                 add     ax, [0B20]
  1.4B19  3D0000                   cmp     ax, 0000
  1.4B1C  0F8C0B00                 jl      4B2B
  1.4B20  A1702D                   mov     ax, [2D70]
  1.4B23  3906200B                 cmp     [0B20], ax
  1.4B27  0F8E0900                 jle     4B34

  1.4B2B >C706C00B0000             mov     word ptr [0BC0], 0000
  1.4B31  E90300                   jmp     4B37

  1.4B34 >E90000                   jmp     4B37

  1.4B37 >5E                       pop     si
  1.4B38  5F                       pop     di
  1.4B39  C9                       leave  
  1.4B3A  CB                       retf   
  1.4B3B  55                       push    bp
  1.4B3C  8BEC                     mov     bp, sp
  1.4B3E  B80800                   mov     ax, 0008
  1.4B41  9A1207644B               call    1:0712
  1.4B46  57                       push    di
  1.4B47  56                       push    si
  1.4B48  833E1C0B00               cmp     word ptr [0B1C], 0000
  1.4B4D  0F850300                 jne     4B54
  1.4B51  E9C900                   jmp     4C1D

  1.4B54 >833E3C0B00               cmp     word ptr [0B3C], 0000
  1.4B59  0F84BD00                 je      4C1A
  1.4B5D  FF363C0B                 push    word ptr [0B3C]
  1.4B61  9AF348854B               call    1:48F3
  1.4B66  83C402                   add     sp, 0002
  1.4B69  3D0000                   cmp     ax, 0000
  1.4B6C  0F850900                 jne     4B79
  1.4B70  C706C00B6600             mov     word ptr [0BC0], 0066
  1.4B76  E9A400                   jmp     4C1D

  1.4B79 >8D46F8                   lea     ax, [bp-08]
  1.4B7C  16                       push    ss
  1.4B7D  50                       push    ax
  1.4B7E  FF363C0B                 push    word ptr [0B3C]
  1.4B82  9A1D490C4C               call    1:491D
  1.4B87  83C406                   add     sp, 0006
  1.4B8A  A1420B                   mov     ax, [0B42]
  1.4B8D  3946FC                   cmp     [bp-04], ax
  1.4B90  0F8D0900                 jnl     4B9D
  1.4B94  833ECA0500               cmp     word ptr [05CA], 0000
  1.4B99  0F8F1300                 jg      4BB0

  1.4B9D >A13E0B                   mov     ax, [0B3E]
  1.4BA0  3946F8                   cmp     [bp-08], ax
  1.4BA3  0F8E1200                 jle     4BB9
  1.4BA7  833ECA0500               cmp     word ptr [05CA], 0000
  1.4BAC  0F8D0900                 jnl     4BB9

  1.4BB0 >C706C00B6600             mov     word ptr [0BC0], 0066
  1.4BB6  E96400                   jmp     4C1D

  1.4BB9 >A1420B                   mov     ax, [0B42]
  1.4BBC  3946FC                   cmp     [bp-04], ax
  1.4BBF  0F8E0900                 jle     4BCC
  1.4BC3  833ECA0500               cmp     word ptr [05CA], 0000
  1.4BC8  0F8F1300                 jg      4BDF

  1.4BCC >A13E0B                   mov     ax, [0B3E]
  1.4BCF  3946F8                   cmp     [bp-08], ax
  1.4BD2  0F8D4400                 jnl     4C1A
  1.4BD6  833ECA0500               cmp     word ptr [05CA], 0000
  1.4BDB  0F8D3B00                 jnl     4C1A

  1.4BDF >833ECA0500               cmp     word ptr [05CA], 0000
  1.4BE4  0F8E0C00                 jle     4BF4
  1.4BE8  8B46FC                   mov     ax, [bp-04]
  1.4BEB  050A00                   add     ax, 000A
  1.4BEE  A3200B                   mov     [0B20], ax
  1.4BF1  E90900                   jmp     4BFD

  1.4BF4 >8B46F8                   mov     ax, [bp-08]
  1.4BF7  2D3200                   sub     ax, 0032
  1.4BFA  A3200B                   mov     [0B20], ax

  1.4BFD >FF36240B                 push    word ptr [0B24]
  1.4C01  FF36220B                 push    word ptr [0B22]
  1.4C05  FF36200B                 push    word ptr [0B20]
  1.4C09  9A07482A4C               call    1:4807
  1.4C0E  83C406                   add     sp, 0006
  1.4C11  C706C00B6600             mov     word ptr [0BC0], 0066
  1.4C17  E90300                   jmp     4C1D

  1.4C1A >E90000                   jmp     4C1D

  1.4C1D >5E                       pop     si
  1.4C1E  5F                       pop     di
  1.4C1F  C9                       leave  
  1.4C20  CB                       retf   
  1.4C21  55                       push    bp
  1.4C22  8BEC                     mov     bp, sp
  1.4C24  B80000                   mov     ax, 0000
  1.4C27  9A1207654C               call    1:0712
  1.4C2C  57                       push    di
  1.4C2D  56                       push    si
  1.4C2E  8B4606                   mov     ax, [bp+06]
  1.4C31  394608                   cmp     [bp+08], ax
  1.4C34  0F8D1000                 jnl     4C48
  1.4C38  83460628                 add     word ptr [bp+06], 0028
  1.4C3C  8B4606                   mov     ax, [bp+06]
  1.4C3F  2D5000                   sub     ax, 0050
  1.4C42  894608                   mov     [bp+08], ax
  1.4C45  E90900                   jmp     4C51

  1.4C48 >8B4606                   mov     ax, [bp+06]
  1.4C4B  055000                   add     ax, 0050
  1.4C4E  894608                   mov     [bp+08], ax

  1.4C51 >A1220B                   mov     ax, [0B22]
  1.4C54  052800                   add     ax, 0028
  1.4C57  50                       push    ax
  1.4C58  FF36220B                 push    word ptr [0B22]
  1.4C5C  FF7608                   push    word ptr [bp+08]
  1.4C5F  FF7606                   push    word ptr [bp+06]
  1.4C62  9A363A9A4C               call    1:3A36
  1.4C67  83C408                   add     sp, 0008
  1.4C6A  3D0000                   cmp     ax, 0000
  1.4C6D  0F841C00                 je      4C8D
  1.4C71  837E0A01                 cmp     word ptr [bp+0A], 0001
  1.4C75  0F850600                 jne     4C7F
  1.4C79  C706C00B1800             mov     word ptr [0BC0], 0018

  1.4C7F >837E0A02                 cmp     word ptr [bp+0A], 0002
  1.4C83  0F850600                 jne     4C8D
  1.4C87  C706C00B1E00             mov     word ptr [0BC0], 001E

  1.4C8D >5E                       pop     si
  1.4C8E  5F                       pop     di
  1.4C8F  C9                       leave  
  1.4C90  CB                       retf   
  1.4C91  55                       push    bp
  1.4C92  8BEC                     mov     bp, sp
  1.4C94  B80000                   mov     ax, 0000
  1.4C97  9A1207D54C               call    1:0712
  1.4C9C  57                       push    di
  1.4C9D  56                       push    si
  1.4C9E  8B4606                   mov     ax, [bp+06]
  1.4CA1  394608                   cmp     [bp+08], ax
  1.4CA4  0F8D1000                 jnl     4CB8
  1.4CA8  83460628                 add     word ptr [bp+06], 0028
  1.4CAC  8B4606                   mov     ax, [bp+06]
  1.4CAF  2D5000                   sub     ax, 0050
  1.4CB2  894608                   mov     [bp+08], ax
  1.4CB5  E90900                   jmp     4CC1

  1.4CB8 >8B4606                   mov     ax, [bp+06]
  1.4CBB  055000                   add     ax, 0050
  1.4CBE  894608                   mov     [bp+08], ax

  1.4CC1 >A1220B                   mov     ax, [0B22]
  1.4CC4  052800                   add     ax, 0028
  1.4CC7  50                       push    ax
  1.4CC8  FF36220B                 push    word ptr [0B22]
  1.4CCC  FF7608                   push    word ptr [bp+08]
  1.4CCF  FF7606                   push    word ptr [bp+06]
  1.4CD2  9A363AEA4C               call    1:3A36
  1.4CD7  83C408                   add     sp, 0008
  1.4CDA  E90000                   jmp     4CDD

  1.4CDD >5E                       pop     si
  1.4CDE  5F                       pop     di
  1.4CDF  C9                       leave  
  1.4CE0  CB                       retf   
  1.4CE1  55                       push    bp
  1.4CE2  8BEC                     mov     bp, sp
  1.4CE4  B80000                   mov     ax, 0000
  1.4CE7  9A1207014D               call    1:0712
  1.4CEC  57                       push    di
  1.4CED  56                       push    si
  1.4CEE  C706C00B0000             mov     word ptr [0BC0], 0000
  1.4CF4  5E                       pop     si
  1.4CF5  5F                       pop     di
  1.4CF6  C9                       leave  
  1.4CF7  CB                       retf   
  1.4CF8  55                       push    bp
  1.4CF9  8BEC                     mov     bp, sp
  1.4CFB  B81400                   mov     ax, 0014
  1.4CFE  9A12071A4D               call    1:0712
  1.4D03  57                       push    di
  1.4D04  56                       push    si
  1.4D05  A16A0B                   mov     ax, [0B6A]
  1.4D08  FF066A0B                 inc     word ptr [0B6A]
  1.4D0C  3D6400                   cmp     ax, 0064
  1.4D0F  0F8E1200                 jle     4D25
  1.4D13  FF36D023                 push    word ptr [23D0]
  1.4D17  9A4C3BD145               call    1:3B4C
  1.4D1C  83C402                   add     sp, 0002
  1.4D1F  C7066A0B0000             mov     word ptr [0B6A], 0000

  1.4D25 >833ECC2300               cmp     word ptr [23CC], 0000
  1.4D2A  0F840500                 je      4D33
  1.4D2E  9AF746484D               call    1:46F7

  1.4D33 >A1C00B                   mov     ax, [0BC0]
  1.4D36  E95541                   jmp     8E8E
  1.4D39  C7061C0B0000             mov     word ptr [0B1C], 0000
  1.4D3F  9A0E470000               call    USER.GETTICKCOUNT
  1.4D44  50                       push    ax
  1.4D45  9A9E12804D               call    1:129E
  1.4D4A  83C402                   add     sp, 0002
  1.4D4D  C706200BB0FF             mov     word ptr [0B20], FFB0
  1.4D53  C706220BB0FF             mov     word ptr [0B22], FFB0
  1.4D59  C706C00B0100             mov     word ptr [0BC0], 0001
  1.4D5F  C706640B0000             mov     word ptr [0B64], 0000
  1.4D65  833E622D00               cmp     word ptr [2D62], 0000
  1.4D6A  0F840900                 je      4D77
  1.4D6E  C706C00B0200             mov     word ptr [0BC0], 0002
  1.4D74  E9BCFF                   jmp     4D33

  1.4D77 >C706922D0000             mov     word ptr [2D92], 0000
  1.4D7D  9A962A9D4D               call    1:2A96
  1.4D82  833E742D00               cmp     word ptr [2D74], 0000
  1.4D87  0F840F00                 je      4D9A
  1.4D8B  A1742D                   mov     ax, [2D74]
  1.4D8E  A3C00B                   mov     [0BC0], ax
  1.4D91  C706742D0000             mov     word ptr [2D74], 0000
  1.4D97  E93942                   jmp     8FD3

  1.4D9A >9AB612C14D               call    1:12B6
  1.4D9F  B91400                   mov     cx, 0014
  1.4DA2  99                       cwd    
  1.4DA3  F7F9                     idiv    cx
  1.4DA5  83FA05                   cmp     dx, 0005
  1.4DA8  0F851200                 jne     4DBE
  1.4DAC  833E1C0B00               cmp     word ptr [0B1C], 0000
  1.4DB1  0F850900                 jne     4DBE
  1.4DB5  C706C00B5500             mov     word ptr [0BC0], 0055
  1.4DBB  E91542                   jmp     8FD3

  1.4DBE >9AB612EE4D               call    1:12B6
  1.4DC3  B92800                   mov     cx, 0028
  1.4DC6  99                       cwd    
  1.4DC7  F7F9                     idiv    cx
  1.4DC9  83FA05                   cmp     dx, 0005
  1.4DCC  0F851B00                 jne     4DEB
  1.4DD0  833E1C0B00               cmp     word ptr [0B1C], 0000
  1.4DD5  0F851200                 jne     4DEB
  1.4DD9  833E5C2D00               cmp     word ptr [2D5C], 0000
  1.4DDE  0F850900                 jne     4DEB
  1.4DE2  C706C00B0400             mov     word ptr [0BC0], 0004
  1.4DE8  E9E841                   jmp     8FD3

  1.4DEB >9AB6122C4E               call    1:12B6
  1.4DF0  B95000                   mov     cx, 0050
  1.4DF3  99                       cwd    
  1.4DF4  F7F9                     idiv    cx
  1.4DF6  8BDA                     mov     bx, dx
  1.4DF8  D1E3                     shl     bx, 1
  1.4DFA  8B877A04                 mov     ax, [bx+047A]
  1.4DFE  A3C00B                   mov     [0BC0], ax
  1.4E01  A1702D                   mov     ax, [2D70]
  1.4E04  3906200B                 cmp     [0B20], ax
  1.4E08  0F8F1D00                 jg      4E29
  1.4E0C  833E200BD8               cmp     word ptr [0B20], FFD8
  1.4E11  0F8C1400                 jl      4E29
  1.4E15  833E220BD8               cmp     word ptr [0B22], FFD8
  1.4E1A  0F8C0B00                 jl      4E29
  1.4E1E  A1722D                   mov     ax, [2D72]
  1.4E21  3906220B                 cmp     [0B22], ax
  1.4E25  0F8E5E00                 jle     4E87

  1.4E29 >9AB612474E               call    1:12B6
  1.4E2E  A801                     test    al, 01
  1.4E30  0F852A00                 jne     4E5E
  1.4E34  C706CA050100             mov     word ptr [05CA], 0001
  1.4E3A  A1702D                   mov     ax, [2D70]
  1.4E3D  03066C2D                 add     ax, [2D6C]
  1.4E41  A3200B                   mov     [0B20], ax
  1.4E44  9AB6126D4E               call    1:12B6
  1.4E49  8B0E722D                 mov     cx, [2D72]
  1.4E4D  83E940                   sub     cx, 0040
  1.4E50  99                       cwd    
  1.4E51  F7F9                     idiv    cx
  1.4E53  03166E2D                 add     dx, [2D6E]
  1.4E57  8916220B                 mov     [0B22], dx
  1.4E5B  E92300                   jmp     4E81

  1.4E5E >C706CA05FFFF             mov     word ptr [05CA], FFFF
  1.4E64  C706200BD8FF             mov     word ptr [0B20], FFD8
  1.4E6A  9AB612994E               call    1:12B6
  1.4E6F  8B0E722D                 mov     cx, [2D72]
  1.4E73  83E940                   sub     cx, 0040
  1.4E76  99                       cwd    
  1.4E77  F7F9                     idiv    cx
  1.4E79  03166E2D                 add     dx, [2D6E]
  1.4E7D  8916220B                 mov     [0B22], dx

  1.4E81 >C706C00B0B00             mov     word ptr [0BC0], 000B

  1.4E87 >E94941                   jmp     8FD3
  1.4E8A  C7061C0B0100             mov     word ptr [0B1C], 0001
  1.4E90  C706922D0000             mov     word ptr [2D92], 0000
  1.4E96  9A962AB64E               call    1:2A96
  1.4E9B  833E742D00               cmp     word ptr [2D74], 0000
  1.4EA0  0F840F00                 je      4EB3
  1.4EA4  A1742D                   mov     ax, [2D74]
  1.4EA7  A3C00B                   mov     [0BC0], ax
  1.4EAA  C706742D0000             mov     word ptr [2D74], 0000
  1.4EB0  E92041                   jmp     8FD3

  1.4EB3 >9AB612F44E               call    1:12B6
  1.4EB8  B95000                   mov     cx, 0050
  1.4EBB  99                       cwd    
  1.4EBC  F7F9                     idiv    cx
  1.4EBE  8BDA                     mov     bx, dx
  1.4EC0  D1E3                     shl     bx, 1
  1.4EC2  8B871A05                 mov     ax, [bx+051A]
  1.4EC6  A3C00B                   mov     [0BC0], ax
  1.4EC9  A1702D                   mov     ax, [2D70]
  1.4ECC  3906200B                 cmp     [0B20], ax
  1.4ED0  0F8F1D00                 jg      4EF1
  1.4ED4  833E200BD8               cmp     word ptr [0B20], FFD8
  1.4ED9  0F8C1400                 jl      4EF1
  1.4EDD  833E220BD8               cmp     word ptr [0B22], FFD8
  1.4EE2  0F8C0B00                 jl      4EF1
  1.4EE6  A1722D                   mov     ax, [2D72]
  1.4EE9  3906220B                 cmp     [0B22], ax
  1.4EED  0F8E0401                 jle     4FF5

  1.4EF1 >9AB612434F               call    1:12B6
  1.4EF6  B90A00                   mov     cx, 000A
  1.4EF9  99                       cwd    
  1.4EFA  F7F9                     idiv    cx
  1.4EFC  83FA00                   cmp     dx, 0000
  1.4EFF  0F851200                 jne     4F15
  1.4F03  833E5C2D00               cmp     word ptr [2D5C], 0000
  1.4F08  0F850900                 jne     4F15
  1.4F0C  C706C00B0600             mov     word ptr [0BC0], 0006
  1.4F12  E9BE40                   jmp     8FD3

  1.4F15 >9AFFFF0000               call    USER.GETACTIVEWINDOW
  1.4F1A  A33C0B                   mov     [0B3C], ax
  1.4F1D  A1D023                   mov     ax, [23D0]
  1.4F20  39063C0B                 cmp     [0B3C], ax
  1.4F24  0F842700                 je      4F4F
  1.4F28  A1902D                   mov     ax, [2D90]
  1.4F2B  39063C0B                 cmp     [0B3C], ax
  1.4F2F  0F841C00                 je      4F4F
  1.4F33  833E3C0B00               cmp     word ptr [0B3C], 0000
  1.4F38  0F841300                 je      4F4F
  1.4F3C  FF363C0B                 push    word ptr [0B3C]
  1.4F40  9AD639634F               call    1:39D6
  1.4F45  83C402                   add     sp, 0002
  1.4F48  3D0000                   cmp     ax, 0000
  1.4F4B  0F840900                 je      4F58

  1.4F4F >C706C00B0300             mov     word ptr [0BC0], 0003
  1.4F55  E9DBFD                   jmp     4D33

  1.4F58 >1E                       push    ds
  1.4F59  683E0B                   push    0B3E
  1.4F5C  FF363C0B                 push    word ptr [0B3C]
  1.4F60  9A1D497D4F               call    1:491D
  1.4F65  83C406                   add     sp, 0006
  1.4F68  833E400B0A               cmp     word ptr [0B40], 000A
  1.4F6D  0F8D0900                 jnl     4F7A
  1.4F71  C706C00B0300             mov     word ptr [0BC0], 0003
  1.4F77  E9B9FD                   jmp     4D33

  1.4F7A >9AB612C84F               call    1:12B6
  1.4F7F  99                       cwd    
  1.4F80  F73E420B                 idiv    word ptr [0B42]
  1.4F84  8BC2                     mov     ax, dx
  1.4F86  2B063E0B                 sub     ax, [0B3E]
  1.4F8A  B90300                   mov     cx, 0003
  1.4F8D  99                       cwd    
  1.4F8E  F7F9                     idiv    cx
  1.4F90  8BD0                     mov     dx, ax
  1.4F92  A1420B                   mov     ax, [0B42]
  1.4F95  2B063E0B                 sub     ax, [0B3E]
  1.4F99  8BDA                     mov     bx, dx
  1.4F9B  99                       cwd    
  1.4F9C  2BC2                     sub     ax, dx
  1.4F9E  D1F8                     sar     ax, 1
  1.4FA0  03D8                     add     bx, ax
  1.4FA2  031E3E0B                 add     bx, [0B3E]
  1.4FA6  83EB14                   sub     bx, 0014
  1.4FA9  891E200B                 mov     [0B20], bx
  1.4FAD  C706220BD8FF             mov     word ptr [0B22], FFD8
  1.4FB3  C706600B0000             mov     word ptr [0B60], 0000
  1.4FB9  C706260B0000             mov     word ptr [0B26], 0000
  1.4FBF  C706280B0000             mov     word ptr [0B28], 0000
  1.4FC5  9AB612DD4F               call    1:12B6
  1.4FCA  B90200                   mov     cx, 0002
  1.4FCD  99                       cwd    
  1.4FCE  F7F9                     idiv    cx
  1.4FD0  8916620B                 mov     [0B62], dx
  1.4FD4  C706C00B5C00             mov     word ptr [0BC0], 005C
  1.4FDA  9AB6120150               call    1:12B6
  1.4FDF  B90300                   mov     cx, 0003
  1.4FE2  99                       cwd    
  1.4FE3  F7F9                     idiv    cx
  1.4FE5  83FA00                   cmp     dx, 0000
  1.4FE8  0F850900                 jne     4FF5
  1.4FEC  C706C00B0300             mov     word ptr [0BC0], 0003
  1.4FF2  E93EFD                   jmp     4D33

  1.4FF5 >E9DB3F                   jmp     8FD3
  1.4FF8  C7061C0B0100             mov     word ptr [0B1C], 0001
  1.4FFE  9AB6121450               call    1:12B6
  1.5003  8B0E702D                 mov     cx, [2D70]
  1.5007  83E928                   sub     cx, 0028
  1.500A  99                       cwd    
  1.500B  F7F9                     idiv    cx
  1.500D  8916200B                 mov     [0B20], dx
  1.5011  9AB6123A50               call    1:12B6
  1.5016  B91400                   mov     cx, 0014
  1.5019  99                       cwd    
  1.501A  F7F9                     idiv    cx
  1.501C  83EAD8                   sub     dx, FFD8
  1.501F  F7DA                     neg     dx
  1.5021  8916220B                 mov     [0B22], dx
  1.5025  C706600B0000             mov     word ptr [0B60], 0000
  1.502B  C706260B0000             mov     word ptr [0B26], 0000
  1.5031  C706280B0000             mov     word ptr [0B28], 0000
  1.5037  9AB6124950               call    1:12B6
  1.503C  B90200                   mov     cx, 0002
  1.503F  99                       cwd    
  1.5040  F7F9                     idiv    cx
  1.5042  8916620B                 mov     [0B62], dx
  1.5046  9AB6125F50               call    1:12B6
  1.504B  B90300                   mov     cx, 0003
  1.504E  99                       cwd    
  1.504F  F7F9                     idiv    cx
  1.5051  83FA00                   cmp     dx, 0000
  1.5054  0F850C00                 jne     5064
  1.5058  FF36D023                 push    word ptr [23D0]
  1.505C  9ABF2AAA50               call    1:2ABF
  1.5061  83C402                   add     sp, 0002

  1.5064 >C706C00B6100             mov     word ptr [0BC0], 0061
  1.506A  E9663F                   jmp     8FD3
  1.506D  E9633F                   jmp     8FD3
  1.5070  E9603F                   jmp     8FD3
  1.5073  A1702D                   mov     ax, [2D70]
  1.5076  99                       cwd    
  1.5077  2BC2                     sub     ax, dx
  1.5079  D1F8                     sar     ax, 1
  1.507B  2D1400                   sub     ax, 0014
  1.507E  3B06200B                 cmp     ax, [0B20]
  1.5082  0F8E0900                 jle     508F
  1.5086  C706CA050100             mov     word ptr [05CA], 0001
  1.508C  E90600                   jmp     5095

  1.508F >C706CA05FFFF             mov     word ptr [05CA], FFFF

  1.5095 >C706240B0400             mov     word ptr [0B24], 0004
  1.509B  FF36240B                 push    word ptr [0B24]
  1.509F  FF36220B                 push    word ptr [0B22]
  1.50A3  FF36200B                 push    word ptr [0B20]
  1.50A7  9A07487849               call    1:4807
  1.50AC  83C406                   add     sp, 0006
  1.50AF  C706C00B0500             mov     word ptr [0BC0], 0005
  1.50B5  E91B3F                   jmp     8FD3
  1.50B8  A15A0B                   mov     ax, [0B5A]
  1.50BB  FF065A0B                 inc     word ptr [0B5A]
  1.50BF  3D0100                   cmp     ax, 0001
  1.50C2  0F8D0300                 jnl     50C9
  1.50C6  E90A3F                   jmp     8FD3

  1.50C9 >C7065A0B0000             mov     word ptr [0B5A], 0000
  1.50CF  A1CA05                   mov     ax, [05CA]
  1.50D2  C1E004                   shl     ax, 04
  1.50D5  2906200B                 sub     [0B20], ax
  1.50D9  833E240B04               cmp     word ptr [0B24], 0004
  1.50DE  0F850600                 jne     50E8
  1.50E2  B80500                   mov     ax, 0005
  1.50E5  E90300                   jmp     50EB

  1.50E8 >B80400                   mov     ax, 0004

  1.50EB >A3240B                   mov     [0B24], ax
  1.50EE  FF36240B                 push    word ptr [0B24]
  1.50F2  FF36220B                 push    word ptr [0B22]
  1.50F6  FF36200B                 push    word ptr [0B20]
  1.50FA  9A07482251               call    1:4807
  1.50FF  83C406                   add     sp, 0006
  1.5102  833E200BD8               cmp     word ptr [0B20], FFD8
  1.5107  0F8C0B00                 jl      5116
  1.510B  A1702D                   mov     ax, [2D70]
  1.510E  3906200B                 cmp     [0B20], ax
  1.5112  0F8E0600                 jle     511C

  1.5116 >C706C00B0600             mov     word ptr [0BC0], 0006

  1.511C >E9B43E                   jmp     8FD3
  1.511F  9AB6124151               call    1:12B6
  1.5124  B90800                   mov     cx, 0008
  1.5127  99                       cwd    
  1.5128  F7F9                     idiv    cx
  1.512A  8BDA                     mov     bx, dx
  1.512C  D1E3                     shl     bx, 1
  1.512E  8B87BA05                 mov     ax, [bx+05BA]
  1.5132  A3C00B                   mov     [0BC0], ax
  1.5135  E99B3E                   jmp     8FD3
  1.5138  C7061E0B0000             mov     word ptr [0B1E], 0000
  1.513E  9AB6125B51               call    1:12B6
  1.5143  A801                     test    al, 01
  1.5145  0F850600                 jne     514F
  1.5149  C7061E0B0100             mov     word ptr [0B1E], 0001

  1.514F >833E1E0B00               cmp     word ptr [0B1E], 0000
  1.5154  0F840500                 je      515D
  1.5158  9AF03D7251               call    1:3DF0

  1.515D >C706240B0400             mov     word ptr [0B24], 0004
  1.5163  FF36240B                 push    word ptr [0B24]
  1.5167  FF36220B                 push    word ptr [0B22]
  1.516B  FF36200B                 push    word ptr [0B20]
  1.516F  9A07487A51               call    1:4807
  1.5174  83C406                   add     sp, 0006
  1.5177  9AB612DD51               call    1:12B6
  1.517C  B90A00                   mov     cx, 000A
  1.517F  99                       cwd    
  1.5180  F7F9                     idiv    cx
  1.5182  03D1                     add     dx, cx
  1.5184  8916460B                 mov     [0B46], dx
  1.5188  C706C00B0800             mov     word ptr [0BC0], 0008
  1.518E  E9423E                   jmp     8FD3
  1.5191  A15A0B                   mov     ax, [0B5A]
  1.5194  FF065A0B                 inc     word ptr [0B5A]
  1.5198  3D0100                   cmp     ax, 0001
  1.519B  0F8D0300                 jnl     51A2
  1.519F  E9313E                   jmp     8FD3

  1.51A2 >C7065A0B0000             mov     word ptr [0B5A], 0000
  1.51A8  833E1E0B00               cmp     word ptr [0B1E], 0000
  1.51AD  0F84A800                 je      5259
  1.51B1  833ECA0500               cmp     word ptr [05CA], 0000
  1.51B6  0F8E2E00                 jle     51E8
  1.51BA  FF36200B                 push    word ptr [0B20]
  1.51BE  A1CA05                   mov     ax, [05CA]
  1.51C1  C1E004                   shl     ax, 04
  1.51C4  2B06200B                 sub     ax, [0B20]
  1.51C8  F7D8                     neg     ax
  1.51CA  50                       push    ax
  1.51CB  A1220B                   mov     ax, [0B22]
  1.51CE  052800                   add     ax, 0028
  1.51D1  50                       push    ax
  1.51D2  FF36220B                 push    word ptr [0B22]
  1.51D6  8D46FA                   lea     ax, [bp-06]
  1.51D9  50                       push    ax
  1.51DA  9A7C3E1152               call    1:3E7C
  1.51DF  83C40A                   add     sp, 000A
  1.51E2  8946FE                   mov     [bp-02], ax
  1.51E5  E93100                   jmp     5219

  1.51E8 >A1200B                   mov     ax, [0B20]
  1.51EB  052800                   add     ax, 0028
  1.51EE  50                       push    ax
  1.51EF  A1CA05                   mov     ax, [05CA]
  1.51F2  C1E004                   shl     ax, 04
  1.51F5  2B06200B                 sub     ax, [0B20]
  1.51F9  F7D8                     neg     ax
  1.51FB  052800                   add     ax, 0028
  1.51FE  50                       push    ax
  1.51FF  A1220B                   mov     ax, [0B22]
  1.5202  052800                   add     ax, 0028
  1.5205  50                       push    ax
  1.5206  FF36220B                 push    word ptr [0B22]
  1.520A  8D46FA                   lea     ax, [bp-06]
  1.520D  50                       push    ax
  1.520E  9A7C3E4B52               call    1:3E7C
  1.5213  83C40A                   add     sp, 000A
  1.5216  8946FE                   mov     [bp-02], ax

  1.5219 >837EFE00                 cmp     word ptr [bp-02], 0000
  1.521D  0F843800                 je      5259
  1.5221  833ECA0500               cmp     word ptr [05CA], 0000
  1.5226  0F8E0900                 jle     5233
  1.522A  8B46FE                   mov     ax, [bp-02]
  1.522D  A3200B                   mov     [0B20], ax
  1.5230  E90900                   jmp     523C

  1.5233 >8B46FE                   mov     ax, [bp-02]
  1.5236  2D2800                   sub     ax, 0028
  1.5239  A3200B                   mov     [0B20], ax

  1.523C >FF36240B                 push    word ptr [0B24]
  1.5240  FF36220B                 push    word ptr [0B22]
  1.5244  FF36200B                 push    word ptr [0B20]
  1.5248  9A07489052               call    1:4807
  1.524D  83C406                   add     sp, 0006
  1.5250  C706C00B1E00             mov     word ptr [0BC0], 001E
  1.5256  E97A3D                   jmp     8FD3

  1.5259 >833E4C0B00               cmp     word ptr [0B4C], 0000
  1.525E  0F850A00                 jne     526C
  1.5262  A1CA05                   mov     ax, [05CA]
  1.5265  C1E004                   shl     ax, 04
  1.5268  2906200B                 sub     [0B20], ax

  1.526C >833E240B04               cmp     word ptr [0B24], 0004
  1.5271  0F850600                 jne     527B
  1.5275  B80500                   mov     ax, 0005
  1.5278  E90300                   jmp     527E

  1.527B >B80400                   mov     ax, 0004

  1.527E >A3240B                   mov     [0B24], ax
  1.5281  FF36240B                 push    word ptr [0B24]
  1.5285  FF36220B                 push    word ptr [0B22]
  1.5289  FF36200B                 push    word ptr [0B20]
  1.528D  9A07489852               call    1:4807
  1.5292  83C406                   add     sp, 0006
  1.5295  9AB612BB52               call    1:12B6
  1.529A  B93200                   mov     cx, 0032
  1.529D  99                       cwd    
  1.529E  F7F9                     idiv    cx
  1.52A0  83FA00                   cmp     dx, 0000
  1.52A3  0F850F00                 jne     52B6
  1.52A7  833E1C0B00               cmp     word ptr [0B1C], 0000
  1.52AC  0F840600                 je      52B6
  1.52B0  C706C00B0900             mov     word ptr [0BC0], 0009

  1.52B6 >6A01                     push    0001
  1.52B8  9A1446C352               call    1:4614
  1.52BD  83C402                   add     sp, 0002
  1.52C0  9AD246CA52               call    1:46D2
  1.52C5  6A02                     push    0002
  1.52C7  9A6F49EC52               call    1:496F
  1.52CC  83C402                   add     sp, 0002
  1.52CF  6A02                     push    0002
  1.52D1  A1CA05                   mov     ax, [05CA]
  1.52D4  C1E004                   shl     ax, 04
  1.52D7  0306200B                 add     ax, [0B20]
  1.52DB  50                       push    ax
  1.52DC  A1CA05                   mov     ax, [05CA]
  1.52DF  C1E004                   shl     ax, 04
  1.52E2  2B06200B                 sub     ax, [0B20]
  1.52E6  F7D8                     neg     ax
  1.52E8  50                       push    ax
  1.52E9  9A214C7D53               call    1:4C21
  1.52EE  83C406                   add     sp, 0006
  1.52F1  E9DF3C                   jmp     8FD3
  1.52F4  C706260BF5FF             mov     word ptr [0B26], FFF5
  1.52FA  A1CA05                   mov     ax, [05CA]
  1.52FD  C1E003                   shl     ax, 03
  1.5300  F7D8                     neg     ax
  1.5302  A3280B                   mov     [0B28], ax
  1.5305  A1220B                   mov     ax, [0B22]
  1.5308  A32C0B                   mov     [0B2C], ax
  1.530B  C706C00B0A00             mov     word ptr [0BC0], 000A
  1.5311  A1280B                   mov     ax, [0B28]
  1.5314  0106200B                 add     [0B20], ax
  1.5318  A1260B                   mov     ax, [0B26]
  1.531B  0106220B                 add     [0B22], ax
  1.531F  8306260B02               add     word ptr [0B26], 0002
  1.5324  833E260BFF               cmp     word ptr [0B26], FFFF
  1.5329  0F8C1200                 jl      533F
  1.532D  833E260B01               cmp     word ptr [0B26], 0001
  1.5332  0F8F0900                 jg      533F
  1.5336  C706240B1700             mov     word ptr [0B24], 0017
  1.533C  E91800                   jmp     5357

  1.533F >833E260BFF               cmp     word ptr [0B26], FFFF
  1.5344  0F8D0900                 jnl     5351
  1.5348  C706240B1E00             mov     word ptr [0B24], 001E
  1.534E  E90600                   jmp     5357

  1.5351 >C706240B1800             mov     word ptr [0B24], 0018

  1.5357 >A1220B                   mov     ax, [0B22]
  1.535A  39062C0B                 cmp     [0B2C], ax
  1.535E  0F8F0C00                 jg      536E
  1.5362  A12C0B                   mov     ax, [0B2C]
  1.5365  A3220B                   mov     [0B22], ax
  1.5368  C706C00B0700             mov     word ptr [0BC0], 0007

  1.536E >FF36240B                 push    word ptr [0B24]
  1.5372  FF36220B                 push    word ptr [0B22]
  1.5376  FF36200B                 push    word ptr [0B20]
  1.537A  9A07488753               call    1:4807
  1.537F  83C406                   add     sp, 0006
  1.5382  6A00                     push    0000
  1.5384  9A1446A153               call    1:4614
  1.5389  83C402                   add     sp, 0002
  1.538C  6A02                     push    0002
  1.538E  A1200B                   mov     ax, [0B20]
  1.5391  2B06280B                 sub     ax, [0B28]
  1.5395  50                       push    ax
  1.5396  A1280B                   mov     ax, [0B28]
  1.5399  0306200B                 add     ax, [0B20]
  1.539D  50                       push    ax
  1.539E  9A214CD053               call    1:4C21
  1.53A3  83C406                   add     sp, 0006
  1.53A6  833EC00B1E               cmp     word ptr [0BC0], 001E
  1.53AB  0F851500                 jne     53C4
  1.53AF  A1220B                   mov     ax, [0B22]
  1.53B2  39062C0B                 cmp     [0B2C], ax
  1.53B6  0F840A00                 je      53C4
  1.53BA  A1220B                   mov     ax, [0B22]
  1.53BD  2B062C0B                 sub     ax, [0B2C]
  1.53C1  A3640B                   mov     [0B64], ax

  1.53C4 >E90C3C                   jmp     8FD3
  1.53C7  C7061E0B0000             mov     word ptr [0B1E], 0000
  1.53CD  9AB612F653               call    1:12B6
  1.53D2  250100                   and     ax, 0001
  1.53D5  3D0100                   cmp     ax, 0001
  1.53D8  1BC0                     sbb     ax, ax
  1.53DA  F7D8                     neg     ax
  1.53DC  85061C0B                 test    [0B1C], ax
  1.53E0  0F840600                 je      53EA
  1.53E4  C7061E0B0100             mov     word ptr [0B1E], 0001

  1.53EA >833E1E0B00               cmp     word ptr [0B1E], 0000
  1.53EF  0F840500                 je      53F8
  1.53F3  9AF03DFB53               call    1:3DF0

  1.53F8 >9AB6121E54               call    1:12B6
  1.53FD  B90A00                   mov     cx, 000A
  1.5400  99                       cwd    
  1.5401  F7F9                     idiv    cx
  1.5403  03D1                     add     dx, cx
  1.5405  8916460B                 mov     [0B46], dx
  1.5409  C706240B0200             mov     word ptr [0B24], 0002
  1.540F  FF36240B                 push    word ptr [0B24]
  1.5413  FF36220B                 push    word ptr [0B22]
  1.5417  FF36200B                 push    word ptr [0B20]
  1.541B  9A07487D54               call    1:4807
  1.5420  83C406                   add     sp, 0006
  1.5423  C706C00B0C00             mov     word ptr [0BC0], 000C
  1.5429  E9A73B                   jmp     8FD3
  1.542C  A15A0B                   mov     ax, [0B5A]
  1.542F  FF065A0B                 inc     word ptr [0B5A]
  1.5433  3D0100                   cmp     ax, 0001
  1.5436  0F8D0300                 jnl     543D
  1.543A  E9963B                   jmp     8FD3

  1.543D >C7065A0B0000             mov     word ptr [0B5A], 0000
  1.5443  833E1E0B00               cmp     word ptr [0B1E], 0000
  1.5448  0F84DF00                 je      552B
  1.544C  833ECA0500               cmp     word ptr [05CA], 0000
  1.5451  0F8E3300                 jle     5488
  1.5455  FF36200B                 push    word ptr [0B20]
  1.5459  A1CA05                   mov     ax, [05CA]
  1.545C  8BC8                     mov     cx, ax
  1.545E  D1E0                     shl     ax, 1
  1.5460  03C1                     add     ax, cx
  1.5462  D1E0                     shl     ax, 1
  1.5464  2B06200B                 sub     ax, [0B20]
  1.5468  F7D8                     neg     ax
  1.546A  50                       push    ax
  1.546B  A1220B                   mov     ax, [0B22]
  1.546E  052800                   add     ax, 0028
  1.5471  50                       push    ax
  1.5472  FF36220B                 push    word ptr [0B22]
  1.5476  8D46FA                   lea     ax, [bp-06]
  1.5479  50                       push    ax
  1.547A  9A7C3E314D               call    1:3E7C
  1.547F  83C40A                   add     sp, 000A
  1.5482  8946FE                   mov     [bp-02], ax
  1.5485  E93600                   jmp     54BE

  1.5488 >A1200B                   mov     ax, [0B20]
  1.548B  052800                   add     ax, 0028
  1.548E  50                       push    ax
  1.548F  A1CA05                   mov     ax, [05CA]
  1.5492  8BC8                     mov     cx, ax
  1.5494  D1E0                     shl     ax, 1
  1.5496  03C1                     add     ax, cx
  1.5498  D1E0                     shl     ax, 1
  1.549A  2B06200B                 sub     ax, [0B20]
  1.549E  F7D8                     neg     ax
  1.54A0  052800                   add     ax, 0028
  1.54A3  50                       push    ax
  1.54A4  A1220B                   mov     ax, [0B22]
  1.54A7  052800                   add     ax, 0028
  1.54AA  50                       push    ax
  1.54AB  FF36220B                 push    word ptr [0B22]
  1.54AF  8D46FA                   lea     ax, [bp-06]
  1.54B2  50                       push    ax
  1.54B3  9A7C3EF254               call    1:3E7C
  1.54B8  83C40A                   add     sp, 000A
  1.54BB  8946FE                   mov     [bp-02], ax

  1.54BE >837EFE00                 cmp     word ptr [bp-02], 0000
  1.54C2  0F846500                 je      552B
  1.54C6  833ECA0500               cmp     word ptr [05CA], 0000
  1.54CB  0F8E0900                 jle     54D8
  1.54CF  8B46FE                   mov     ax, [bp-02]
  1.54D2  A3200B                   mov     [0B20], ax
  1.54D5  E90900                   jmp     54E1

  1.54D8 >8B46FE                   mov     ax, [bp-02]
  1.54DB  2D2800                   sub     ax, 0028
  1.54DE  A3200B                   mov     [0B20], ax

  1.54E1 >8B46FA                   mov     ax, [bp-06]
  1.54E4  A33C0B                   mov     [0B3C], ax
  1.54E7  1E                       push    ds
  1.54E8  683E0B                   push    0B3E
  1.54EB  FF363C0B                 push    word ptr [0B3C]
  1.54EF  9A1D491D55               call    1:491D
  1.54F4  83C406                   add     sp, 0006
  1.54F7  A1400B                   mov     ax, [0B40]
  1.54FA  2D0C00                   sub     ax, 000C
  1.54FD  A35E0B                   mov     [0B5E], ax
  1.5500  C7061C0B0100             mov     word ptr [0B1C], 0001
  1.5506  A1200B                   mov     ax, [0B20]
  1.5509  A35C0B                   mov     [0B5C], ax
  1.550C  C706240B1E00             mov     word ptr [0B24], 001E
  1.5512  FF363C0B                 push    word ptr [0B3C]
  1.5516  FF36D023                 push    word ptr [23D0]
  1.551A  9A012B6755               call    1:2B01
  1.551F  83C404                   add     sp, 0004
  1.5522  C706C00B5900             mov     word ptr [0BC0], 0059
  1.5528  E9A83A                   jmp     8FD3

  1.552B >833E4C0B00               cmp     word ptr [0B4C], 0000
  1.5530  0F850F00                 jne     5543
  1.5534  A1CA05                   mov     ax, [05CA]
  1.5537  8BC8                     mov     cx, ax
  1.5539  D1E0                     shl     ax, 1
  1.553B  03C1                     add     ax, cx
  1.553D  D1E0                     shl     ax, 1
  1.553F  2906200B                 sub     [0B20], ax

  1.5543 >833E240B02               cmp     word ptr [0B24], 0002
  1.5548  0F850600                 jne     5552
  1.554C  B80300                   mov     ax, 0003
  1.554F  E90300                   jmp     5555

  1.5552 >B80200                   mov     ax, 0002

  1.5555 >A3240B                   mov     [0B24], ax
  1.5558  FF36240B                 push    word ptr [0B24]
  1.555C  FF36220B                 push    word ptr [0B22]
  1.5560  FF36200B                 push    word ptr [0B20]
  1.5564  9A07486F55               call    1:4807
  1.5569  83C406                   add     sp, 0006
  1.556C  9A59457455               call    1:4559
  1.5571  9AD2467B55               call    1:46D2
  1.5576  6A01                     push    0001
  1.5578  9A6F49A755               call    1:496F
  1.557D  83C402                   add     sp, 0002
  1.5580  6A01                     push    0001
  1.5582  A1CA05                   mov     ax, [05CA]
  1.5585  8BC8                     mov     cx, ax
  1.5587  D1E0                     shl     ax, 1
  1.5589  03C1                     add     ax, cx
  1.558B  D1E0                     shl     ax, 1
  1.558D  0306200B                 add     ax, [0B20]
  1.5591  50                       push    ax
  1.5592  A1CA05                   mov     ax, [05CA]
  1.5595  8BC8                     mov     cx, ax
  1.5597  D1E0                     shl     ax, 1
  1.5599  03C1                     add     ax, cx
  1.559B  D1E0                     shl     ax, 1
  1.559D  2B06200B                 sub     ax, [0B20]
  1.55A1  F7D8                     neg     ax
  1.55A3  50                       push    ax
  1.55A4  9A214CB255               call    1:4C21
  1.55A9  83C406                   add     sp, 0006
  1.55AC  E9243A                   jmp     8FD3
  1.55AF  9AB612C155               call    1:12B6
  1.55B4  B90200                   mov     cx, 0002
  1.55B7  99                       cwd    
  1.55B8  F7F9                     idiv    cx
  1.55BA  89164A0B                 mov     [0B4A], dx
  1.55BE  9AB612F655               call    1:12B6
  1.55C3  B90400                   mov     cx, 0004
  1.55C6  99                       cwd    
  1.55C7  F7F9                     idiv    cx
  1.55C9  03D1                     add     dx, cx
  1.55CB  8916460B                 mov     [0B46], dx
  1.55CF  833E4A0B00               cmp     word ptr [0B4A], 0000
  1.55D4  0F840900                 je      55E1
  1.55D8  C706240B5800             mov     word ptr [0B24], 0058
  1.55DE  E90600                   jmp     55E7

  1.55E1 >C706240B5600             mov     word ptr [0B24], 0056

  1.55E7 >FF36240B                 push    word ptr [0B24]
  1.55EB  FF36220B                 push    word ptr [0B22]
  1.55EF  FF36200B                 push    word ptr [0B20]
  1.55F3  9A07487856               call    1:4807
  1.55F8  83C406                   add     sp, 0006
  1.55FB  C706C00B0E00             mov     word ptr [0BC0], 000E
  1.5601  E9CF39                   jmp     8FD3
  1.5604  A15A0B                   mov     ax, [0B5A]
  1.5607  FF065A0B                 inc     word ptr [0B5A]
  1.560B  3D0300                   cmp     ax, 0003
  1.560E  0F8D0300                 jnl     5615
  1.5612  E9BE39                   jmp     8FD3

  1.5615 >C7065A0B0000             mov     word ptr [0B5A], 0000
  1.561B  833E4C0B00               cmp     word ptr [0B4C], 0000
  1.5620  0F850F00                 jne     5633
  1.5624  A1CA05                   mov     ax, [05CA]
  1.5627  8BC8                     mov     cx, ax
  1.5629  D1E0                     shl     ax, 1
  1.562B  03C1                     add     ax, cx
  1.562D  D1E0                     shl     ax, 1
  1.562F  2906200B                 sub     [0B20], ax

  1.5633 >833E4A0B00               cmp     word ptr [0B4A], 0000
  1.5638  0F841800                 je      5654
  1.563C  833E240B58               cmp     word ptr [0B24], 0058
  1.5641  0F850600                 jne     564B
  1.5645  B85900                   mov     ax, 0059
  1.5648  E90300                   jmp     564E

  1.564B >B85800                   mov     ax, 0058

  1.564E >A3240B                   mov     [0B24], ax
  1.5651  E91500                   jmp     5669

  1.5654 >833E240B56               cmp     word ptr [0B24], 0056
  1.5659  0F850600                 jne     5663
  1.565D  B85700                   mov     ax, 0057
  1.5660  E90300                   jmp     5666

  1.5663 >B85600                   mov     ax, 0056

  1.5666 >A3240B                   mov     [0B24], ax

  1.5669 >FF36240B                 push    word ptr [0B24]
  1.566D  FF36220B                 push    word ptr [0B22]
  1.5671  FF36200B                 push    word ptr [0B20]
  1.5675  9A07488056               call    1:4807
  1.567A  83C406                   add     sp, 0006
  1.567D  9A59458556               call    1:4559
  1.5682  9AD2468C56               call    1:46D2
  1.5687  6A01                     push    0001
  1.5689  9A6F499756               call    1:496F
  1.568E  83C402                   add     sp, 0002
  1.5691  E93F39                   jmp     8FD3
  1.5694  9AB612A656               call    1:12B6
  1.5699  B90200                   mov     cx, 0002
  1.569C  99                       cwd    
  1.569D  F7F9                     idiv    cx
  1.569F  89164A0B                 mov     [0B4A], dx
  1.56A3  9AB612DB56               call    1:12B6
  1.56A8  B90300                   mov     cx, 0003
  1.56AB  99                       cwd    
  1.56AC  F7F9                     idiv    cx
  1.56AE  03D1                     add     dx, cx
  1.56B0  8916460B                 mov     [0B46], dx
  1.56B4  833E4A0B00               cmp     word ptr [0B4A], 0000
  1.56B9  0F840900                 je      56C6
  1.56BD  C706240B3600             mov     word ptr [0B24], 0036
  1.56C3  E90600                   jmp     56CC

  1.56C6 >C706240B3400             mov     word ptr [0B24], 0034

  1.56CC >FF36240B                 push    word ptr [0B24]
  1.56D0  FF36220B                 push    word ptr [0B22]
  1.56D4  FF36200B                 push    word ptr [0B20]
  1.56D8  9A07484557               call    1:4807
  1.56DD  83C406                   add     sp, 0006
  1.56E0  C706C00B1000             mov     word ptr [0BC0], 0010
  1.56E6  E9EA38                   jmp     8FD3
  1.56E9  A15A0B                   mov     ax, [0B5A]
  1.56EC  FF065A0B                 inc     word ptr [0B5A]
  1.56F0  3D0300                   cmp     ax, 0003
  1.56F3  0F8D0300                 jnl     56FA
  1.56F7  E9D938                   jmp     8FD3

  1.56FA >C7065A0B0000             mov     word ptr [0B5A], 0000
  1.5700  833E4A0B00               cmp     word ptr [0B4A], 0000
  1.5705  0F841800                 je      5721
  1.5709  833E240B36               cmp     word ptr [0B24], 0036
  1.570E  0F850600                 jne     5718
  1.5712  B83700                   mov     ax, 0037
  1.5715  E90300                   jmp     571B

  1.5718 >B83600                   mov     ax, 0036

  1.571B >A3240B                   mov     [0B24], ax
  1.571E  E91500                   jmp     5736

  1.5721 >833E240B34               cmp     word ptr [0B24], 0034
  1.5726  0F850600                 jne     5730
  1.572A  B83500                   mov     ax, 0035
  1.572D  E90300                   jmp     5733

  1.5730 >B83400                   mov     ax, 0034

  1.5733 >A3240B                   mov     [0B24], ax

  1.5736 >FF36240B                 push    word ptr [0B24]
  1.573A  FF36220B                 push    word ptr [0B22]
  1.573E  FF36200B                 push    word ptr [0B20]
  1.5742  9A07484D57               call    1:4807
  1.5747  83C406                   add     sp, 0006
  1.574A  9A59455257               call    1:4559
  1.574F  9AD2465957               call    1:46D2
  1.5754  6A00                     push    0000
  1.5756  9A6F497657               call    1:496F
  1.575B  83C402                   add     sp, 0002
  1.575E  E97238                   jmp     8FD3
  1.5761  C706240B0600             mov     word ptr [0B24], 0006
  1.5767  FF36240B                 push    word ptr [0B24]
  1.576B  FF36220B                 push    word ptr [0B22]
  1.576F  FF36200B                 push    word ptr [0B20]
  1.5773  9A0748AE57               call    1:4807
  1.5778  83C406                   add     sp, 0006
  1.577B  C706C00B1200             mov     word ptr [0BC0], 0012
  1.5781  E94F38                   jmp     8FD3
  1.5784  A15A0B                   mov     ax, [0B5A]
  1.5787  FF065A0B                 inc     word ptr [0B5A]
  1.578B  3D0100                   cmp     ax, 0001
  1.578E  0F8D0300                 jnl     5795
  1.5792  E93E38                   jmp     8FD3

  1.5795 >C7065A0B0000             mov     word ptr [0B5A], 0000
  1.579B  FF06240B                 inc     word ptr [0B24]
  1.579F  FF36240B                 push    word ptr [0B24]
  1.57A3  FF36220B                 push    word ptr [0B22]
  1.57A7  FF36200B                 push    word ptr [0B20]
  1.57AB  9A0748CB57               call    1:4807
  1.57B0  83C406                   add     sp, 0006
  1.57B3  833E240B08               cmp     word ptr [0B24], 0008
  1.57B8  0F851D00                 jne     57D9
  1.57BC  C706240B0000             mov     word ptr [0B24], 0000
  1.57C2  C706C00B1300             mov     word ptr [0BC0], 0013
  1.57C8  9AB612DE57               call    1:12B6
  1.57CD  B90800                   mov     cx, 0008
  1.57D0  99                       cwd    
  1.57D1  F7F9                     idiv    cx
  1.57D3  03D1                     add     dx, cx
  1.57D5  8916460B                 mov     [0B46], dx

  1.57D9 >6A00                     push    0000
  1.57DB  9A6F491858               call    1:496F
  1.57E0  83C402                   add     sp, 0002
  1.57E3  E9ED37                   jmp     8FD3
  1.57E6  A15A0B                   mov     ax, [0B5A]
  1.57E9  FF065A0B                 inc     word ptr [0B5A]
  1.57ED  3D0400                   cmp     ax, 0004
  1.57F0  0F8D0300                 jnl     57F7
  1.57F4  E9DC37                   jmp     8FD3

  1.57F7 >C7065A0B0000             mov     word ptr [0B5A], 0000
  1.57FD  833E240B01               cmp     word ptr [0B24], 0001
  1.5802  1BC0                     sbb     ax, ax
  1.5804  F7D8                     neg     ax
  1.5806  A3240B                   mov     [0B24], ax
  1.5809  FF36240B                 push    word ptr [0B24]
  1.580D  FF36220B                 push    word ptr [0B22]
  1.5811  FF36200B                 push    word ptr [0B20]
  1.5815  9A07482058               call    1:4807
  1.581A  83C406                   add     sp, 0006
  1.581D  9AD2462758               call    1:46D2
  1.5822  6A00                     push    0000
  1.5824  9A6F493258               call    1:496F
  1.5829  83C402                   add     sp, 0002
  1.582C  E9A437                   jmp     8FD3
  1.582F  9AB612FD50               call    1:12B6
  1.5834  B90300                   mov     cx, 0003
  1.5837  99                       cwd    
  1.5838  F7F9                     idiv    cx
  1.583A  89164A0B                 mov     [0B4A], dx
  1.583E  833E4A0B00               cmp     word ptr [0B4A], 0000
  1.5843  0F850900                 jne     5850
  1.5847  C706240B0600             mov     word ptr [0B24], 0006
  1.584D  E91800                   jmp     5868

  1.5850 >833E4A0B01               cmp     word ptr [0B4A], 0001
  1.5855  0F850900                 jne     5862
  1.5859  C706240B1F00             mov     word ptr [0B24], 001F
  1.585F  E90600                   jmp     5868

  1.5862 >C706240B4900             mov     word ptr [0B24], 0049

  1.5868 >FF36240B                 push    word ptr [0B24]
  1.586C  FF36220B                 push    word ptr [0B22]
  1.5870  FF36200B                 push    word ptr [0B20]
  1.5874  9A07488558               call    1:4807
  1.5879  83C406                   add     sp, 0006
  1.587C  C706C00B1500             mov     word ptr [0BC0], 0015
  1.5882  9AB6129258               call    1:12B6
  1.5887  B90F00                   mov     cx, 000F
  1.588A  99                       cwd    
  1.588B  F7F9                     idiv    cx
  1.588D  8BF2                     mov     si, dx
  1.588F  9AB612A558               call    1:12B6
  1.5894  B90F00                   mov     cx, 000F
  1.5897  99                       cwd    
  1.5898  F7F9                     idiv    cx
  1.589A  03F2                     add     si, dx
  1.589C  89365A0B                 mov     [0B5A], si
  1.58A0  6A00                     push    0000
  1.58A2  9A6F49B258               call    1:496F
  1.58A7  83C402                   add     sp, 0002
  1.58AA  E92637                   jmp     8FD3
  1.58AD  6A00                     push    0000
  1.58AF  9A6F49FA58               call    1:496F
  1.58B4  83C402                   add     sp, 0002
  1.58B7  A15A0B                   mov     ax, [0B5A]
  1.58BA  FF0E5A0B                 dec     word ptr [0B5A]
  1.58BE  3D0000                   cmp     ax, 0000
  1.58C1  0F8E0300                 jle     58C8
  1.58C5  E90B37                   jmp     8FD3

  1.58C8 >C706C00B1600             mov     word ptr [0BC0], 0016
  1.58CE  C706460B0000             mov     word ptr [0B46], 0000
  1.58D4  E9FC36                   jmp     8FD3
  1.58D7  8B1E4A0B                 mov     bx, [0B4A]
  1.58DB  C1E303                   shl     bx, 03
  1.58DE  031E460B                 add     bx, [0B46]
  1.58E2  D1E3                     shl     bx, 1
  1.58E4  8B87D405                 mov     ax, [bx+05D4]
  1.58E8  A3240B                   mov     [0B24], ax
  1.58EB  FF36240B                 push    word ptr [0B24]
  1.58EF  FF36220B                 push    word ptr [0B22]
  1.58F3  FF36200B                 push    word ptr [0B20]
  1.58F7  9A07481559               call    1:4807
  1.58FC  83C406                   add     sp, 0006
  1.58FF  FF06460B                 inc     word ptr [0B46]
  1.5903  833E460B07               cmp     word ptr [0B46], 0007
  1.5908  0F8E2400                 jle     5930
  1.590C  C706C00B1700             mov     word ptr [0BC0], 0017
  1.5912  9AB6122259               call    1:12B6
  1.5917  B90F00                   mov     cx, 000F
  1.591A  99                       cwd    
  1.591B  F7F9                     idiv    cx
  1.591D  8BF2                     mov     si, dx
  1.591F  9AB6123559               call    1:12B6
  1.5924  B90F00                   mov     cx, 000F
  1.5927  99                       cwd    
  1.5928  F7F9                     idiv    cx
  1.592A  03F2                     add     si, dx
  1.592C  89365A0B                 mov     [0B5A], si

  1.5930 >6A00                     push    0000
  1.5932  9A6F494259               call    1:496F
  1.5937  83C402                   add     sp, 0002
  1.593A  E99636                   jmp     8FD3
  1.593D  6A00                     push    0000
  1.593F  9A6F498D59               call    1:496F
  1.5944  83C402                   add     sp, 0002
  1.5947  A15A0B                   mov     ax, [0B5A]
  1.594A  FF0E5A0B                 dec     word ptr [0B5A]
  1.594E  3D0000                   cmp     ax, 0000
  1.5951  0F8E0300                 jle     5958
  1.5955  E97B36                   jmp     8FD3

  1.5958 >C706C00B0100             mov     word ptr [0BC0], 0001
  1.595E  E97236                   jmp     8FD3
  1.5961  A15A0B                   mov     ax, [0B5A]
  1.5964  FF065A0B                 inc     word ptr [0B5A]
  1.5968  3D0100                   cmp     ax, 0001
  1.596B  0F8D0300                 jnl     5972
  1.596F  E96136                   jmp     8FD3

  1.5972 >C7065A0B0000             mov     word ptr [0B5A], 0000
  1.5978  C706240B0300             mov     word ptr [0B24], 0003
  1.597E  FF36240B                 push    word ptr [0B24]
  1.5982  FF36220B                 push    word ptr [0B22]
  1.5986  FF36200B                 push    word ptr [0B20]
  1.598A  9A07489559               call    1:4807
  1.598F  83C406                   add     sp, 0006
  1.5992  9AB6122B5A               call    1:12B6
  1.5997  A801                     test    al, 01
  1.5999  0F840900                 je      59A6
  1.599D  C7064A0B0000             mov     word ptr [0B4A], 0000
  1.59A3  E90600                   jmp     59AC

  1.59A6 >C7064A0B0100             mov     word ptr [0B4A], 0001

  1.59AC >C706C00B1900             mov     word ptr [0BC0], 0019
  1.59B2  C706460B0000             mov     word ptr [0B46], 0000
  1.59B8  E91836                   jmp     8FD3
  1.59BB  A15A0B                   mov     ax, [0B5A]
  1.59BE  FF065A0B                 inc     word ptr [0B5A]
  1.59C2  3D0100                   cmp     ax, 0001
  1.59C5  0F8D0300                 jnl     59CC
  1.59C9  E90736                   jmp     8FD3

  1.59CC >C7065A0B0000             mov     word ptr [0B5A], 0000
  1.59D2  833E4A0B00               cmp     word ptr [0B4A], 0000
  1.59D7  0F842200                 je      59FD
  1.59DB  833ECA0500               cmp     word ptr [05CA], 0000
  1.59E0  0F8E0C00                 jle     59F0
  1.59E4  A1460B                   mov     ax, [0B46]
  1.59E7  050900                   add     ax, 0009
  1.59EA  A3240B                   mov     [0B24], ax
  1.59ED  E90A00                   jmp     59FA

  1.59F0 >B80B00                   mov     ax, 000B
  1.59F3  2B06460B                 sub     ax, [0B46]
  1.59F7  A3240B                   mov     [0B24], ax

  1.59FA >E91F00                   jmp     5A1C

  1.59FD >833ECA0500               cmp     word ptr [05CA], 0000
  1.5A02  0F8E0C00                 jle     5A12
  1.5A06  A1460B                   mov     ax, [0B46]
  1.5A09  050C00                   add     ax, 000C
  1.5A0C  A3240B                   mov     [0B24], ax
  1.5A0F  E90A00                   jmp     5A1C

  1.5A12 >B80E00                   mov     ax, 000E
  1.5A15  2B06460B                 sub     ax, [0B46]
  1.5A19  A3240B                   mov     [0B24], ax

  1.5A1C >FF36240B                 push    word ptr [0B24]
  1.5A20  FF36220B                 push    word ptr [0B22]
  1.5A24  FF36200B                 push    word ptr [0B20]
  1.5A28  9A07484C5A               call    1:4807
  1.5A2D  83C406                   add     sp, 0006
  1.5A30  FF06460B                 inc     word ptr [0B46]
  1.5A34  833E460B02               cmp     word ptr [0B46], 0002
  1.5A39  0F8E0A00                 jle     5A47
  1.5A3D  F71ECA05                 neg     word ptr [05CA]
  1.5A41  C706C00B1A00             mov     word ptr [0BC0], 001A

  1.5A47 >6A00                     push    0000
  1.5A49  9A6F49805A               call    1:496F
  1.5A4E  83C402                   add     sp, 0002
  1.5A51  E97F35                   jmp     8FD3
  1.5A54  A15A0B                   mov     ax, [0B5A]
  1.5A57  FF065A0B                 inc     word ptr [0B5A]
  1.5A5B  3D0100                   cmp     ax, 0001
  1.5A5E  0F8D0300                 jnl     5A65
  1.5A62  E96E35                   jmp     8FD3

  1.5A65 >C7065A0B0000             mov     word ptr [0B5A], 0000
  1.5A6B  C706240B0300             mov     word ptr [0B24], 0003
  1.5A71  FF36240B                 push    word ptr [0B24]
  1.5A75  FF36220B                 push    word ptr [0B22]
  1.5A79  FF36200B                 push    word ptr [0B20]
  1.5A7D  9A0748905A               call    1:4807
  1.5A82  83C406                   add     sp, 0006
  1.5A85  C706C00B0100             mov     word ptr [0BC0], 0001
  1.5A8B  6A00                     push    0000
  1.5A8D  9A6F49EC5A               call    1:496F
  1.5A92  83C402                   add     sp, 0002
  1.5A95  E93B35                   jmp     8FD3
  1.5A98  C706260BF6FF             mov     word ptr [0B26], FFF6
  1.5A9E  A1CA05                   mov     ax, [05CA]
  1.5AA1  C1E003                   shl     ax, 03
  1.5AA4  A3280B                   mov     [0B28], ax
  1.5AA7  A1220B                   mov     ax, [0B22]
  1.5AAA  A32C0B                   mov     [0B2C], ax
  1.5AAD  C706680B0000             mov     word ptr [0B68], 0000
  1.5AB3  C706C00B1C00             mov     word ptr [0BC0], 001C
  1.5AB9  A1280B                   mov     ax, [0B28]
  1.5ABC  0106200B                 add     [0B20], ax
  1.5AC0  A1260B                   mov     ax, [0B26]
  1.5AC3  0106220B                 add     [0B22], ax
  1.5AC7  8306260B02               add     word ptr [0B26], 0002
  1.5ACC  8B1E680B                 mov     bx, [0B68]
  1.5AD0  D1E3                     shl     bx, 1
  1.5AD2  8B874406                 mov     ax, [bx+0644]
  1.5AD6  A3240B                   mov     [0B24], ax
  1.5AD9  FF06680B                 inc     word ptr [0B68]
  1.5ADD  FF36240B                 push    word ptr [0B24]
  1.5AE1  FF36220B                 push    word ptr [0B22]
  1.5AE5  FF36200B                 push    word ptr [0B20]
  1.5AE9  9A0748215B               call    1:4807
  1.5AEE  83C406                   add     sp, 0006
  1.5AF1  833E240B40               cmp     word ptr [0B24], 0040
  1.5AF6  0F850F00                 jne     5B09
  1.5AFA  C706620B0300             mov     word ptr [0B62], 0003
  1.5B00  C706C00B6300             mov     word ptr [0BC0], 0063
  1.5B06  E9CA34                   jmp     8FD3

  1.5B09 >E9C734                   jmp     8FD3
  1.5B0C  C7065A0B0000             mov     word ptr [0B5A], 0000
  1.5B12  C706460B0000             mov     word ptr [0B46], 0000
  1.5B18  C7064A0B0000             mov     word ptr [0B4A], 0000
  1.5B1E  9AB612325B               call    1:12B6
  1.5B23  A807                     test    al, 07
  1.5B25  0F850600                 jne     5B2F
  1.5B29  C7064A0B0100             mov     word ptr [0B4A], 0001

  1.5B2F >9AB612925B               call    1:12B6
  1.5B34  B90500                   mov     cx, 0005
  1.5B37  99                       cwd    
  1.5B38  F7F9                     idiv    cx
  1.5B3A  83FA00                   cmp     dx, 0000
  1.5B3D  0F850600                 jne     5B47
  1.5B41  C7064A0B0200             mov     word ptr [0B4A], 0002

  1.5B47 >C706C00B2000             mov     word ptr [0BC0], 0020
  1.5B4D  833E4A0B00               cmp     word ptr [0B4A], 0000
  1.5B52  0F840600                 je      5B5C
  1.5B56  C706C00B2200             mov     word ptr [0BC0], 0022

  1.5B5C >E9D4F1                   jmp     4D33
  1.5B5F  833E1C0B00               cmp     word ptr [0B1C], 0000
  1.5B64  0F840C00                 je      5B74
  1.5B68  C706C00B1B00             mov     word ptr [0BC0], 001B
  1.5B6E  E9C2F1                   jmp     4D33
  1.5B71  E90900                   jmp     5B7D

  1.5B74 >C706C00B1800             mov     word ptr [0BC0], 0018
  1.5B7A  E9B6F1                   jmp     4D33

  1.5B7D >C7065A0B0000             mov     word ptr [0B5A], 0000
  1.5B83  C706460B0000             mov     word ptr [0B46], 0000
  1.5B89  C7064A0B0000             mov     word ptr [0B4A], 0000
  1.5B8F  9AB612A35B               call    1:12B6
  1.5B94  A807                     test    al, 07
  1.5B96  0F850600                 jne     5BA0
  1.5B9A  C7064A0B0100             mov     word ptr [0B4A], 0001

  1.5BA0 >9AB612D85B               call    1:12B6
  1.5BA5  B90500                   mov     cx, 0005
  1.5BA8  99                       cwd    
  1.5BA9  F7F9                     idiv    cx
  1.5BAB  83FA00                   cmp     dx, 0000
  1.5BAE  0F850600                 jne     5BB8
  1.5BB2  C7064A0B0200             mov     word ptr [0B4A], 0002

  1.5BB8 >C706C00B1F00             mov     word ptr [0BC0], 001F
  1.5BBE  6A02                     push    0002
  1.5BC0  FF36200B                 push    word ptr [0B20]
  1.5BC4  A1CA05                   mov     ax, [05CA]
  1.5BC7  8BC8                     mov     cx, ax
  1.5BC9  C1E002                   shl     ax, 02
  1.5BCC  03C1                     add     ax, cx
  1.5BCE  D1E0                     shl     ax, 1
  1.5BD0  0306200B                 add     ax, [0B20]
  1.5BD4  50                       push    ax
  1.5BD5  9A214CB654               call    1:4C21
  1.5BDA  83C406                   add     sp, 0006
  1.5BDD  833EC00B1E               cmp     word ptr [0BC0], 001E
  1.5BE2  0F851A00                 jne     5C00
  1.5BE6  833E460B00               cmp     word ptr [0B46], 0000
  1.5BEB  0F840E00                 je      5BFD
  1.5BEF  8B1E460B                 mov     bx, [0B46]
  1.5BF3  D1E3                     shl     bx, 1
  1.5BF5  8B875606                 mov     ax, [bx+0656]
  1.5BF9  2906640B                 sub     [0B64], ax

  1.5BFD >E9D333                   jmp     8FD3

  1.5C00 >8B1E460B                 mov     bx, [0B46]
  1.5C04  D1E3                     shl     bx, 1
  1.5C06  8B874406                 mov     ax, [bx+0644]
  1.5C0A  A3240B                   mov     [0B24], ax
  1.5C0D  FF36240B                 push    word ptr [0B24]
  1.5C11  A1220B                   mov     ax, [0B22]
  1.5C14  8B1E460B                 mov     bx, [0B46]
  1.5C18  D1E3                     shl     bx, 1
  1.5C1A  2B875806                 sub     ax, [bx+0658]
  1.5C1E  50                       push    ax
  1.5C1F  FF36200B                 push    word ptr [0B20]
  1.5C23  9A0748765C               call    1:4807
  1.5C28  83C406                   add     sp, 0006
  1.5C2B  FF06460B                 inc     word ptr [0B46]
  1.5C2F  833E4A0B00               cmp     word ptr [0B4A], 0000
  1.5C34  0F845200                 je      5C8A
  1.5C38  833E240B42               cmp     word ptr [0B24], 0042
  1.5C3D  0F854900                 jne     5C8A
  1.5C41  833E640B00               cmp     word ptr [0B64], 0000
  1.5C46  0F843100                 je      5C7B
  1.5C4A  A1640B                   mov     ax, [0B64]
  1.5C4D  2906220B                 sub     [0B22], ax
  1.5C51  A1CA05                   mov     ax, [05CA]
  1.5C54  8BC8                     mov     cx, ax
  1.5C56  C1E002                   shl     ax, 02
  1.5C59  03C1                     add     ax, cx
  1.5C5B  D1E0                     shl     ax, 1
  1.5C5D  0106200B                 add     [0B20], ax
  1.5C61  C706640B0000             mov     word ptr [0B64], 0000
  1.5C67  FF36240B                 push    word ptr [0B24]
  1.5C6B  FF36220B                 push    word ptr [0B22]
  1.5C6F  FF36200B                 push    word ptr [0B20]
  1.5C73  9A0748B45C               call    1:4807
  1.5C78  83C406                   add     sp, 0006

  1.5C7B >C706660B0300             mov     word ptr [0B66], 0003
  1.5C81  C706C00B2200             mov     word ptr [0BC0], 0022
  1.5C87  E94933                   jmp     8FD3

  1.5C8A >833E460B08               cmp     word ptr [0B46], 0008
  1.5C8F  0F8E0900                 jle     5C9C
  1.5C93  C706C00B2000             mov     word ptr [0BC0], 0020
  1.5C99  E93733                   jmp     8FD3

  1.5C9C >A1CA05                   mov     ax, [05CA]
  1.5C9F  8BC8                     mov     cx, ax
  1.5CA1  C1E002                   shl     ax, 02
  1.5CA4  03C1                     add     ax, cx
  1.5CA6  D1E0                     shl     ax, 1
  1.5CA8  0106200B                 add     [0B20], ax
  1.5CAC  E92433                   jmp     8FD3
  1.5CAF  6A00                     push    0000
  1.5CB1  9A6F49E95C               call    1:496F
  1.5CB6  83C402                   add     sp, 0002
  1.5CB9  A15A0B                   mov     ax, [0B5A]
  1.5CBC  FF065A0B                 inc     word ptr [0B5A]
  1.5CC0  3D0800                   cmp     ax, 0008
  1.5CC3  0F8D0300                 jnl     5CCA
  1.5CC7  E90933                   jmp     8FD3

  1.5CCA >C7065A0B0000             mov     word ptr [0B5A], 0000
  1.5CD0  F71ECA05                 neg     word ptr [05CA]
  1.5CD4  C706240B5D00             mov     word ptr [0B24], 005D
  1.5CDA  FF36240B                 push    word ptr [0B24]
  1.5CDE  FF36220B                 push    word ptr [0B22]
  1.5CE2  FF36200B                 push    word ptr [0B20]
  1.5CE6  9A0748FC5C               call    1:4807
  1.5CEB  83C406                   add     sp, 0006
  1.5CEE  C706C00B2100             mov     word ptr [0BC0], 0021
  1.5CF4  E9DC32                   jmp     8FD3
  1.5CF7  6A00                     push    0000
  1.5CF9  9A6F49505D               call    1:496F
  1.5CFE  83C402                   add     sp, 0002
  1.5D01  A15A0B                   mov     ax, [0B5A]
  1.5D04  FF065A0B                 inc     word ptr [0B5A]
  1.5D08  3D0F00                   cmp     ax, 000F
  1.5D0B  0F8D0300                 jnl     5D12
  1.5D0F  E9C132                   jmp     8FD3

  1.5D12 >C7065A0B0000             mov     word ptr [0B5A], 0000
  1.5D18  C706C00B0100             mov     word ptr [0BC0], 0001
  1.5D1E  E9B232                   jmp     8FD3
  1.5D21  A1CA05                   mov     ax, [05CA]
  1.5D24  C1E003                   shl     ax, 03
  1.5D27  0106200B                 add     [0B20], ax
  1.5D2B  833E240B46               cmp     word ptr [0B24], 0046
  1.5D30  0F850900                 jne     5D3D
  1.5D34  C706240B3F00             mov     word ptr [0B24], 003F
  1.5D3A  E90400                   jmp     5D41

  1.5D3D >FF06240B                 inc     word ptr [0B24]

  1.5D41 >FF36240B                 push    word ptr [0B24]
  1.5D45  FF36220B                 push    word ptr [0B22]
  1.5D49  FF36200B                 push    word ptr [0B20]
  1.5D4D  9A0748A75D               call    1:4807
  1.5D52  83C406                   add     sp, 0006
  1.5D55  833E4A0B02               cmp     word ptr [0B4A], 0002
  1.5D5A  0F851200                 jne     5D70
  1.5D5E  833E240B46               cmp     word ptr [0B24], 0046
  1.5D63  0F850900                 jne     5D70
  1.5D67  C706C00B4500             mov     word ptr [0BC0], 0045
  1.5D6D  E96332                   jmp     8FD3

  1.5D70 >A1702D                   mov     ax, [2D70]
  1.5D73  3906200B                 cmp     [0B20], ax
  1.5D77  0F8F0900                 jg      5D84
  1.5D7B  833E200BD8               cmp     word ptr [0B20], FFD8
  1.5D80  0F8D0600                 jnl     5D8A

  1.5D84 >C706C00B0100             mov     word ptr [0BC0], 0001

  1.5D8A >6A02                     push    0002
  1.5D8C  A1CA05                   mov     ax, [05CA]
  1.5D8F  C1E003                   shl     ax, 03
  1.5D92  2B06200B                 sub     ax, [0B20]
  1.5D96  F7D8                     neg     ax
  1.5D98  50                       push    ax
  1.5D99  A1CA05                   mov     ax, [05CA]
  1.5D9C  C1E003                   shl     ax, 03
  1.5D9F  0306200B                 add     ax, [0B20]
  1.5DA3  50                       push    ax
  1.5DA4  9A214CDB5D               call    1:4C21
  1.5DA9  83C406                   add     sp, 0006
  1.5DAC  833EC00B1E               cmp     word ptr [0BC0], 001E
  1.5DB1  0F852100                 jne     5DD6
  1.5DB5  A1660B                   mov     ax, [0B66]
  1.5DB8  FF0E660B                 dec     word ptr [0B66]
  1.5DBC  3D0000                   cmp     ax, 0000
  1.5DBF  0F8E0D00                 jle     5DD0
  1.5DC3  F71ECA05                 neg     word ptr [05CA]
  1.5DC7  C706C00B2200             mov     word ptr [0BC0], 0022
  1.5DCD  E90600                   jmp     5DD6

  1.5DD0 >C706C00B2200             mov     word ptr [0BC0], 0022

  1.5DD6 >6A02                     push    0002
  1.5DD8  9A6F490F5E               call    1:496F
  1.5DDD  83C402                   add     sp, 0002
  1.5DE0  E9F031                   jmp     8FD3
  1.5DE3  A15A0B                   mov     ax, [0B5A]
  1.5DE6  FF065A0B                 inc     word ptr [0B5A]
  1.5DEA  3D0100                   cmp     ax, 0001
  1.5DED  0F8D0300                 jnl     5DF4
  1.5DF1  E9DF31                   jmp     8FD3

  1.5DF4 >C7065A0B0000             mov     word ptr [0B5A], 0000
  1.5DFA  C706240B0300             mov     word ptr [0B24], 0003
  1.5E00  FF36240B                 push    word ptr [0B24]
  1.5E04  FF36220B                 push    word ptr [0B22]
  1.5E08  FF36200B                 push    word ptr [0B20]
  1.5E0C  9A0748685E               call    1:4807
  1.5E11  83C406                   add     sp, 0006
  1.5E14  C706C00B2500             mov     word ptr [0BC0], 0025
  1.5E1A  C706460B0000             mov     word ptr [0B46], 0000
  1.5E20  E9B031                   jmp     8FD3
  1.5E23  A15A0B                   mov     ax, [0B5A]
  1.5E26  FF065A0B                 inc     word ptr [0B5A]
  1.5E2A  3D0100                   cmp     ax, 0001
  1.5E2D  0F8D0300                 jnl     5E34
  1.5E31  E99F31                   jmp     8FD3

  1.5E34 >C7065A0B0000             mov     word ptr [0B5A], 0000
  1.5E3A  833ECA0500               cmp     word ptr [05CA], 0000
  1.5E3F  0F8E0C00                 jle     5E4F
  1.5E43  A1460B                   mov     ax, [0B46]
  1.5E46  050C00                   add     ax, 000C
  1.5E49  A3240B                   mov     [0B24], ax
  1.5E4C  E90A00                   jmp     5E59

  1.5E4F >B80E00                   mov     ax, 000E
  1.5E52  2B06460B                 sub     ax, [0B46]
  1.5E56  A3240B                   mov     [0B24], ax

  1.5E59 >FF36240B                 push    word ptr [0B24]
  1.5E5D  FF36220B                 push    word ptr [0B22]
  1.5E61  FF36200B                 push    word ptr [0B20]
  1.5E65  9A07488B5E               call    1:4807
  1.5E6A  83C406                   add     sp, 0006
  1.5E6D  FF06460B                 inc     word ptr [0B46]
  1.5E71  833E460B01               cmp     word ptr [0B46], 0001
  1.5E76  0F8E0C00                 jle     5E86
  1.5E7A  C706240B6700             mov     word ptr [0B24], 0067
  1.5E80  C706C00B2600             mov     word ptr [0BC0], 0026

  1.5E86 >6A00                     push    0000
  1.5E88  9A6F49B95E               call    1:496F
  1.5E8D  83C402                   add     sp, 0002
  1.5E90  E94031                   jmp     8FD3
  1.5E93  A15A0B                   mov     ax, [0B5A]
  1.5E96  FF065A0B                 inc     word ptr [0B5A]
  1.5E9A  3D0100                   cmp     ax, 0001
  1.5E9D  0F8D0300                 jnl     5EA4
  1.5EA1  E92F31                   jmp     8FD3

  1.5EA4 >C7065A0B0000             mov     word ptr [0B5A], 0000
  1.5EAA  FF36240B                 push    word ptr [0B24]
  1.5EAE  FF36220B                 push    word ptr [0B22]
  1.5EB2  FF36200B                 push    word ptr [0B20]
  1.5EB6  9A0748DF5E               call    1:4807
  1.5EBB  83C406                   add     sp, 0006
  1.5EBE  FF06240B                 inc     word ptr [0B24]
  1.5EC2  833E240B68               cmp     word ptr [0B24], 0068
  1.5EC7  0F8E0F00                 jle     5EDA
  1.5ECB  C706460B0000             mov     word ptr [0B46], 0000
  1.5ED1  C706C00B2700             mov     word ptr [0BC0], 0027
  1.5ED7  E9F930                   jmp     8FD3

  1.5EDA >6A00                     push    0000
  1.5EDC  9A6F49695F               call    1:496F
  1.5EE1  83C402                   add     sp, 0002
  1.5EE4  E9EC30                   jmp     8FD3
  1.5EE7  833E460B00               cmp     word ptr [0B46], 0000
  1.5EEC  0F851A00                 jne     5F0A
  1.5EF0  A15A0B                   mov     ax, [0B5A]
  1.5EF3  FF065A0B                 inc     word ptr [0B5A]
  1.5EF7  3D0A00                   cmp     ax, 000A
  1.5EFA  0F8D0300                 jnl     5F01
  1.5EFE  E9D230                   jmp     8FD3

  1.5F01 >C7065A0B0000             mov     word ptr [0B5A], 0000
  1.5F07  E91700                   jmp     5F21

  1.5F0A >A15A0B                   mov     ax, [0B5A]
  1.5F0D  FF065A0B                 inc     word ptr [0B5A]
  1.5F11  3D0100                   cmp     ax, 0001
  1.5F14  0F8D0300                 jnl     5F1B
  1.5F18  E9B830                   jmp     8FD3

  1.5F1B >C7065A0B0000             mov     word ptr [0B5A], 0000

  1.5F21 >833E460B08               cmp     word ptr [0B46], 0008
  1.5F26  0F8E1200                 jle     5F3C
  1.5F2A  833E460B0C               cmp     word ptr [0B46], 000C
  1.5F2F  0F8C2100                 jl      5F54
  1.5F33  833E460B0C               cmp     word ptr [0B46], 000C
  1.5F38  0F8F1800                 jg      5F54

  1.5F3C >833E240B69               cmp     word ptr [0B24], 0069
  1.5F41  0F850600                 jne     5F4B
  1.5F45  B86A00                   mov     ax, 006A
  1.5F48  E90300                   jmp     5F4E

  1.5F4B >B86900                   mov     ax, 0069

  1.5F4E >A3240B                   mov     [0B24], ax
  1.5F51  E90600                   jmp     5F5A

  1.5F54 >C706240B6800             mov     word ptr [0B24], 0068

  1.5F5A >FF36240B                 push    word ptr [0B24]
  1.5F5E  FF36220B                 push    word ptr [0B22]
  1.5F62  FF36200B                 push    word ptr [0B20]
  1.5F66  9A07488D5F               call    1:4807
  1.5F6B  83C406                   add     sp, 0006
  1.5F6E  A1460B                   mov     ax, [0B46]
  1.5F71  FF06460B                 inc     word ptr [0B46]
  1.5F75  3D0F00                   cmp     ax, 000F
  1.5F78  0F8E0C00                 jle     5F88
  1.5F7C  C706C00B2800             mov     word ptr [0BC0], 0028
  1.5F82  C706240B6800             mov     word ptr [0B24], 0068

  1.5F88 >6A00                     push    0000
  1.5F8A  9A6F497758               call    1:496F
  1.5F8F  83C402                   add     sp, 0002
  1.5F92  E93E30                   jmp     8FD3
  1.5F95  A15A0B                   mov     ax, [0B5A]
  1.5F98  FF065A0B                 inc     word ptr [0B5A]
  1.5F9C  3D0100                   cmp     ax, 0001
  1.5F9F  0F8D0300                 jnl     5FA6
  1.5FA3  E92D30                   jmp     8FD3

  1.5FA6 >C7065A0B0000             mov     word ptr [0B5A], 0000
  1.5FAC  FF36240B                 push    word ptr [0B24]
  1.5FB0  FF36220B                 push    word ptr [0B22]
  1.5FB4  FF36200B                 push    word ptr [0B20]
  1.5FB8  9A0748E15F               call    1:4807
  1.5FBD  83C406                   add     sp, 0006
  1.5FC0  FF0E240B                 dec     word ptr [0B24]
  1.5FC4  833E240B67               cmp     word ptr [0B24], 0067
  1.5FC9  0F8D0F00                 jnl     5FDC
  1.5FCD  C706460B0000             mov     word ptr [0B46], 0000
  1.5FD3  C706C00B2900             mov     word ptr [0BC0], 0029
  1.5FD9  E9F72F                   jmp     8FD3

  1.5FDC >6A00                     push    0000
  1.5FDE  9A6F492E60               call    1:496F
  1.5FE3  83C402                   add     sp, 0002
  1.5FE6  E9EA2F                   jmp     8FD3
  1.5FE9  A15A0B                   mov     ax, [0B5A]
  1.5FEC  FF065A0B                 inc     word ptr [0B5A]
  1.5FF0  3D0100                   cmp     ax, 0001
  1.5FF3  0F8D0300                 jnl     5FFA
  1.5FF7  E9D92F                   jmp     8FD3

  1.5FFA >C7065A0B0000             mov     word ptr [0B5A], 0000
  1.6000  833ECA0500               cmp     word ptr [05CA], 0000
  1.6005  0F8E0D00                 jle     6016
  1.6009  B80D00                   mov     ax, 000D
  1.600C  2B06460B                 sub     ax, [0B46]
  1.6010  A3240B                   mov     [0B24], ax
  1.6013  E90900                   jmp     601F

  1.6016 >A1460B                   mov     ax, [0B46]
  1.6019  050D00                   add     ax, 000D
  1.601C  A3240B                   mov     [0B24], ax

  1.601F >FF36240B                 push    word ptr [0B24]
  1.6023  FF36220B                 push    word ptr [0B22]
  1.6027  FF36200B                 push    word ptr [0B20]
  1.602B  9A07484B60               call    1:4807
  1.6030  83C406                   add     sp, 0006
  1.6033  FF06460B                 inc     word ptr [0B46]
  1.6037  833E460B01               cmp     word ptr [0B46], 0001
  1.603C  0F8E0600                 jle     6046
  1.6040  C706C00B2A00             mov     word ptr [0BC0], 002A

  1.6046 >6A00                     push    0000
  1.6048  9A6F495860               call    1:496F
  1.604D  83C402                   add     sp, 0002
  1.6050  E9802F                   jmp     8FD3
  1.6053  6A00                     push    0000
  1.6055  9A6F498960               call    1:496F
  1.605A  83C402                   add     sp, 0002
  1.605D  A15A0B                   mov     ax, [0B5A]
  1.6060  FF065A0B                 inc     word ptr [0B5A]
  1.6064  3D0100                   cmp     ax, 0001
  1.6067  0F8D0300                 jnl     606E
  1.606B  E9652F                   jmp     8FD3

  1.606E >C7065A0B0000             mov     word ptr [0B5A], 0000
  1.6074  C706240B0300             mov     word ptr [0B24], 0003
  1.607A  FF36240B                 push    word ptr [0B24]
  1.607E  FF36220B                 push    word ptr [0B22]
  1.6082  FF36200B                 push    word ptr [0B20]
  1.6086  9A0748A660               call    1:4807
  1.608B  83C406                   add     sp, 0006
  1.608E  C706C00B0100             mov     word ptr [0BC0], 0001
  1.6094  C706460B0000             mov     word ptr [0B46], 0000
  1.609A  E9362F                   jmp     8FD3
  1.609D  6A00                     push    0000
  1.609F  6A00                     push    0000
  1.60A1  6A6D                     push    006D
  1.60A3  9AC8420061               call    1:42C8
  1.60A8  83C406                   add     sp, 0006
  1.60AB  C706460B0000             mov     word ptr [0B46], 0000
  1.60B1  C706C00B2C00             mov     word ptr [0BC0], 002C
  1.60B7  A15A0B                   mov     ax, [0B5A]
  1.60BA  FF065A0B                 inc     word ptr [0B5A]
  1.60BE  3D0100                   cmp     ax, 0001
  1.60C1  0F8D0300                 jnl     60C8
  1.60C5  E90B2F                   jmp     8FD3

  1.60C8 >C7065A0B0000             mov     word ptr [0B5A], 0000
  1.60CE  8B1E460B                 mov     bx, [0B46]
  1.60D2  D1E3                     shl     bx, 1
  1.60D4  8B876C06                 mov     ax, [bx+066C]
  1.60D8  A3240B                   mov     [0B24], ax
  1.60DB  FF06460B                 inc     word ptr [0B46]
  1.60DF  833E240B00               cmp     word ptr [0B24], 0000
  1.60E4  0F850900                 jne     60F1
  1.60E8  C706C00B0100             mov     word ptr [0BC0], 0001
  1.60EE  E9E22E                   jmp     8FD3

  1.60F1 >FF36240B                 push    word ptr [0B24]
  1.60F5  FF36220B                 push    word ptr [0B22]
  1.60F9  FF36200B                 push    word ptr [0B20]
  1.60FD  9A07480A61               call    1:4807
  1.6102  83C406                   add     sp, 0006
  1.6105  6A00                     push    0000
  1.6107  9A6F491B61               call    1:496F
  1.610C  83C402                   add     sp, 0002
  1.610F  E9C12E                   jmp     8FD3
  1.6112  6A00                     push    0000
  1.6114  6A00                     push    0000
  1.6116  6A6C                     push    006C
  1.6118  9AC8427561               call    1:42C8
  1.611D  83C406                   add     sp, 0006
  1.6120  C706460B0000             mov     word ptr [0B46], 0000
  1.6126  C706C00B2E00             mov     word ptr [0BC0], 002E
  1.612C  A15A0B                   mov     ax, [0B5A]
  1.612F  FF065A0B                 inc     word ptr [0B5A]
  1.6133  3D0000                   cmp     ax, 0000
  1.6136  0F8D0300                 jnl     613D
  1.613A  E9962E                   jmp     8FD3

  1.613D >C7065A0B0000             mov     word ptr [0B5A], 0000
  1.6143  8B1E460B                 mov     bx, [0B46]
  1.6147  D1E3                     shl     bx, 1
  1.6149  8B878206                 mov     ax, [bx+0682]
  1.614D  A3240B                   mov     [0B24], ax
  1.6150  FF06460B                 inc     word ptr [0B46]
  1.6154  833E240B00               cmp     word ptr [0B24], 0000
  1.6159  0F850900                 jne     6166
  1.615D  C706C00B0100             mov     word ptr [0BC0], 0001
  1.6163  E96D2E                   jmp     8FD3

  1.6166 >FF36240B                 push    word ptr [0B24]
  1.616A  FF36220B                 push    word ptr [0B22]
  1.616E  FF36200B                 push    word ptr [0B20]
  1.6172  9A07487F61               call    1:4807
  1.6177  83C406                   add     sp, 0006
  1.617A  6A00                     push    0000
  1.617C  9A6F49BC61               call    1:496F
  1.6181  83C402                   add     sp, 0002
  1.6184  E94C2E                   jmp     8FD3
  1.6187  C706460B0000             mov     word ptr [0B46], 0000
  1.618D  C706C00B3000             mov     word ptr [0BC0], 0030
  1.6193  A15A0B                   mov     ax, [0B5A]
  1.6196  FF065A0B                 inc     word ptr [0B5A]
  1.619A  3D0000                   cmp     ax, 0000
  1.619D  0F8D0300                 jnl     61A4
  1.61A1  E92F2E                   jmp     8FD3

  1.61A4 >C7065A0B0000             mov     word ptr [0B5A], 0000
  1.61AA  833E460B02               cmp     word ptr [0B46], 0002
  1.61AF  0F850E00                 jne     61C1
  1.61B3  6A00                     push    0000
  1.61B5  6A00                     push    0000
  1.61B7  6A6E                     push    006E
  1.61B9  9AC842F361               call    1:42C8
  1.61BE  83C406                   add     sp, 0006

  1.61C1 >8B1E460B                 mov     bx, [0B46]
  1.61C5  D1E3                     shl     bx, 1
  1.61C7  8B879206                 mov     ax, [bx+0692]
  1.61CB  A3240B                   mov     [0B24], ax
  1.61CE  FF06460B                 inc     word ptr [0B46]
  1.61D2  833E240B00               cmp     word ptr [0B24], 0000
  1.61D7  0F850900                 jne     61E4
  1.61DB  C706C00B0100             mov     word ptr [0BC0], 0001
  1.61E1  E9EF2D                   jmp     8FD3

  1.61E4 >FF36240B                 push    word ptr [0B24]
  1.61E8  FF36220B                 push    word ptr [0B22]
  1.61EC  FF36200B                 push    word ptr [0B20]
  1.61F0  9A0748FD61               call    1:4807
  1.61F5  83C406                   add     sp, 0006
  1.61F8  6A00                     push    0000
  1.61FA  9A6F495A62               call    1:496F
  1.61FF  83C402                   add     sp, 0002
  1.6202  E9CE2D                   jmp     8FD3
  1.6205  C706460B0000             mov     word ptr [0B46], 0000
  1.620B  C706C00B3200             mov     word ptr [0BC0], 0032
  1.6211  A15A0B                   mov     ax, [0B5A]
  1.6214  FF065A0B                 inc     word ptr [0B5A]
  1.6218  3D0100                   cmp     ax, 0001
  1.621B  0F8D0300                 jnl     6222
  1.621F  E9B12D                   jmp     8FD3

  1.6222 >C7065A0B0000             mov     word ptr [0B5A], 0000
  1.6228  8B1E460B                 mov     bx, [0B46]
  1.622C  D1E3                     shl     bx, 1
  1.622E  8B87AC06                 mov     ax, [bx+06AC]
  1.6232  A3240B                   mov     [0B24], ax
  1.6235  FF06460B                 inc     word ptr [0B46]
  1.6239  833E240B00               cmp     word ptr [0B24], 0000
  1.623E  0F850900                 jne     624B
  1.6242  C706C00B0100             mov     word ptr [0BC0], 0001
  1.6248  E9882D                   jmp     8FD3

  1.624B >FF36240B                 push    word ptr [0B24]
  1.624F  FF36220B                 push    word ptr [0B22]
  1.6253  FF36200B                 push    word ptr [0B20]
  1.6257  9A07486462               call    1:4807
  1.625C  83C406                   add     sp, 0006
  1.625F  6A00                     push    0000
  1.6261  9A6F49CD62               call    1:496F
  1.6266  83C402                   add     sp, 0002
  1.6269  E9672D                   jmp     8FD3
  1.626C  C706460B0000             mov     word ptr [0B46], 0000
  1.6272  C706C00B3400             mov     word ptr [0BC0], 0034
  1.6278  A15A0B                   mov     ax, [0B5A]
  1.627B  FF065A0B                 inc     word ptr [0B5A]
  1.627F  3D0000                   cmp     ax, 0000
  1.6282  0F8D0300                 jnl     6289
  1.6286  E94A2D                   jmp     8FD3

  1.6289 >C7065A0B0000             mov     word ptr [0B5A], 0000
  1.628F  833E240B38               cmp     word ptr [0B24], 0038
  1.6294  0F850600                 jne     629E
  1.6298  B83900                   mov     ax, 0039
  1.629B  E90300                   jmp     62A1

  1.629E >B83800                   mov     ax, 0038

  1.62A1 >A3240B                   mov     [0B24], ax
  1.62A4  A1460B                   mov     ax, [0B46]
  1.62A7  FF06460B                 inc     word ptr [0B46]
  1.62AB  3D1E00                   cmp     ax, 001E
  1.62AE  0F8E0C00                 jle     62BE
  1.62B2  C706240B0300             mov     word ptr [0B24], 0003
  1.62B8  C706C00B0100             mov     word ptr [0BC0], 0001

  1.62BE >FF36240B                 push    word ptr [0B24]
  1.62C2  FF36220B                 push    word ptr [0B22]
  1.62C6  FF36200B                 push    word ptr [0B20]
  1.62CA  9A0748D762               call    1:4807
  1.62CF  83C406                   add     sp, 0006
  1.62D2  6A00                     push    0000
  1.62D4  9A6F49EE62               call    1:496F
  1.62D9  83C402                   add     sp, 0002
  1.62DC  E9F42C                   jmp     8FD3
  1.62DF  C706460B0000             mov     word ptr [0B46], 0000
  1.62E5  C706C00B3600             mov     word ptr [0BC0], 0036
  1.62EB  9A212A2F63               call    1:2A21
  1.62F0  A1CA05                   mov     ax, [05CA]
  1.62F3  A3CC05                   mov     [05CC], ax
  1.62F6  A1220B                   mov     ax, [0B22]
  1.62F9  A3300B                   mov     [0B30], ax
  1.62FC  C706320B9500             mov     word ptr [0B32], 0095
  1.6302  833ECA0500               cmp     word ptr [05CA], 0000
  1.6307  0F8E0C00                 jle     6317
  1.630B  A1200B                   mov     ax, [0B20]
  1.630E  2D2800                   sub     ax, 0028
  1.6311  A32E0B                   mov     [0B2E], ax
  1.6314  E90900                   jmp     6320

  1.6317 >A1200B                   mov     ax, [0B20]
  1.631A  052800                   add     ax, 0028
  1.631D  A32E0B                   mov     [0B2E], ax

  1.6320 >FF36320B                 push    word ptr [0B32]
  1.6324  FF36300B                 push    word ptr [0B30]
  1.6328  FF362E0B                 push    word ptr [0B2E]
  1.632C  9A8C484563               call    1:488C
  1.6331  83C406                   add     sp, 0006
  1.6334  C706CE230100             mov     word ptr [23CE], 0001
  1.633A  FF36D023                 push    word ptr [23D0]
  1.633E  FF36902D                 push    word ptr [2D90]
  1.6342  9A012B265C               call    1:2B01
  1.6347  83C404                   add     sp, 0004
  1.634A  E9862C                   jmp     8FD3
  1.634D  A15A0B                   mov     ax, [0B5A]
  1.6350  FF065A0B                 inc     word ptr [0B5A]
  1.6354  3D0200                   cmp     ax, 0002
  1.6357  0F8D0300                 jnl     635E
  1.635B  E9752C                   jmp     8FD3

  1.635E >C7065A0B0000             mov     word ptr [0B5A], 0000
  1.6364  8B1E460B                 mov     bx, [0B46]
  1.6368  D1E3                     shl     bx, 1
  1.636A  8B87B806                 mov     ax, [bx+06B8]
  1.636E  A3240B                   mov     [0B24], ax
  1.6371  FF06460B                 inc     word ptr [0B46]
  1.6375  833E240B02               cmp     word ptr [0B24], 0002
  1.637A  0F852100                 jne     639F
  1.637E  A1CA05                   mov     ax, [05CA]
  1.6381  C1E003                   shl     ax, 03
  1.6384  2906200B                 sub     [0B20], ax
  1.6388  FF36240B                 push    word ptr [0B24]
  1.638C  FF36220B                 push    word ptr [0B22]
  1.6390  FF36200B                 push    word ptr [0B20]
  1.6394  9A0748D863               call    1:4807
  1.6399  83C406                   add     sp, 0006
  1.639C  E9342C                   jmp     8FD3

  1.639F >813E240B9500             cmp     word ptr [0B24], 0095
  1.63A5  0F8C4500                 jl      63EE
  1.63A9  813E240B9900             cmp     word ptr [0B24], 0099
  1.63AF  0F8F3B00                 jg      63EE
  1.63B3  A1240B                   mov     ax, [0B24]
  1.63B6  A3320B                   mov     [0B32], ax
  1.63B9  813E320B9900             cmp     word ptr [0B32], 0099
  1.63BF  0F850600                 jne     63C9
  1.63C3  C706320BAD00             mov     word ptr [0B32], 00AD

  1.63C9 >FF36320B                 push    word ptr [0B32]
  1.63CD  FF36300B                 push    word ptr [0B30]
  1.63D1  FF362E0B                 push    word ptr [0B2E]
  1.63D5  9A8C48FA63               call    1:488C
  1.63DA  83C406                   add     sp, 0006
  1.63DD  8B1E460B                 mov     bx, [0B46]
  1.63E1  D1E3                     shl     bx, 1
  1.63E3  8B87B806                 mov     ax, [bx+06B8]
  1.63E7  A3240B                   mov     [0B24], ax
  1.63EA  FF06460B                 inc     word ptr [0B46]

  1.63EE >833E240B00               cmp     word ptr [0B24], 0000
  1.63F3  0F850E00                 jne     6405
  1.63F7  9A962A1464               call    1:2A96
  1.63FC  C706C00B0100             mov     word ptr [0BC0], 0001
  1.6402  E9CE2B                   jmp     8FD3

  1.6405 >FF36240B                 push    word ptr [0B24]
  1.6409  FF36220B                 push    word ptr [0B22]
  1.640D  FF36200B                 push    word ptr [0B20]
  1.6411  9A07485764               call    1:4807
  1.6416  83C406                   add     sp, 0006
  1.6419  E9B72B                   jmp     8FD3
  1.641C  A15A0B                   mov     ax, [0B5A]
  1.641F  FF065A0B                 inc     word ptr [0B5A]
  1.6423  3D0100                   cmp     ax, 0001
  1.6426  0F8D0300                 jnl     642D
  1.642A  E9A62B                   jmp     8FD3

  1.642D >C7065A0B0000             mov     word ptr [0B5A], 0000
  1.6433  A1CA05                   mov     ax, [05CA]
  1.6436  8BC8                     mov     cx, ax
  1.6438  D1E0                     shl     ax, 1
  1.643A  03C1                     add     ax, cx
  1.643C  D1E0                     shl     ax, 1
  1.643E  2906200B                 sub     [0B20], ax
  1.6442  C706240B0200             mov     word ptr [0B24], 0002
  1.6448  FF36240B                 push    word ptr [0B24]
  1.644C  FF36220B                 push    word ptr [0B22]
  1.6450  FF36200B                 push    word ptr [0B20]
  1.6454  9A07485F64               call    1:4807
  1.6459  83C406                   add     sp, 0006
  1.645C  9A59456464               call    1:4559
  1.6461  9AD2466B64               call    1:46D2
  1.6466  6A01                     push    0001
  1.6468  9A6F499764               call    1:496F
  1.646D  83C402                   add     sp, 0002
  1.6470  6A01                     push    0001
  1.6472  A1CA05                   mov     ax, [05CA]
  1.6475  8BC8                     mov     cx, ax
  1.6477  D1E0                     shl     ax, 1
  1.6479  03C1                     add     ax, cx
  1.647B  D1E0                     shl     ax, 1
  1.647D  0306200B                 add     ax, [0B20]
  1.6481  50                       push    ax
  1.6482  A1CA05                   mov     ax, [05CA]
  1.6485  8BC8                     mov     cx, ax
  1.6487  D1E0                     shl     ax, 1
  1.6489  03C1                     add     ax, cx
  1.648B  D1E0                     shl     ax, 1
  1.648D  2B06200B                 sub     ax, [0B20]
  1.6491  F7D8                     neg     ax
  1.6493  50                       push    ax
  1.6494  9A214C1F65               call    1:4C21
  1.6499  83C406                   add     sp, 0006
  1.649C  C706C00B3600             mov     word ptr [0BC0], 0036
  1.64A2  E92E2B                   jmp     8FD3
  1.64A5  C706460B0000             mov     word ptr [0B46], 0000
  1.64AB  C706C00B3900             mov     word ptr [0BC0], 0039
  1.64B1  A15A0B                   mov     ax, [0B5A]
  1.64B4  FF065A0B                 inc     word ptr [0B5A]
  1.64B8  3D0200                   cmp     ax, 0002
  1.64BB  0F8D0300                 jnl     64C2
  1.64BF  E9112B                   jmp     8FD3

  1.64C2 >C7065A0B0000             mov     word ptr [0B5A], 0000
  1.64C8  8B1E460B                 mov     bx, [0B46]
  1.64CC  D1E3                     shl     bx, 1
  1.64CE  8B87B806                 mov     ax, [bx+06B8]
  1.64D2  A3240B                   mov     [0B24], ax
  1.64D5  FF06460B                 inc     word ptr [0B46]
  1.64D9  813E240B9500             cmp     word ptr [0B24], 0095
  1.64DF  0F8C1B00                 jl      64FE
  1.64E3  813E240B9900             cmp     word ptr [0B24], 0099
  1.64E9  0F8F1100                 jg      64FE
  1.64ED  8B1E460B                 mov     bx, [0B46]
  1.64F1  D1E3                     shl     bx, 1
  1.64F3  8B87B806                 mov     ax, [bx+06B8]
  1.64F7  A3240B                   mov     [0B24], ax
  1.64FA  FF06460B                 inc     word ptr [0B46]

  1.64FE >833E460B10               cmp     word ptr [0B46], 0010
  1.6503  0F8C0900                 jl      6510
  1.6507  C706C00B2A00             mov     word ptr [0BC0], 002A
  1.650D  E9C32A                   jmp     8FD3

  1.6510 >FF36240B                 push    word ptr [0B24]
  1.6514  FF36220B                 push    word ptr [0B22]
  1.6518  FF36200B                 push    word ptr [0B20]
  1.651C  9A07482965               call    1:4807
  1.6521  83C406                   add     sp, 0006
  1.6524  6A00                     push    0000
  1.6526  9A6F495D65               call    1:496F
  1.652B  83C402                   add     sp, 0002
  1.652E  E9A22A                   jmp     8FD3
  1.6531  A15A0B                   mov     ax, [0B5A]
  1.6534  FF065A0B                 inc     word ptr [0B5A]
  1.6538  3D0100                   cmp     ax, 0001
  1.653B  0F8D0300                 jnl     6542
  1.653F  E9912A                   jmp     8FD3

  1.6542 >C7065A0B0000             mov     word ptr [0B5A], 0000
  1.6548  C706240B0300             mov     word ptr [0B24], 0003
  1.654E  FF36240B                 push    word ptr [0B24]
  1.6552  FF36220B                 push    word ptr [0B22]
  1.6556  FF36200B                 push    word ptr [0B20]
  1.655A  9A0748DB65               call    1:4807
  1.655F  83C406                   add     sp, 0006
  1.6562  C706C00B3B00             mov     word ptr [0BC0], 003B
  1.6568  C706460B0000             mov     word ptr [0B46], 0000
  1.656E  E9622A                   jmp     8FD3
  1.6571  A15A0B                   mov     ax, [0B5A]
  1.6574  FF065A0B                 inc     word ptr [0B5A]
  1.6578  3D0100                   cmp     ax, 0001
  1.657B  0F8D0300                 jnl     6582
  1.657F  E9512A                   jmp     8FD3

  1.6582 >C7065A0B0000             mov     word ptr [0B5A], 0000
  1.6588  833ECA0500               cmp     word ptr [05CA], 0000
  1.658D  0F8E0C00                 jle     659D
  1.6591  A1460B                   mov     ax, [0B46]
  1.6594  050900                   add     ax, 0009
  1.6597  A3240B                   mov     [0B24], ax
  1.659A  E90A00                   jmp     65A7

  1.659D >B80B00                   mov     ax, 000B
  1.65A0  2B06460B                 sub     ax, [0B46]
  1.65A4  A3240B                   mov     [0B24], ax

  1.65A7 >FF06460B                 inc     word ptr [0B46]
  1.65AB  833E460B02               cmp     word ptr [0B46], 0002
  1.65B0  0F8E1800                 jle     65CC
  1.65B4  C706240B2200             mov     word ptr [0B24], 0022
  1.65BA  C7065A0BF6FF             mov     word ptr [0B5A], FFF6
  1.65C0  C706C00B3C00             mov     word ptr [0BC0], 003C
  1.65C6  C706460B0000             mov     word ptr [0B46], 0000

  1.65CC >FF36240B                 push    word ptr [0B24]
  1.65D0  FF36220B                 push    word ptr [0B22]
  1.65D4  FF36200B                 push    word ptr [0B20]
  1.65D8  9A0748E565               call    1:4807
  1.65DD  83C406                   add     sp, 0006
  1.65E0  6A00                     push    0000
  1.65E2  9A6F492066               call    1:496F
  1.65E7  83C402                   add     sp, 0002
  1.65EA  E9E629                   jmp     8FD3
  1.65ED  A15A0B                   mov     ax, [0B5A]
  1.65F0  FF065A0B                 inc     word ptr [0B5A]
  1.65F4  3D0000                   cmp     ax, 0000
  1.65F7  0F8D0300                 jnl     65FE
  1.65FB  E9D529                   jmp     8FD3

  1.65FE >C7065A0B0000             mov     word ptr [0B5A], 0000
  1.6604  8B1E460B                 mov     bx, [0B46]
  1.6608  D1E3                     shl     bx, 1
  1.660A  8B872406                 mov     ax, [bx+0624]
  1.660E  A3240B                   mov     [0B24], ax
  1.6611  FF36240B                 push    word ptr [0B24]
  1.6615  FF36220B                 push    word ptr [0B22]
  1.6619  FF36200B                 push    word ptr [0B20]
  1.661D  9A07484966               call    1:4807
  1.6622  83C406                   add     sp, 0006
  1.6625  FF06460B                 inc     word ptr [0B46]
  1.6629  833E460B07               cmp     word ptr [0B46], 0007
  1.662E  0F8E1200                 jle     6644
  1.6632  C706460B0000             mov     word ptr [0B46], 0000
  1.6638  C706C00B3D00             mov     word ptr [0BC0], 003D
  1.663E  C7065A0BFBFF             mov     word ptr [0B5A], FFFB

  1.6644 >6A00                     push    0000
  1.6646  9A6F499666               call    1:496F
  1.664B  83C402                   add     sp, 0002
  1.664E  E98229                   jmp     8FD3
  1.6651  A15A0B                   mov     ax, [0B5A]
  1.6654  FF065A0B                 inc     word ptr [0B5A]
  1.6658  3D0100                   cmp     ax, 0001
  1.665B  0F8D0300                 jnl     6662
  1.665F  E97129                   jmp     8FD3

  1.6662 >C7065A0B0000             mov     word ptr [0B5A], 0000
  1.6668  833ECA0500               cmp     word ptr [05CA], 0000
  1.666D  0F8E0D00                 jle     667E
  1.6671  B80A00                   mov     ax, 000A
  1.6674  2B06460B                 sub     ax, [0B46]
  1.6678  A3240B                   mov     [0B24], ax
  1.667B  E90900                   jmp     6687

  1.667E >A1460B                   mov     ax, [0B46]
  1.6681  050A00                   add     ax, 000A
  1.6684  A3240B                   mov     [0B24], ax

  1.6687 >FF36240B                 push    word ptr [0B24]
  1.668B  FF36220B                 push    word ptr [0B22]
  1.668F  FF36200B                 push    word ptr [0B20]
  1.6693  9A0748B366               call    1:4807
  1.6698  83C406                   add     sp, 0006
  1.669B  FF06460B                 inc     word ptr [0B46]
  1.669F  833E460B01               cmp     word ptr [0B46], 0001
  1.66A4  0F8E0600                 jle     66AE
  1.66A8  C706C00B2A00             mov     word ptr [0BC0], 002A

  1.66AE >6A00                     push    0000
  1.66B0  9A6F49D066               call    1:496F
  1.66B5  83C402                   add     sp, 0002
  1.66B8  E91829                   jmp     8FD3
  1.66BB  C706240B0300             mov     word ptr [0B24], 0003
  1.66C1  FF36240B                 push    word ptr [0B24]
  1.66C5  FF36220B                 push    word ptr [0B22]
  1.66C9  FF36200B                 push    word ptr [0B20]
  1.66CD  9A0748BB5F               call    1:4807
  1.66D2  83C406                   add     sp, 0006
  1.66D5  C706460B0000             mov     word ptr [0B46], 0000
  1.66DB  C706C00B4200             mov     word ptr [0BC0], 0042
  1.66E1  E9EF28                   jmp     8FD3
  1.66E4  A15A0B                   mov     ax, [0B5A]
  1.66E7  FF065A0B                 inc     word ptr [0B5A]
  1.66EB  3D0100                   cmp     ax, 0001
  1.66EE  0F8D0300                 jnl     66F5
  1.66F2  E9DE28                   jmp     8FD3

  1.66F5 >C7065A0B0000             mov     word ptr [0B5A], 0000
  1.66FB  833E460B00               cmp     word ptr [0B46], 0000
  1.6700  0F851B00                 jne     671F
  1.6704  833ECA0500               cmp     word ptr [05CA], 0000
  1.6709  0F8E0900                 jle     6716
  1.670D  C706240B0900             mov     word ptr [0B24], 0009
  1.6713  E90600                   jmp     671C

  1.6716 >C706240B0B00             mov     word ptr [0B24], 000B

  1.671C >E90600                   jmp     6725

  1.671F >C706240B0A00             mov     word ptr [0B24], 000A

  1.6725 >FF36240B                 push    word ptr [0B24]
  1.6729  FF36220B                 push    word ptr [0B22]
  1.672D  FF36200B                 push    word ptr [0B20]
  1.6731  9A07485067               call    1:4807
  1.6736  83C406                   add     sp, 0006
  1.6739  A1460B                   mov     ax, [0B46]
  1.673C  FF06460B                 inc     word ptr [0B46]
  1.6740  3D0000                   cmp     ax, 0000
  1.6743  0F8E2300                 jle     676A
  1.6747  C706C00B4300             mov     word ptr [0BC0], 0043
  1.674D  9AB6126F67               call    1:12B6
  1.6752  B90400                   mov     cx, 0004
  1.6755  99                       cwd    
  1.6756  F7F9                     idiv    cx
  1.6758  03D1                     add     dx, cx
  1.675A  C1E203                   shl     dx, 03
  1.675D  8916480B                 mov     [0B48], dx
  1.6761  C706460B0000             mov     word ptr [0B46], 0000
  1.6767  E96928                   jmp     8FD3

  1.676A >6A00                     push    0000
  1.676C  9A6F49B767               call    1:496F
  1.6771  83C402                   add     sp, 0002
  1.6774  E95C28                   jmp     8FD3
  1.6777  FF0E460B                 dec     word ptr [0B46]
  1.677B  833E460B00               cmp     word ptr [0B46], 0000
  1.6780  0F8D0600                 jnl     678A
  1.6784  C706460B4F00             mov     word ptr [0B46], 004F

  1.678A >A1CA05                   mov     ax, [05CA]
  1.678D  C1E003                   shl     ax, 03
  1.6790  2906200B                 sub     [0B20], ax
  1.6794  A1460B                   mov     ax, [0B46]
  1.6797  B90800                   mov     cx, 0008
  1.679A  99                       cwd    
  1.679B  F7F9                     idiv    cx
  1.679D  8BDA                     mov     bx, dx
  1.679F  D1E3                     shl     bx, 1
  1.67A1  8B874408                 mov     ax, [bx+0844]
  1.67A5  A3240B                   mov     [0B24], ax
  1.67A8  FF36240B                 push    word ptr [0B24]
  1.67AC  FF36220B                 push    word ptr [0B22]
  1.67B0  FF36200B                 push    word ptr [0B20]
  1.67B4  9A07481D68               call    1:4807
  1.67B9  83C406                   add     sp, 0006
  1.67BC  833ECA0500               cmp     word ptr [05CA], 0000
  1.67C1  0F8E0F00                 jle     67D4
  1.67C5  833E200B00               cmp     word ptr [0B20], 0000
  1.67CA  0F8D0600                 jnl     67D4
  1.67CE  C706C00B1E00             mov     word ptr [0BC0], 001E

  1.67D4 >833ECA0500               cmp     word ptr [05CA], 0000
  1.67D9  0F8D2200                 jnl     67FF
  1.67DD  A1702D                   mov     ax, [2D70]
  1.67E0  8B1E240B                 mov     bx, [0B24]
  1.67E4  8BCB                     mov     cx, bx
  1.67E6  D1E3                     shl     bx, 1
  1.67E8  03D9                     add     bx, cx
  1.67EA  C1E302                   shl     bx, 02
  1.67ED  2B87CA0B                 sub     ax, [bx+0BCA]
  1.67F1  3B06200B                 cmp     ax, [0B20]
  1.67F5  0F8D0600                 jnl     67FF
  1.67F9  C706C00B1E00             mov     word ptr [0BC0], 001E

  1.67FF >FF0E480B                 dec     word ptr [0B48]
  1.6803  833E480B00               cmp     word ptr [0B48], 0000
  1.6808  0F8F0C00                 jg      6818
  1.680C  C706C00B4400             mov     word ptr [0BC0], 0044
  1.6812  C706460B0000             mov     word ptr [0B46], 0000

  1.6818 >6A02                     push    0002
  1.681A  9A6F493F68               call    1:496F
  1.681F  83C402                   add     sp, 0002
  1.6822  6A02                     push    0002
  1.6824  A1CA05                   mov     ax, [05CA]
  1.6827  C1E003                   shl     ax, 03
  1.682A  0306200B                 add     ax, [0B20]
  1.682E  50                       push    ax
  1.682F  A1CA05                   mov     ax, [05CA]
  1.6832  C1E003                   shl     ax, 03
  1.6835  2B06200B                 sub     ax, [0B20]
  1.6839  F7D8                     neg     ax
  1.683B  50                       push    ax
  1.683C  9A214CA968               call    1:4C21
  1.6841  83C406                   add     sp, 0006
  1.6844  E98C27                   jmp     8FD3
  1.6847  A15A0B                   mov     ax, [0B5A]
  1.684A  FF065A0B                 inc     word ptr [0B5A]
  1.684E  3D0100                   cmp     ax, 0001
  1.6851  0F8D0300                 jnl     6858
  1.6855  E97B27                   jmp     8FD3

  1.6858 >C7065A0B0000             mov     word ptr [0B5A], 0000
  1.685E  833E460B01               cmp     word ptr [0B46], 0001
  1.6863  0F851B00                 jne     6882
  1.6867  833ECA0500               cmp     word ptr [05CA], 0000
  1.686C  0F8E0900                 jle     6879
  1.6870  C706240B0900             mov     word ptr [0B24], 0009
  1.6876  E90600                   jmp     687F

  1.6879 >C706240B0B00             mov     word ptr [0B24], 000B

  1.687F >E91800                   jmp     689A

  1.6882 >833E460B00               cmp     word ptr [0B46], 0000
  1.6887  0F850900                 jne     6894
  1.688B  C706240B0A00             mov     word ptr [0B24], 000A
  1.6891  E90600                   jmp     689A

  1.6894 >C706240B0300             mov     word ptr [0B24], 0003

  1.689A >FF36240B                 push    word ptr [0B24]
  1.689E  FF36220B                 push    word ptr [0B22]
  1.68A2  FF36200B                 push    word ptr [0B20]
  1.68A6  9A0748CA68               call    1:4807
  1.68AB  83C406                   add     sp, 0006
  1.68AE  A1460B                   mov     ax, [0B46]
  1.68B1  FF06460B                 inc     word ptr [0B46]
  1.68B5  3D0100                   cmp     ax, 0001
  1.68B8  0F8E0900                 jle     68C5
  1.68BC  C706C00B0100             mov     word ptr [0BC0], 0001
  1.68C2  E90E27                   jmp     8FD3

  1.68C5 >6A00                     push    0000
  1.68C7  9A6F492669               call    1:496F
  1.68CC  83C402                   add     sp, 0002
  1.68CF  E90127                   jmp     8FD3
  1.68D2  C706C00B3F00             mov     word ptr [0BC0], 003F
  1.68D8  C706460B0000             mov     word ptr [0B46], 0000
  1.68DE  E9F226                   jmp     8FD3
  1.68E1  A15A0B                   mov     ax, [0B5A]
  1.68E4  FF065A0B                 inc     word ptr [0B5A]
  1.68E8  3D0200                   cmp     ax, 0002
  1.68EB  0F8D0300                 jnl     68F2
  1.68EF  E9E126                   jmp     8FD3

  1.68F2 >C7065A0B0000             mov     word ptr [0B5A], 0000
  1.68F8  8B1E460B                 mov     bx, [0B46]
  1.68FC  D1E3                     shl     bx, 1
  1.68FE  8B872C08                 mov     ax, [bx+082C]
  1.6902  A3240B                   mov     [0B24], ax
  1.6905  833E240B00               cmp     word ptr [0B24], 0000
  1.690A  0F850900                 jne     6917
  1.690E  C706C00B0100             mov     word ptr [0BC0], 0001
  1.6914  E9BC26                   jmp     8FD3

  1.6917 >FF36240B                 push    word ptr [0B24]
  1.691B  FF36220B                 push    word ptr [0B22]
  1.691F  FF36200B                 push    word ptr [0B20]
  1.6923  9A07483469               call    1:4807
  1.6928  83C406                   add     sp, 0006
  1.692B  FF06460B                 inc     word ptr [0B46]
  1.692F  6A00                     push    0000
  1.6931  9A6F493F69               call    1:496F
  1.6936  83C402                   add     sp, 0002
  1.6939  E99726                   jmp     8FD3
  1.693C  9AB6128069               call    1:12B6
  1.6941  B90800                   mov     cx, 0008
  1.6944  99                       cwd    
  1.6945  F7F9                     idiv    cx
  1.6947  03D1                     add     dx, cx
  1.6949  8916460B                 mov     [0B46], dx
  1.694D  A1460B                   mov     ax, [0B46]
  1.6950  A3480B                   mov     [0B48], ax
  1.6953  C706240B8300             mov     word ptr [0B24], 0083
  1.6959  833ECA0500               cmp     word ptr [05CA], 0000
  1.695E  0F8E0900                 jle     696B
  1.6962  C706240B0C00             mov     word ptr [0B24], 000C
  1.6968  E90600                   jmp     6971

  1.696B >C706240B0E00             mov     word ptr [0B24], 000E

  1.6971 >FF36240B                 push    word ptr [0B24]
  1.6975  FF36220B                 push    word ptr [0B22]
  1.6979  FF36200B                 push    word ptr [0B20]
  1.697D  9A0748BA69               call    1:4807
  1.6982  83C406                   add     sp, 0006
  1.6985  C706C00B4C00             mov     word ptr [0BC0], 004C
  1.698B  E94526                   jmp     8FD3
  1.698E  A15A0B                   mov     ax, [0B5A]
  1.6991  FF065A0B                 inc     word ptr [0B5A]
  1.6995  3D0100                   cmp     ax, 0001
  1.6998  0F8D0300                 jnl     699F
  1.699C  E93426                   jmp     8FD3

  1.699F >C7065A0B0000             mov     word ptr [0B5A], 0000
  1.69A5  C706240B0D00             mov     word ptr [0B24], 000D
  1.69AB  FF36240B                 push    word ptr [0B24]
  1.69AF  FF36220B                 push    word ptr [0B22]
  1.69B3  FF36200B                 push    word ptr [0B20]
  1.69B7  9A0748096A               call    1:4807
  1.69BC  83C406                   add     sp, 0006
  1.69BF  C706C00B4D00             mov     word ptr [0BC0], 004D
  1.69C5  E90B26                   jmp     8FD3
  1.69C8  A15A0B                   mov     ax, [0B5A]
  1.69CB  FF065A0B                 inc     word ptr [0B5A]
  1.69CF  3D0200                   cmp     ax, 0002
  1.69D2  0F8D0300                 jnl     69D9
  1.69D6  E9FA25                   jmp     8FD3

  1.69D9 >C7065A0B0000             mov     word ptr [0B5A], 0000
  1.69DF  813E240B8300             cmp     word ptr [0B24], 0083
  1.69E5  0F850600                 jne     69EF
  1.69E9  B88400                   mov     ax, 0084
  1.69EC  E90300                   jmp     69F2

  1.69EF >B88300                   mov     ax, 0083

  1.69F2 >A3240B                   mov     [0B24], ax
  1.69F5  832E220B08               sub     word ptr [0B22], 0008
  1.69FA  FF36240B                 push    word ptr [0B24]
  1.69FE  FF36220B                 push    word ptr [0B22]
  1.6A02  FF36200B                 push    word ptr [0B20]
  1.6A06  9A0748456A               call    1:4807
  1.6A0B  83C406                   add     sp, 0006
  1.6A0E  A1460B                   mov     ax, [0B46]
  1.6A11  FF0E460B                 dec     word ptr [0B46]
  1.6A15  3D0000                   cmp     ax, 0000
  1.6A18  0F8F0C00                 jg      6A28
  1.6A1C  A1480B                   mov     ax, [0B48]
  1.6A1F  A3460B                   mov     [0B46], ax
  1.6A22  C706C00B4E00             mov     word ptr [0BC0], 004E

  1.6A28 >E9A825                   jmp     8FD3
  1.6A2B  C706240B8500             mov     word ptr [0B24], 0085
  1.6A31  8306220B08               add     word ptr [0B22], 0008
  1.6A36  FF36240B                 push    word ptr [0B24]
  1.6A3A  FF36220B                 push    word ptr [0B22]
  1.6A3E  FF36200B                 push    word ptr [0B20]
  1.6A42  9A07489763               call    1:4807
  1.6A47  83C406                   add     sp, 0006
  1.6A4A  A1460B                   mov     ax, [0B46]
  1.6A4D  FF0E460B                 dec     word ptr [0B46]
  1.6A51  3D0000                   cmp     ax, 0000
  1.6A54  0F8F0600                 jg      6A5E
  1.6A58  C706C00B4F00             mov     word ptr [0BC0], 004F

  1.6A5E >E97225                   jmp     8FD3
  1.6A61  A15A0B                   mov     ax, [0B5A]
  1.6A64  FF065A0B                 inc     word ptr [0B5A]
  1.6A68  3D0A00                   cmp     ax, 000A
  1.6A6B  0F8D0300                 jnl     6A72
  1.6A6F  E96125                   jmp     8FD3

  1.6A72 >C7065A0B0000             mov     word ptr [0B5A], 0000
  1.6A78  C706C00B5000             mov     word ptr [0BC0], 0050
  1.6A7E  C706460B0300             mov     word ptr [0B46], 0003
  1.6A84  E94C25                   jmp     8FD3
  1.6A87  A15A0B                   mov     ax, [0B5A]
  1.6A8A  FF065A0B                 inc     word ptr [0B5A]
  1.6A8E  3D0100                   cmp     ax, 0001
  1.6A91  0F8D0300                 jnl     6A98
  1.6A95  E93B25                   jmp     8FD3

  1.6A98 >C7065A0B0000             mov     word ptr [0B5A], 0000
  1.6A9E  833ECA0500               cmp     word ptr [05CA], 0000
  1.6AA3  0F8E1400                 jle     6ABB
  1.6AA7  8B1E460B                 mov     bx, [0B46]
  1.6AAB  D1E3                     shl     bx, 1
  1.6AAD  8B875C07                 mov     ax, [bx+075C]
  1.6AB1  A3240B                   mov     [0B24], ax
  1.6AB4  FF06460B                 inc     word ptr [0B46]
  1.6AB8  E91100                   jmp     6ACC

  1.6ABB >8B1E460B                 mov     bx, [0B46]
  1.6ABF  D1E3                     shl     bx, 1
  1.6AC1  8B876C07                 mov     ax, [bx+076C]
  1.6AC5  A3240B                   mov     [0B24], ax
  1.6AC8  FF06460B                 inc     word ptr [0B46]

  1.6ACC >833E240B00               cmp     word ptr [0B24], 0000
  1.6AD1  0F850900                 jne     6ADE
  1.6AD5  C706C00B0100             mov     word ptr [0BC0], 0001
  1.6ADB  E9F524                   jmp     8FD3

  1.6ADE >FF36240B                 push    word ptr [0B24]
  1.6AE2  FF36220B                 push    word ptr [0B22]
  1.6AE6  FF36200B                 push    word ptr [0B20]
  1.6AEA  9A0748696B               call    1:4807
  1.6AEF  83C406                   add     sp, 0006
  1.6AF2  E9DE24                   jmp     8FD3
  1.6AF5  C7065A0B0000             mov     word ptr [0B5A], 0000
  1.6AFB  C706460B0000             mov     word ptr [0B46], 0000
  1.6B01  C706C00B4600             mov     word ptr [0BC0], 0046
  1.6B07  833ECA0500               cmp     word ptr [05CA], 0000
  1.6B0C  0F8E1700                 jle     6B27
  1.6B10  A1460B                   mov     ax, [0B46]
  1.6B13  B90800                   mov     cx, 0008
  1.6B16  99                       cwd    
  1.6B17  F7F9                     idiv    cx
  1.6B19  8BDA                     mov     bx, dx
  1.6B1B  D1E3                     shl     bx, 1
  1.6B1D  8B875608                 mov     ax, [bx+0856]
  1.6B21  A3240B                   mov     [0B24], ax
  1.6B24  E91700                   jmp     6B3E

  1.6B27 >A1460B                   mov     ax, [0B46]
  1.6B2A  050400                   add     ax, 0004
  1.6B2D  B90800                   mov     cx, 0008
  1.6B30  99                       cwd    
  1.6B31  F7F9                     idiv    cx
  1.6B33  8BDA                     mov     bx, dx
  1.6B35  D1E3                     shl     bx, 1
  1.6B37  8B875608                 mov     ax, [bx+0856]
  1.6B3B  A3240B                   mov     [0B24], ax

  1.6B3E >833E240B02               cmp     word ptr [0B24], 0002
  1.6B43  0F854500                 jne     6B8C
  1.6B47  C706240B0300             mov     word ptr [0B24], 0003
  1.6B4D  833ECA0500               cmp     word ptr [05CA], 0000
  1.6B52  0F8E1F00                 jle     6B75
  1.6B56  F71ECA05                 neg     word ptr [05CA]
  1.6B5A  FF36240B                 push    word ptr [0B24]
  1.6B5E  FF36220B                 push    word ptr [0B22]
  1.6B62  FF36200B                 push    word ptr [0B20]
  1.6B66  9A0748846B               call    1:4807
  1.6B6B  83C406                   add     sp, 0006
  1.6B6E  F71ECA05                 neg     word ptr [05CA]
  1.6B72  E91400                   jmp     6B89

  1.6B75 >FF36240B                 push    word ptr [0B24]
  1.6B79  FF36220B                 push    word ptr [0B22]
  1.6B7D  FF36200B                 push    word ptr [0B20]
  1.6B81  9A0748B16B               call    1:4807
  1.6B86  83C406                   add     sp, 0006

  1.6B89 >E95C00                   jmp     6BE8

  1.6B8C >833E240B03               cmp     word ptr [0B24], 0003
  1.6B91  0F853F00                 jne     6BD4
  1.6B95  833ECA0500               cmp     word ptr [05CA], 0000
  1.6B9A  0F8D1F00                 jnl     6BBD
  1.6B9E  F71ECA05                 neg     word ptr [05CA]
  1.6BA2  FF36240B                 push    word ptr [0B24]
  1.6BA6  FF36220B                 push    word ptr [0B22]
  1.6BAA  FF36200B                 push    word ptr [0B20]
  1.6BAE  9A0748CC6B               call    1:4807
  1.6BB3  83C406                   add     sp, 0006
  1.6BB6  F71ECA05                 neg     word ptr [05CA]
  1.6BBA  E91400                   jmp     6BD1

  1.6BBD >FF36240B                 push    word ptr [0B24]
  1.6BC1  FF36220B                 push    word ptr [0B22]
  1.6BC5  FF36200B                 push    word ptr [0B20]
  1.6BC9  9A0748E36B               call    1:4807
  1.6BCE  83C406                   add     sp, 0006

  1.6BD1 >E91400                   jmp     6BE8

  1.6BD4 >FF36240B                 push    word ptr [0B24]
  1.6BD8  FF36220B                 push    word ptr [0B22]
  1.6BDC  FF36200B                 push    word ptr [0B20]
  1.6BE0  9A07480B6C               call    1:4807
  1.6BE5  83C406                   add     sp, 0006

  1.6BE8 >A1460B                   mov     ax, [0B46]
  1.6BEB  FF06460B                 inc     word ptr [0B46]
  1.6BEF  3D1000                   cmp     ax, 0010
  1.6BF2  0F8C2000                 jl      6C16
  1.6BF6  C706240B4600             mov     word ptr [0B24], 0046
  1.6BFC  FF36240B                 push    word ptr [0B24]
  1.6C00  FF36220B                 push    word ptr [0B22]
  1.6C04  FF36200B                 push    word ptr [0B20]
  1.6C08  9A07481B6C               call    1:4807
  1.6C0D  83C406                   add     sp, 0006
  1.6C10  C706C00B4700             mov     word ptr [0BC0], 0047

  1.6C16 >6A00                     push    0000
  1.6C18  9A6F49286C               call    1:496F
  1.6C1D  83C402                   add     sp, 0002
  1.6C20  E9B023                   jmp     8FD3
  1.6C23  6A00                     push    0000
  1.6C25  9A6F49596C               call    1:496F
  1.6C2A  83C402                   add     sp, 0002
  1.6C2D  A15A0B                   mov     ax, [0B5A]
  1.6C30  FF065A0B                 inc     word ptr [0B5A]
  1.6C34  3D0E00                   cmp     ax, 000E
  1.6C37  0F8D0300                 jnl     6C3E
  1.6C3B  E99523                   jmp     8FD3

  1.6C3E >C7065A0B0000             mov     word ptr [0B5A], 0000
  1.6C44  C706240B6000             mov     word ptr [0B24], 0060
  1.6C4A  FF36240B                 push    word ptr [0B24]
  1.6C4E  FF36220B                 push    word ptr [0B22]
  1.6C52  FF36200B                 push    word ptr [0B20]
  1.6C56  9A07486C6C               call    1:4807
  1.6C5B  83C406                   add     sp, 0006
  1.6C5E  C706C00B4800             mov     word ptr [0BC0], 0048
  1.6C64  E96C23                   jmp     8FD3
  1.6C67  6A00                     push    0000
  1.6C69  9A6F499D6C               call    1:496F
  1.6C6E  83C402                   add     sp, 0002
  1.6C71  A15A0B                   mov     ax, [0B5A]
  1.6C74  FF065A0B                 inc     word ptr [0B5A]
  1.6C78  3D1E00                   cmp     ax, 001E
  1.6C7B  0F8D0300                 jnl     6C82
  1.6C7F  E95123                   jmp     8FD3

  1.6C82 >C7065A0B0000             mov     word ptr [0B5A], 0000
  1.6C88  C706240B0300             mov     word ptr [0B24], 0003
  1.6C8E  FF36240B                 push    word ptr [0B24]
  1.6C92  FF36220B                 push    word ptr [0B22]
  1.6C96  FF36200B                 push    word ptr [0B20]
  1.6C9A  9A0748006D               call    1:4807
  1.6C9F  83C406                   add     sp, 0006
  1.6CA2  C706C00B0100             mov     word ptr [0BC0], 0001
  1.6CA8  E92823                   jmp     8FD3
  1.6CAB  C706460B0000             mov     word ptr [0B46], 0000
  1.6CB1  C706C00B4A00             mov     word ptr [0BC0], 004A
  1.6CB7  A15A0B                   mov     ax, [0B5A]
  1.6CBA  FF065A0B                 inc     word ptr [0B5A]
  1.6CBE  3D0200                   cmp     ax, 0002
  1.6CC1  0F8D0300                 jnl     6CC8
  1.6CC5  E90B23                   jmp     8FD3

  1.6CC8 >C7065A0B0000             mov     word ptr [0B5A], 0000
  1.6CCE  8B1E460B                 mov     bx, [0B46]
  1.6CD2  D1E3                     shl     bx, 1
  1.6CD4  8B874207                 mov     ax, [bx+0742]
  1.6CD8  A3240B                   mov     [0B24], ax
  1.6CDB  FF06460B                 inc     word ptr [0B46]
  1.6CDF  833E240B00               cmp     word ptr [0B24], 0000
  1.6CE4  0F850900                 jne     6CF1
  1.6CE8  C706C00B0100             mov     word ptr [0BC0], 0001
  1.6CEE  E9E222                   jmp     8FD3

  1.6CF1 >FF36240B                 push    word ptr [0B24]
  1.6CF5  FF36220B                 push    word ptr [0B22]
  1.6CF9  FF36200B                 push    word ptr [0B20]
  1.6CFD  9A07480A6D               call    1:4807
  1.6D02  83C406                   add     sp, 0006
  1.6D05  6A00                     push    0000
  1.6D07  9A6F49276D               call    1:496F
  1.6D0C  83C402                   add     sp, 0002
  1.6D0F  E9C122                   jmp     8FD3
  1.6D12  C706240B0400             mov     word ptr [0B24], 0004
  1.6D18  FF36240B                 push    word ptr [0B24]
  1.6D1C  FF36220B                 push    word ptr [0B22]
  1.6D20  FF36200B                 push    word ptr [0B20]
  1.6D24  9A07485F6D               call    1:4807
  1.6D29  83C406                   add     sp, 0006
  1.6D2C  C706C00B5200             mov     word ptr [0BC0], 0052
  1.6D32  E99E22                   jmp     8FD3
  1.6D35  C7065A0B0000             mov     word ptr [0B5A], 0000
  1.6D3B  833E240B04               cmp     word ptr [0B24], 0004
  1.6D40  0F850600                 jne     6D4A
  1.6D44  B80500                   mov     ax, 0005
  1.6D47  E90300                   jmp     6D4D

  1.6D4A >B80400                   mov     ax, 0004

  1.6D4D >A3240B                   mov     [0B24], ax
  1.6D50  FF36240B                 push    word ptr [0B24]
  1.6D54  FF36220B                 push    word ptr [0B22]
  1.6D58  FF36200B                 push    word ptr [0B20]
  1.6D5C  9A07489E6D               call    1:4807
  1.6D61  83C406                   add     sp, 0006
  1.6D64  E96C22                   jmp     8FD3
  1.6D67  C706C00B0000             mov     word ptr [0BC0], 0000
  1.6D6D  E96322                   jmp     8FD3
  1.6D70  9A164F0000               call    USER.GETACTIVEWINDOW
  1.6D75  A33C0B                   mov     [0B3C], ax
  1.6D78  A1D023                   mov     ax, [23D0]
  1.6D7B  39063C0B                 cmp     [0B3C], ax
  1.6D7F  0F842700                 je      6DAA
  1.6D83  A1902D                   mov     ax, [2D90]
  1.6D86  39063C0B                 cmp     [0B3C], ax
  1.6D8A  0F841C00                 je      6DAA
  1.6D8E  833E3C0B00               cmp     word ptr [0B3C], 0000
  1.6D93  0F841300                 je      6DAA
  1.6D97  FF363C0B                 push    word ptr [0B3C]
  1.6D9B  9AD639BE6D               call    1:39D6
  1.6DA0  83C402                   add     sp, 0002
  1.6DA3  3D0000                   cmp     ax, 0000
  1.6DA6  0F840900                 je      6DB3

  1.6DAA >C706C00B0100             mov     word ptr [0BC0], 0001
  1.6DB0  E92022                   jmp     8FD3

  1.6DB3 >1E                       push    ds
  1.6DB4  683E0B                   push    0B3E
  1.6DB7  FF363C0B                 push    word ptr [0B3C]
  1.6DBB  9A1D493E6E               call    1:491D
  1.6DC0  83C406                   add     sp, 0006
  1.6DC3  833E400B0A               cmp     word ptr [0B40], 000A
  1.6DC8  0F8D0900                 jnl     6DD5
  1.6DCC  C706C00B0100             mov     word ptr [0BC0], 0001
  1.6DD2  E9FE21                   jmp     8FD3

  1.6DD5 >833ECA0500               cmp     word ptr [05CA], 0000
  1.6DDA  0F8E2400                 jle     6E02
  1.6DDE  A1200B                   mov     ax, [0B20]
  1.6DE1  3906420B                 cmp     [0B42], ax
  1.6DE5  0F8D1900                 jnl     6E02
  1.6DE9  A1220B                   mov     ax, [0B22]
  1.6DEC  3906400B                 cmp     [0B40], ax
  1.6DF0  0F8D0E00                 jnl     6E02
  1.6DF4  A1220B                   mov     ax, [0B22]
  1.6DF7  052800                   add     ax, 0028
  1.6DFA  3B06440B                 cmp     ax, [0B44]
  1.6DFE  0F8C3000                 jl      6E32

  1.6E02 >833ECA0500               cmp     word ptr [05CA], 0000
  1.6E07  0F8D3000                 jnl     6E3B
  1.6E0B  A1200B                   mov     ax, [0B20]
  1.6E0E  052800                   add     ax, 0028
  1.6E11  3B063E0B                 cmp     ax, [0B3E]
  1.6E15  0F8D2200                 jnl     6E3B
  1.6E19  A1220B                   mov     ax, [0B22]
  1.6E1C  3906400B                 cmp     [0B40], ax
  1.6E20  0F8D1700                 jnl     6E3B
  1.6E24  A1220B                   mov     ax, [0B22]
  1.6E27  052800                   add     ax, 0028
  1.6E2A  3B06440B                 cmp     ax, [0B44]
  1.6E2E  0F8D0900                 jnl     6E3B

  1.6E32 >C706C00B5700             mov     word ptr [0BC0], 0057
  1.6E38  E99821                   jmp     8FD3

  1.6E3B >9AB6123467               call    1:12B6
  1.6E40  99                       cwd    
  1.6E41  F73E420B                 idiv    word ptr [0B42]
  1.6E45  8BC2                     mov     ax, dx
  1.6E47  2B063E0B                 sub     ax, [0B3E]
  1.6E4B  B90300                   mov     cx, 0003
  1.6E4E  99                       cwd    
  1.6E4F  F7F9                     idiv    cx
  1.6E51  8BC8                     mov     cx, ax
  1.6E53  A1420B                   mov     ax, [0B42]
  1.6E56  2B063E0B                 sub     ax, [0B3E]
  1.6E5A  99                       cwd    
  1.6E5B  2BC2                     sub     ax, dx
  1.6E5D  D1F8                     sar     ax, 1
  1.6E5F  03C8                     add     cx, ax
  1.6E61  030E3E0B                 add     cx, [0B3E]
  1.6E65  83E914                   sub     cx, 0014
  1.6E68  890E5C0B                 mov     [0B5C], cx
  1.6E6C  A1400B                   mov     ax, [0B40]
  1.6E6F  2D2800                   sub     ax, 0028
  1.6E72  A35E0B                   mov     [0B5E], ax
  1.6E75  A1702D                   mov     ax, [2D70]
  1.6E78  99                       cwd    
  1.6E79  2BC2                     sub     ax, dx
  1.6E7B  D1F8                     sar     ax, 1
  1.6E7D  2D1400                   sub     ax, 0014
  1.6E80  3B06200B                 cmp     ax, [0B20]
  1.6E84  0F8E0900                 jle     6E91
  1.6E88  C706CA050100             mov     word ptr [05CA], 0001
  1.6E8E  E90600                   jmp     6E97

  1.6E91 >C706CA05FFFF             mov     word ptr [05CA], FFFF

  1.6E97 >C706240B0400             mov     word ptr [0B24], 0004
  1.6E9D  FF36240B                 push    word ptr [0B24]
  1.6EA1  FF36220B                 push    word ptr [0B22]
  1.6EA5  FF36200B                 push    word ptr [0B20]
  1.6EA9  9A0748FF6E               call    1:4807
  1.6EAE  83C406                   add     sp, 0006
  1.6EB1  C706C00B5600             mov     word ptr [0BC0], 0056
  1.6EB7  E91921                   jmp     8FD3
  1.6EBA  A15A0B                   mov     ax, [0B5A]
  1.6EBD  FF065A0B                 inc     word ptr [0B5A]
  1.6EC1  3D0100                   cmp     ax, 0001
  1.6EC4  0F8D0300                 jnl     6ECB
  1.6EC8  E90821                   jmp     8FD3

  1.6ECB >C7065A0B0000             mov     word ptr [0B5A], 0000
  1.6ED1  A1CA05                   mov     ax, [05CA]
  1.6ED4  C1E004                   shl     ax, 04
  1.6ED7  2906200B                 sub     [0B20], ax
  1.6EDB  833E240B04               cmp     word ptr [0B24], 0004
  1.6EE0  0F850600                 jne     6EEA
  1.6EE4  B80500                   mov     ax, 0005
  1.6EE7  E90300                   jmp     6EED

  1.6EEA >B80400                   mov     ax, 0004

  1.6EED >A3240B                   mov     [0B24], ax
  1.6EF0  FF36240B                 push    word ptr [0B24]
  1.6EF4  FF36220B                 push    word ptr [0B22]
  1.6EF8  FF36200B                 push    word ptr [0B20]
  1.6EFC  9A07481F6F               call    1:4807
  1.6F01  83C406                   add     sp, 0006
  1.6F04  833E200BD8               cmp     word ptr [0B20], FFD8
  1.6F09  0F8C0B00                 jl      6F18
  1.6F0D  A1702D                   mov     ax, [2D70]
  1.6F10  3906200B                 cmp     [0B20], ax
  1.6F14  0F8E9700                 jle     6FAF

  1.6F18 >FF363C0B                 push    word ptr [0B3C]
  1.6F1C  9AF348376F               call    1:48F3
  1.6F21  83C402                   add     sp, 0002
  1.6F24  3D0000                   cmp     ax, 0000
  1.6F27  0F850900                 jne     6F34
  1.6F2B  C706C00B0100             mov     word ptr [0BC0], 0001
  1.6F31  E99F20                   jmp     8FD3

  1.6F34 >9AB6127C6F               call    1:12B6
  1.6F39  B90300                   mov     cx, 0003
  1.6F3C  99                       cwd    
  1.6F3D  F7F9                     idiv    cx
  1.6F3F  83FA00                   cmp     dx, 0000
  1.6F42  0F850900                 jne     6F4F
  1.6F46  C706C00B0300             mov     word ptr [0BC0], 0003
  1.6F4C  E9E4DD                   jmp     4D33

  1.6F4F >C706600B0000             mov     word ptr [0B60], 0000
  1.6F55  C706C00B5C00             mov     word ptr [0BC0], 005C
  1.6F5B  C7061C0B0100             mov     word ptr [0B1C], 0001
  1.6F61  A15C0B                   mov     ax, [0B5C]
  1.6F64  A3200B                   mov     [0B20], ax
  1.6F67  C706220BD8FF             mov     word ptr [0B22], FFD8
  1.6F6D  C706260B0000             mov     word ptr [0B26], 0000
  1.6F73  C706280B0000             mov     word ptr [0B28], 0000
  1.6F79  9AB612AA6F               call    1:12B6
  1.6F7E  B90200                   mov     cx, 0002
  1.6F81  99                       cwd    
  1.6F82  F7F9                     idiv    cx
  1.6F84  8916620B                 mov     [0B62], dx
  1.6F88  833E620B00               cmp     word ptr [0B62], 0000
  1.6F8D  0F840E00                 je      6F9F
  1.6F91  A1CA05                   mov     ax, [05CA]
  1.6F94  8BC8                     mov     cx, ax
  1.6F96  D1E0                     shl     ax, 1
  1.6F98  03C1                     add     ax, cx
  1.6F9A  F7D8                     neg     ax
  1.6F9C  A3280B                   mov     [0B28], ax

  1.6F9F >FF363C0B                 push    word ptr [0B3C]
  1.6FA3  FF36D023                 push    word ptr [23D0]
  1.6FA7  9A012BBD6F               call    1:2B01
  1.6FAC  83C404                   add     sp, 0004

  1.6FAF >E92120                   jmp     8FD3
  1.6FB2  FF363C0B                 push    word ptr [0B3C]
  1.6FB6  FF36D023                 push    word ptr [23D0]
  1.6FBA  9A012B5470               call    1:2B01
  1.6FBF  83C404                   add     sp, 0004
  1.6FC2  833ECA0500               cmp     word ptr [05CA], 0000
  1.6FC7  0F8E0F00                 jle     6FDA
  1.6FCB  A1420B                   mov     ax, [0B42]
  1.6FCE  A35C0B                   mov     [0B5C], ax
  1.6FD1  A1400B                   mov     ax, [0B40]
  1.6FD4  A35E0B                   mov     [0B5E], ax
  1.6FD7  E90F00                   jmp     6FE9

  1.6FDA >A13E0B                   mov     ax, [0B3E]
  1.6FDD  2D2800                   sub     ax, 0028
  1.6FE0  A35C0B                   mov     [0B5C], ax
  1.6FE3  A1400B                   mov     ax, [0B40]
  1.6FE6  A35E0B                   mov     [0B5E], ax

  1.6FE9 >C706C00B5800             mov     word ptr [0BC0], 0058
  1.6FEF  A15A0B                   mov     ax, [0B5A]
  1.6FF2  FF065A0B                 inc     word ptr [0B5A]
  1.6FF6  3D0100                   cmp     ax, 0001
  1.6FF9  0F8D0300                 jnl     7000
  1.6FFD  E9D31F                   jmp     8FD3

  1.7000 >C7065A0B0000             mov     word ptr [0B5A], 0000
  1.7006  A1CA05                   mov     ax, [05CA]
  1.7009  C1E004                   shl     ax, 04
  1.700C  2906200B                 sub     [0B20], ax
  1.7010  833E240B04               cmp     word ptr [0B24], 0004
  1.7015  0F850600                 jne     701F
  1.7019  B80500                   mov     ax, 0005
  1.701C  E90300                   jmp     7022

  1.701F >B80400                   mov     ax, 0004

  1.7022 >A3240B                   mov     [0B24], ax
  1.7025  A1200B                   mov     ax, [0B20]
  1.7028  39065C0B                 cmp     [0B5C], ax
  1.702C  0F8C0900                 jl      7039
  1.7030  833ECA0500               cmp     word ptr [05CA], 0000
  1.7035  0F8F1400                 jg      704D

  1.7039 >A1200B                   mov     ax, [0B20]
  1.703C  39065C0B                 cmp     [0B5C], ax
  1.7040  0F8F9100                 jg      70D5
  1.7044  833ECA0500               cmp     word ptr [05CA], 0000
  1.7049  0F8D8800                 jnl     70D5

  1.704D >FF363C0B                 push    word ptr [0B3C]
  1.7051  9AF3487570               call    1:48F3
  1.7056  83C402                   add     sp, 0002
  1.7059  3D0000                   cmp     ax, 0000
  1.705C  0F850900                 jne     7069
  1.7060  C706C00B0100             mov     word ptr [0BC0], 0001
  1.7066  E96A1F                   jmp     8FD3

  1.7069 >8D46F0                   lea     ax, [bp-10]
  1.706C  16                       push    ss
  1.706D  50                       push    ax
  1.706E  FF363C0B                 push    word ptr [0B3C]
  1.7072  9A1D49E470               call    1:491D
  1.7077  83C406                   add     sp, 0006
  1.707A  A13E0B                   mov     ax, [0B3E]
  1.707D  3946F0                   cmp     [bp-10], ax
  1.7080  0F854800                 jne     70CC
  1.7084  A1420B                   mov     ax, [0B42]
  1.7087  3946F4                   cmp     [bp-0C], ax
  1.708A  0F853E00                 jne     70CC
  1.708E  A1220B                   mov     ax, [0B22]
  1.7091  3946F2                   cmp     [bp-0E], ax
  1.7094  0F8D3400                 jnl     70CC
  1.7098  A1220B                   mov     ax, [0B22]
  1.709B  052800                   add     ax, 0028
  1.709E  3B46F6                   cmp     ax, [bp-0A]
  1.70A1  0F8D2700                 jnl     70CC
  1.70A5  8B46F2                   mov     ax, [bp-0E]
  1.70A8  2D0C00                   sub     ax, 000C
  1.70AB  A35E0B                   mov     [0B5E], ax
  1.70AE  C7061C0B0100             mov     word ptr [0B1C], 0001
  1.70B4  A15C0B                   mov     ax, [0B5C]
  1.70B7  A3200B                   mov     [0B20], ax
  1.70BA  C706240B1E00             mov     word ptr [0B24], 001E
  1.70C0  C706C00B5900             mov     word ptr [0BC0], 0059
  1.70C6  E90A1F                   jmp     8FD3
  1.70C9  E90900                   jmp     70D5

  1.70CC >C706C00B0100             mov     word ptr [0BC0], 0001
  1.70D2  E9FE1E                   jmp     8FD3

  1.70D5 >FF36240B                 push    word ptr [0B24]
  1.70D9  FF36220B                 push    word ptr [0B22]
  1.70DD  FF36200B                 push    word ptr [0B20]
  1.70E1  9A07481271               call    1:4807
  1.70E6  83C406                   add     sp, 0006
  1.70E9  E9E71E                   jmp     8FD3
  1.70EC  A15A0B                   mov     ax, [0B5A]
  1.70EF  FF065A0B                 inc     word ptr [0B5A]
  1.70F3  3D0100                   cmp     ax, 0001
  1.70F6  0F8D0300                 jnl     70FD
  1.70FA  E9D61E                   jmp     8FD3

  1.70FD >C7065A0B0000             mov     word ptr [0B5A], 0000
  1.7103  FF36240B                 push    word ptr [0B24]
  1.7107  FF36220B                 push    word ptr [0B22]
  1.710B  FF36200B                 push    word ptr [0B20]
  1.710F  9A07484871               call    1:4807
  1.7114  83C406                   add     sp, 0006
  1.7117  832E220B06               sub     word ptr [0B22], 0006
  1.711C  833E240B0F               cmp     word ptr [0B24], 000F
  1.7121  0F850600                 jne     712B
  1.7125  B81000                   mov     ax, 0010
  1.7128  E90300                   jmp     712E

  1.712B >B80F00                   mov     ax, 000F

  1.712E >A3240B                   mov     [0B24], ax
  1.7131  A1220B                   mov     ax, [0B22]
  1.7134  39065E0B                 cmp     [0B5E], ax
  1.7138  0F8C0900                 jl      7145
  1.713C  C706C00B5A00             mov     word ptr [0BC0], 005A
  1.7142  E98E1E                   jmp     8FD3

  1.7145 >9A3B4B8C71               call    1:4B3B
  1.714A  E9861E                   jmp     8FD3
  1.714D  A15A0B                   mov     ax, [0B5A]
  1.7150  FF065A0B                 inc     word ptr [0B5A]
  1.7154  3D0200                   cmp     ax, 0002
  1.7157  0F8D0300                 jnl     715E
  1.715B  E9751E                   jmp     8FD3

  1.715E >C7065A0B0000             mov     word ptr [0B5A], 0000
  1.7164  A1CA05                   mov     ax, [05CA]
  1.7167  C1E003                   shl     ax, 03
  1.716A  2906200B                 sub     [0B20], ax
  1.716E  A15E0B                   mov     ax, [0B5E]
  1.7171  2D1400                   sub     ax, 0014
  1.7174  A3220B                   mov     [0B22], ax
  1.7177  C706240B4C00             mov     word ptr [0B24], 004C
  1.717D  FF36240B                 push    word ptr [0B24]
  1.7181  FF36220B                 push    word ptr [0B22]
  1.7185  FF36200B                 push    word ptr [0B20]
  1.7189  9A0748D471               call    1:4807
  1.718E  83C406                   add     sp, 0006
  1.7191  C706C00B5B00             mov     word ptr [0BC0], 005B
  1.7197  E9391E                   jmp     8FD3
  1.719A  A15A0B                   mov     ax, [0B5A]
  1.719D  FF065A0B                 inc     word ptr [0B5A]
  1.71A1  3D0200                   cmp     ax, 0002
  1.71A4  0F8D0300                 jnl     71AB
  1.71A8  E9281E                   jmp     8FD3

  1.71AB >C7065A0B0000             mov     word ptr [0B5A], 0000
  1.71B1  6B06CA05E8               imul    ax, [05CA], FFE8
  1.71B6  0106200B                 add     [0B20], ax
  1.71BA  832E220B08               sub     word ptr [0B22], 0008
  1.71BF  C706240B0300             mov     word ptr [0B24], 0003
  1.71C5  FF36240B                 push    word ptr [0B24]
  1.71C9  FF36220B                 push    word ptr [0B22]
  1.71CD  FF36200B                 push    word ptr [0B20]
  1.71D1  9A0748ED6A               call    1:4807
  1.71D6  83C406                   add     sp, 0006
  1.71D9  C706C00B0B00             mov     word ptr [0BC0], 000B
  1.71DF  E9F11D                   jmp     8FD3
  1.71E2  8306260B04               add     word ptr [0B26], 0004
  1.71E7  A1220B                   mov     ax, [0B22]
  1.71EA  A32C0B                   mov     [0B2C], ax
  1.71ED  A1280B                   mov     ax, [0B28]
  1.71F0  0106200B                 add     [0B20], ax
  1.71F4  A1260B                   mov     ax, [0B26]
  1.71F7  0106220B                 add     [0B22], ax
  1.71FB  8B1E240B                 mov     bx, [0B24]
  1.71FF  8BC3                     mov     ax, bx
  1.7201  D1E3                     shl     bx, 1
  1.7203  03D8                     add     bx, ax
  1.7205  C1E302                   shl     bx, 02
  1.7208  8B87CA0B                 mov     ax, [bx+0BCA]
  1.720C  0306200B                 add     ax, [0B20]
  1.7210  50                       push    ax
  1.7211  FF36200B                 push    word ptr [0B20]
  1.7215  8B1E240B                 mov     bx, [0B24]
  1.7219  8BC3                     mov     ax, bx
  1.721B  D1E3                     shl     bx, 1
  1.721D  03D8                     add     bx, ax
  1.721F  C1E302                   shl     bx, 02
  1.7222  8B87CC0B                 mov     ax, [bx+0BCC]
  1.7226  03062C0B                 add     ax, [0B2C]
  1.722A  50                       push    ax
  1.722B  8B1E240B                 mov     bx, [0B24]
  1.722F  8BC3                     mov     ax, bx
  1.7231  D1E3                     shl     bx, 1
  1.7233  03D8                     add     bx, ax
  1.7235  C1E302                   shl     bx, 02
  1.7238  8B87CC0B                 mov     ax, [bx+0BCC]
  1.723C  0306220B                 add     ax, [0B22]
  1.7240  50                       push    ax
  1.7241  FF363C0B                 push    word ptr [0B3C]
  1.7245  9A9E416E72               call    1:419E
  1.724A  83C40A                   add     sp, 000A
  1.724D  8946FC                   mov     [bp-04], ax
  1.7250  3D0000                   cmp     ax, 0000
  1.7253  0F84E600                 je      733D
  1.7257  837EFCFF                 cmp     word ptr [bp-04], FFFF
  1.725B  0F851D00                 jne     727C
  1.725F  FF36240B                 push    word ptr [0B24]
  1.7263  FF36220B                 push    word ptr [0B22]
  1.7267  FF36200B                 push    word ptr [0B20]
  1.726B  9A0748F272               call    1:4807
  1.7270  83C406                   add     sp, 0006
  1.7273  C706C00B0000             mov     word ptr [0BC0], 0000
  1.7279  E9571D                   jmp     8FD3

  1.727C >8B46FC                   mov     ax, [bp-04]
  1.727F  8B1E240B                 mov     bx, [0B24]
  1.7283  8BCB                     mov     cx, bx
  1.7285  D1E3                     shl     bx, 1
  1.7287  03D9                     add     bx, cx
  1.7289  C1E302                   shl     bx, 02
  1.728C  2B87CC0B                 sub     ax, [bx+0BCC]
  1.7290  A3220B                   mov     [0B22], ax
  1.7293  833E260B40               cmp     word ptr [0B26], 0040
  1.7298  0F8D0900                 jnl     72A5
  1.729C  833E600B00               cmp     word ptr [0B60], 0000
  1.72A1  0F840900                 je      72AE

  1.72A5 >833E260B08               cmp     word ptr [0B26], 0008
  1.72AA  0F8D7B00                 jnl     7329

  1.72AE >FF36D023                 push    word ptr [23D0]
  1.72B2  FF363C0B                 push    word ptr [0B3C]
  1.72B6  6A00                     push    0000
  1.72B8  6A00                     push    0000
  1.72BA  6A00                     push    0000
  1.72BC  6A00                     push    0000
  1.72BE  6A13                     push    0013
  1.72C0  9A282B0000               call    USER.SETWINDOWPOS
  1.72C5  C706600B0000             mov     word ptr [0B60], 0000
  1.72CB  C706460B0000             mov     word ptr [0B46], 0000
  1.72D1  C706C00B5D00             mov     word ptr [0BC0], 005D
  1.72D7  833E260B24               cmp     word ptr [0B26], 0024
  1.72DC  0F8D0F00                 jnl     72EF
  1.72E0  C706240B3100             mov     word ptr [0B24], 0031
  1.72E6  C7065A0BFCFF             mov     word ptr [0B5A], FFFC
  1.72EC  E92000                   jmp     730F

  1.72EF >9AB6121E73               call    1:12B6
  1.72F4  A803                     test    al, 03
  1.72F6  0F850900                 jne     7303
  1.72FA  C706240B3000             mov     word ptr [0B24], 0030
  1.7300  E90600                   jmp     7309

  1.7303 >C706240B2A00             mov     word ptr [0B24], 002A

  1.7309 >C7065A0BF4FF             mov     word ptr [0B5A], FFF4

  1.730F >FF36240B                 push    word ptr [0B24]
  1.7313  FF36220B                 push    word ptr [0B22]
  1.7317  FF36200B                 push    word ptr [0B20]
  1.731B  9A07487373               call    1:4807
  1.7320  83C406                   add     sp, 0006
  1.7323  E9AD1C                   jmp     8FD3
  1.7326  E91400                   jmp     733D

  1.7329 >A1260B                   mov     ax, [0B26]
  1.732C  D1E0                     shl     ax, 1
  1.732E  B9FDFF                   mov     cx, FFFD
  1.7331  99                       cwd    
  1.7332  F7F9                     idiv    cx
  1.7334  A3260B                   mov     [0B26], ax
  1.7337  C706600B0100             mov     word ptr [0B60], 0001

  1.733D >833E620B00               cmp     word ptr [0B62], 0000
  1.7342  0F841800                 je      735E
  1.7346  833E240B04               cmp     word ptr [0B24], 0004
  1.734B  0F850600                 jne     7355
  1.734F  B80500                   mov     ax, 0005
  1.7352  E90300                   jmp     7358

  1.7355 >B80400                   mov     ax, 0004

  1.7358 >A3240B                   mov     [0B24], ax
  1.735B  E90600                   jmp     7364

  1.735E >C706240B2A00             mov     word ptr [0B24], 002A

  1.7364 >FF36240B                 push    word ptr [0B24]
  1.7368  FF36220B                 push    word ptr [0B22]
  1.736C  FF36200B                 push    word ptr [0B20]
  1.7370  9A0748FE73               call    1:4807
  1.7375  83C406                   add     sp, 0006
  1.7378  E9581C                   jmp     8FD3
  1.737B  A15A0B                   mov     ax, [0B5A]
  1.737E  FF065A0B                 inc     word ptr [0B5A]
  1.7382  3D0100                   cmp     ax, 0001
  1.7385  0F8D0300                 jnl     738C
  1.7389  E9471C                   jmp     8FD3

  1.738C >C7065A0B0000             mov     word ptr [0B5A], 0000
  1.7392  833E620B00               cmp     word ptr [0B62], 0000
  1.7397  0F840F00                 je      73AA
  1.739B  C706C00B0B00             mov     word ptr [0BC0], 000B
  1.73A1  C706240B0200             mov     word ptr [0B24], 0002
  1.73A7  E9291C                   jmp     8FD3

  1.73AA >833E460B00               cmp     word ptr [0B46], 0000
  1.73AF  0F850900                 jne     73BC
  1.73B3  C706240B0D00             mov     word ptr [0B24], 000D
  1.73B9  E93300                   jmp     73EF

  1.73BC >833E460B01               cmp     word ptr [0B46], 0001
  1.73C1  0F851B00                 jne     73E0
  1.73C5  833ECA0500               cmp     word ptr [05CA], 0000
  1.73CA  0F8E0900                 jle     73D7
  1.73CE  C706240B0C00             mov     word ptr [0B24], 000C
  1.73D4  E90600                   jmp     73DD

  1.73D7 >C706240B0E00             mov     word ptr [0B24], 000E

  1.73DD >E90F00                   jmp     73EF

  1.73E0 >833E460B02               cmp     word ptr [0B46], 0002
  1.73E5  0F850600                 jne     73EF
  1.73E9  C706240B0300             mov     word ptr [0B24], 0003

  1.73EF >FF36240B                 push    word ptr [0B24]
  1.73F3  FF36220B                 push    word ptr [0B22]
  1.73F7  FF36200B                 push    word ptr [0B20]
  1.73FB  9A0748CF74               call    1:4807
  1.7400  83C406                   add     sp, 0006
  1.7403  A1460B                   mov     ax, [0B46]
  1.7406  FF06460B                 inc     word ptr [0B46]
  1.740A  3D0200                   cmp     ax, 0002
  1.740D  0F8C0600                 jl      7417
  1.7411  C706C00B0B00             mov     word ptr [0BC0], 000B

  1.7417 >E9B91B                   jmp     8FD3
  1.741A  C7061C0B0100             mov     word ptr [0B1C], 0001
  1.7420  C706260B0000             mov     word ptr [0B26], 0000
  1.7426  A1CA05                   mov     ax, [05CA]
  1.7429  C1E003                   shl     ax, 03
  1.742C  F7D8                     neg     ax
  1.742E  A3280B                   mov     [0B28], ax
  1.7431  C706620B0100             mov     word ptr [0B62], 0001
  1.7437  C706C00B6300             mov     word ptr [0BC0], 0063
  1.743D  E9F3D8                   jmp     4D33
  1.7440  C7061C0B0100             mov     word ptr [0B1C], 0001
  1.7446  C706260B0000             mov     word ptr [0B26], 0000
  1.744C  A1CA05                   mov     ax, [05CA]
  1.744F  8BC8                     mov     cx, ax
  1.7451  D1E0                     shl     ax, 1
  1.7453  03C1                     add     ax, cx
  1.7455  F7D8                     neg     ax
  1.7457  A3280B                   mov     [0B28], ax
  1.745A  C706620B0100             mov     word ptr [0B62], 0001
  1.7460  C706C00B6300             mov     word ptr [0BC0], 0063
  1.7466  E9CAD8                   jmp     4D33
  1.7469  C7061C0B0100             mov     word ptr [0B1C], 0001
  1.746F  C706260B0000             mov     word ptr [0B26], 0000
  1.7475  C706280B0000             mov     word ptr [0B28], 0000
  1.747B  C706620B0000             mov     word ptr [0B62], 0000
  1.7481  C706C00B6300             mov     word ptr [0BC0], 0063
  1.7487  E9A9D8                   jmp     4D33
  1.748A  C7061C0B0100             mov     word ptr [0B1C], 0001
  1.7490  C706260B0000             mov     word ptr [0B26], 0000
  1.7496  C706280B0000             mov     word ptr [0B28], 0000
  1.749C  C706620B0100             mov     word ptr [0B62], 0001
  1.74A2  C706C00B6300             mov     word ptr [0BC0], 0063
  1.74A8  E988D8                   jmp     4D33
  1.74AB  C7061C0B0100             mov     word ptr [0B1C], 0001
  1.74B1  C706260B0000             mov     word ptr [0B26], 0000
  1.74B7  C706280B0000             mov     word ptr [0B28], 0000
  1.74BD  C706620B0200             mov     word ptr [0B62], 0002
  1.74C3  C706C00B6300             mov     word ptr [0BC0], 0063
  1.74C9  E967D8                   jmp     4D33
  1.74CC  9AF03D0475               call    1:3DF0
  1.74D1  8306260B04               add     word ptr [0B26], 0004
  1.74D6  A1220B                   mov     ax, [0B22]
  1.74D9  A32C0B                   mov     [0B2C], ax
  1.74DC  A1280B                   mov     ax, [0B28]
  1.74DF  0106200B                 add     [0B20], ax
  1.74E3  A1260B                   mov     ax, [0B26]
  1.74E6  0106220B                 add     [0B22], ax
  1.74EA  A1722D                   mov     ax, [2D72]
  1.74ED  39062C0B                 cmp     [0B2C], ax
  1.74F1  0F8E1D00                 jle     7512
  1.74F5  FF36240B                 push    word ptr [0B24]
  1.74F9  FF36220B                 push    word ptr [0B22]
  1.74FD  FF36200B                 push    word ptr [0B20]
  1.7501  9A07485E75               call    1:4807
  1.7506  83C406                   add     sp, 0006
  1.7509  C706C00B0000             mov     word ptr [0BC0], 0000
  1.750F  E9C11A                   jmp     8FD3

  1.7512 >8B1E240B                 mov     bx, [0B24]
  1.7516  8BC3                     mov     ax, bx
  1.7518  D1E3                     shl     bx, 1
  1.751A  03D8                     add     bx, ax
  1.751C  C1E302                   shl     bx, 02
  1.751F  8B87CA0B                 mov     ax, [bx+0BCA]
  1.7523  0306200B                 add     ax, [0B20]
  1.7527  50                       push    ax
  1.7528  FF36200B                 push    word ptr [0B20]
  1.752C  8B1E240B                 mov     bx, [0B24]
  1.7530  8BC3                     mov     ax, bx
  1.7532  D1E3                     shl     bx, 1
  1.7534  03D8                     add     bx, ax
  1.7536  C1E302                   shl     bx, 02
  1.7539  8B87CC0B                 mov     ax, [bx+0BCC]
  1.753D  03062C0B                 add     ax, [0B2C]
  1.7541  50                       push    ax
  1.7542  8B1E240B                 mov     bx, [0B24]
  1.7546  8BC3                     mov     ax, bx
  1.7548  D1E3                     shl     bx, 1
  1.754A  03D8                     add     bx, ax
  1.754C  C1E302                   shl     bx, 02
  1.754F  8B87CC0B                 mov     ax, [bx+0BCC]
  1.7553  0306220B                 add     ax, [0B22]
  1.7557  50                       push    ax
  1.7558  683C0B                   push    0B3C
  1.755B  9A8C407475               call    1:408C
  1.7560  83C40A                   add     sp, 000A
  1.7563  8946FC                   mov     [bp-04], ax
  1.7566  3D0000                   cmp     ax, 0000
  1.7569  0F84AF01                 je      771C
  1.756D  FF363C0B                 push    word ptr [0B3C]
  1.7571  9AF3488F75               call    1:48F3
  1.7576  83C402                   add     sp, 0002
  1.7579  3D0000                   cmp     ax, 0000
  1.757C  0F851D00                 jne     759D
  1.7580  FF36240B                 push    word ptr [0B24]
  1.7584  FF36220B                 push    word ptr [0B22]
  1.7588  FF36200B                 push    word ptr [0B20]
  1.758C  9A0748A875               call    1:4807
  1.7591  83C406                   add     sp, 0006
  1.7594  C706C00B0000             mov     word ptr [0BC0], 0000
  1.759A  E9361A                   jmp     8FD3

  1.759D >1E                       push    ds
  1.759E  683E0B                   push    0B3E
  1.75A1  FF363C0B                 push    word ptr [0B3C]
  1.75A5  9A1D49AC6E               call    1:491D
  1.75AA  83C406                   add     sp, 0006
  1.75AD  8B46FC                   mov     ax, [bp-04]
  1.75B0  8B1E240B                 mov     bx, [0B24]
  1.75B4  8BCB                     mov     cx, bx
  1.75B6  D1E3                     shl     bx, 1
  1.75B8  03D9                     add     bx, cx
  1.75BA  C1E302                   shl     bx, 02
  1.75BD  2B87CC0B                 sub     ax, [bx+0BCC]
  1.75C1  A3220B                   mov     [0B22], ax
  1.75C4  833E620B03               cmp     word ptr [0B62], 0003
  1.75C9  0F852300                 jne     75F0
  1.75CD  C706240B4200             mov     word ptr [0B24], 0042
  1.75D3  FF36240B                 push    word ptr [0B24]
  1.75D7  FF36220B                 push    word ptr [0B22]
  1.75DB  FF36200B                 push    word ptr [0B20]
  1.75DF  9A07485876               call    1:4807
  1.75E4  83C406                   add     sp, 0006
  1.75E7  C706C00B1D00             mov     word ptr [0BC0], 001D
  1.75ED  E9E319                   jmp     8FD3

  1.75F0 >833E260B40               cmp     word ptr [0B26], 0040
  1.75F5  0F8D0900                 jnl     7602
  1.75F9  833E600B00               cmp     word ptr [0B60], 0000
  1.75FE  0F840900                 je      760B

  1.7602 >833E260B08               cmp     word ptr [0B26], 0008
  1.7607  0F8DA500                 jnl     76B0

  1.760B >833E3C0B00               cmp     word ptr [0B3C], 0000
  1.7610  0F841700                 je      762B
  1.7614  FF36D023                 push    word ptr [23D0]
  1.7618  FF363C0B                 push    word ptr [0B3C]
  1.761C  6A00                     push    0000
  1.761E  6A00                     push    0000
  1.7620  6A00                     push    0000
  1.7622  6A00                     push    0000
  1.7624  6A13                     push    0013
  1.7626  9AC1720000               call    USER.SETWINDOWPOS

  1.762B >C706600B0000             mov     word ptr [0B60], 0000
  1.7631  C706460B0000             mov     word ptr [0B46], 0000
  1.7637  C706C00B6400             mov     word ptr [0BC0], 0064
  1.763D  833E260B24               cmp     word ptr [0B26], 0024
  1.7642  0F8D0F00                 jnl     7655
  1.7646  C706240B3100             mov     word ptr [0B24], 0031
  1.764C  C7065A0BFCFF             mov     word ptr [0B5A], FFFC
  1.7652  E92000                   jmp     7675

  1.7655 >9AB612A576               call    1:12B6
  1.765A  A803                     test    al, 03
  1.765C  0F850900                 jne     7669
  1.7660  C706240B3000             mov     word ptr [0B24], 0030
  1.7666  E90600                   jmp     766F

  1.7669 >C706240B2A00             mov     word ptr [0B24], 002A

  1.766F >C7065A0BF6FF             mov     word ptr [0B5A], FFF6

  1.7675 >833E620B02               cmp     word ptr [0B62], 0002
  1.767A  0F851800                 jne     7696
  1.767E  833E260B24               cmp     word ptr [0B26], 0024
  1.7683  0F8D0900                 jnl     7690
  1.7687  C706240B2900             mov     word ptr [0B24], 0029
  1.768D  E90600                   jmp     7696

  1.7690 >C706240B2D00             mov     word ptr [0B24], 002D

  1.7696 >FF36240B                 push    word ptr [0B24]
  1.769A  FF36220B                 push    word ptr [0B22]
  1.769E  FF36200B                 push    word ptr [0B20]
  1.76A2  9A0748B376               call    1:4807
  1.76A7  83C406                   add     sp, 0006
  1.76AA  E92619                   jmp     8FD3
  1.76AD  E96C00                   jmp     771C

  1.76B0 >9AB6120077               call    1:12B6
  1.76B5  A807                     test    al, 07
  1.76B7  0F854D00                 jne     7708
  1.76BB  833E600B00               cmp     word ptr [0B60], 0000
  1.76C0  0F854400                 jne     7708
  1.76C4  C706600B0000             mov     word ptr [0B60], 0000
  1.76CA  C706460B0000             mov     word ptr [0B46], 0000
  1.76D0  C706C00B6400             mov     word ptr [0BC0], 0064
  1.76D6  C706240B3000             mov     word ptr [0B24], 0030
  1.76DC  C7065A0BF4FF             mov     word ptr [0B5A], FFF4
  1.76E2  833E620B02               cmp     word ptr [0B62], 0002
  1.76E7  0F850600                 jne     76F1
  1.76EB  C706240B2D00             mov     word ptr [0B24], 002D

  1.76F1 >FF36240B                 push    word ptr [0B24]
  1.76F5  FF36220B                 push    word ptr [0B22]
  1.76F9  FF36200B                 push    word ptr [0B20]
  1.76FD  9A0748A677               call    1:4807
  1.7702  83C406                   add     sp, 0006
  1.7705  E9CB18                   jmp     8FD3

  1.7708 >A1260B                   mov     ax, [0B26]
  1.770B  D1E0                     shl     ax, 1
  1.770D  B9FDFF                   mov     cx, FFFD
  1.7710  99                       cwd    
  1.7711  F7F9                     idiv    cx
  1.7713  A3260B                   mov     [0B26], ax
  1.7716  C706600B0100             mov     word ptr [0B60], 0001

  1.771C >833E620B02               cmp     word ptr [0B62], 0002
  1.7721  0F851800                 jne     773D
  1.7725  833E240B28               cmp     word ptr [0B24], 0028
  1.772A  0F850600                 jne     7734
  1.772E  B82900                   mov     ax, 0029
  1.7731  E90300                   jmp     7737

  1.7734 >B82800                   mov     ax, 0028

  1.7737 >A3240B                   mov     [0B24], ax
  1.773A  E95100                   jmp     778E

  1.773D >833E620B01               cmp     word ptr [0B62], 0001
  1.7742  0F851800                 jne     775E
  1.7746  833E240B04               cmp     word ptr [0B24], 0004
  1.774B  0F850600                 jne     7755
  1.774F  B80500                   mov     ax, 0005
  1.7752  E90300                   jmp     7758

  1.7755 >B80400                   mov     ax, 0004

  1.7758 >A3240B                   mov     [0B24], ax
  1.775B  E93000                   jmp     778E

  1.775E >833E620B00               cmp     word ptr [0B62], 0000
  1.7763  0F850900                 jne     7770
  1.7767  C706240B2A00             mov     word ptr [0B24], 002A
  1.776D  E91E00                   jmp     778E

  1.7770 >8B1E680B                 mov     bx, [0B68]
  1.7774  D1E3                     shl     bx, 1
  1.7776  8B874406                 mov     ax, [bx+0644]
  1.777A  A3240B                   mov     [0B24], ax
  1.777D  FF06680B                 inc     word ptr [0B68]
  1.7781  833E240B42               cmp     word ptr [0B24], 0042
  1.7786  0F850400                 jne     778E
  1.778A  FF0E680B                 dec     word ptr [0B68]

  1.778E >833E620B03               cmp     word ptr [0B62], 0003
  1.7793  0F852800                 jne     77BF
  1.7797  A1200B                   mov     ax, [0B20]
  1.779A  2B06280B                 sub     ax, [0B28]
  1.779E  50                       push    ax
  1.779F  FF36200B                 push    word ptr [0B20]
  1.77A3  9A914CCE77               call    1:4C91
  1.77A8  83C404                   add     sp, 0004
  1.77AB  3D0000                   cmp     ax, 0000
  1.77AE  0F840D00                 je      77BF
  1.77B2  F71ECA05                 neg     word ptr [05CA]
  1.77B6  C706C00B1E00             mov     word ptr [0BC0], 001E
  1.77BC  E91418                   jmp     8FD3

  1.77BF >FF36240B                 push    word ptr [0B24]
  1.77C3  FF36220B                 push    word ptr [0B22]
  1.77C7  FF36200B                 push    word ptr [0B20]
  1.77CB  9A07487178               call    1:4807
  1.77D0  83C406                   add     sp, 0006
  1.77D3  E9FD17                   jmp     8FD3
  1.77D6  A15A0B                   mov     ax, [0B5A]
  1.77D9  FF065A0B                 inc     word ptr [0B5A]
  1.77DD  3D0100                   cmp     ax, 0001
  1.77E0  0F8D0300                 jnl     77E7
  1.77E4  E9EC17                   jmp     8FD3

  1.77E7 >C7065A0B0000             mov     word ptr [0B5A], 0000
  1.77ED  833E620B01               cmp     word ptr [0B62], 0001
  1.77F2  0F850F00                 jne     7805
  1.77F6  C706C00B0B00             mov     word ptr [0BC0], 000B
  1.77FC  C706240B0200             mov     word ptr [0B24], 0002
  1.7802  E9CE17                   jmp     8FD3

  1.7805 >833E620B02               cmp     word ptr [0B62], 0002
  1.780A  0F850F00                 jne     781D
  1.780E  C706460B0000             mov     word ptr [0B46], 0000
  1.7814  C706C00B6500             mov     word ptr [0BC0], 0065
  1.781A  E9B617                   jmp     8FD3

  1.781D >833E460B00               cmp     word ptr [0B46], 0000
  1.7822  0F850900                 jne     782F
  1.7826  C706240B0D00             mov     word ptr [0B24], 000D
  1.782C  E93300                   jmp     7862

  1.782F >833E460B01               cmp     word ptr [0B46], 0001
  1.7834  0F851B00                 jne     7853
  1.7838  833ECA0500               cmp     word ptr [05CA], 0000
  1.783D  0F8E0900                 jle     784A
  1.7841  C706240B0C00             mov     word ptr [0B24], 000C
  1.7847  E90600                   jmp     7850

  1.784A >C706240B0E00             mov     word ptr [0B24], 000E

  1.7850 >E90F00                   jmp     7862

  1.7853 >833E460B02               cmp     word ptr [0B46], 0002
  1.7858  0F850600                 jne     7862
  1.785C  C706240B0300             mov     word ptr [0B24], 0003

  1.7862 >FF36240B                 push    word ptr [0B24]
  1.7866  FF36220B                 push    word ptr [0B22]
  1.786A  FF36200B                 push    word ptr [0B20]
  1.786E  9A0748DA78               call    1:4807
  1.7873  83C406                   add     sp, 0006
  1.7876  A1460B                   mov     ax, [0B46]
  1.7879  FF06460B                 inc     word ptr [0B46]
  1.787D  3D0200                   cmp     ax, 0002
  1.7880  0F8C0600                 jl      788A
  1.7884  C706C00B0B00             mov     word ptr [0BC0], 000B

  1.788A >E94617                   jmp     8FD3
  1.788D  A15A0B                   mov     ax, [0B5A]
  1.7890  FF065A0B                 inc     word ptr [0B5A]
  1.7894  3D0100                   cmp     ax, 0001
  1.7897  0F8D0300                 jnl     789E
  1.789B  E93517                   jmp     8FD3

  1.789E >C7065A0B0000             mov     word ptr [0B5A], 0000
  1.78A4  833E460B00               cmp     word ptr [0B46], 0000
  1.78A9  0F850F00                 jne     78BC
  1.78AD  C706240B1F00             mov     word ptr [0B24], 001F
  1.78B3  C7065A0BF8FF             mov     word ptr [0B5A], FFF8
  1.78B9  E90F00                   jmp     78CB

  1.78BC >833E460B02               cmp     word ptr [0B46], 0002
  1.78C1  0F850600                 jne     78CB
  1.78C5  C706240B0300             mov     word ptr [0B24], 0003

  1.78CB >FF36240B                 push    word ptr [0B24]
  1.78CF  FF36220B                 push    word ptr [0B22]
  1.78D3  FF36200B                 push    word ptr [0B20]
  1.78D7  9A0748F978               call    1:4807
  1.78DC  83C406                   add     sp, 0006
  1.78DF  A1460B                   mov     ax, [0B46]
  1.78E2  FF06460B                 inc     word ptr [0B46]
  1.78E6  3D0600                   cmp     ax, 0006
  1.78E9  0F8C0600                 jl      78F3
  1.78ED  C706C00B0B00             mov     word ptr [0BC0], 000B

  1.78F3 >E9DD16                   jmp     8FD3
  1.78F6  9A8E421079               call    1:428E
  1.78FB  C706460B0600             mov     word ptr [0B46], 0006
  1.7901  C706240B0300             mov     word ptr [0B24], 0003
  1.7907  C7064A0B0000             mov     word ptr [0B4A], 0000
  1.790D  9AB6124872               call    1:12B6
  1.7912  B90300                   mov     cx, 0003
  1.7915  99                       cwd    
  1.7916  F7F9                     idiv    cx
  1.7918  83FA00                   cmp     dx, 0000
  1.791B  0F850600                 jne     7925
  1.791F  C7064A0B0100             mov     word ptr [0B4A], 0001

  1.7925 >C706C00B6700             mov     word ptr [0BC0], 0067
  1.792B  833E4A0B00               cmp     word ptr [0B4A], 0000
  1.7930  0F841800                 je      794C
  1.7934  833E240B32               cmp     word ptr [0B24], 0032
  1.7939  0F850600                 jne     7943
  1.793D  B83300                   mov     ax, 0033
  1.7940  E90300                   jmp     7946

  1.7943 >B83200                   mov     ax, 0032

  1.7946 >A3240B                   mov     [0B24], ax
  1.7949  E91500                   jmp     7961

  1.794C >833E240B04               cmp     word ptr [0B24], 0004
  1.7951  0F850600                 jne     795B
  1.7955  B80500                   mov     ax, 0005
  1.7958  E90300                   jmp     795E

  1.795B >B80400                   mov     ax, 0004

  1.795E >A3240B                   mov     [0B24], ax

  1.7961 >FF36240B                 push    word ptr [0B24]
  1.7965  FF36220B                 push    word ptr [0B22]
  1.7969  FF36200B                 push    word ptr [0B20]
  1.796D  9A0748027A               call    1:4807
  1.7972  83C406                   add     sp, 0006
  1.7975  A1460B                   mov     ax, [0B46]
  1.7978  FF0E460B                 dec     word ptr [0B46]
  1.797C  3D0000                   cmp     ax, 0000
  1.797F  0F8F0600                 jg      7989
  1.7983  C706C00B6100             mov     word ptr [0BC0], 0061

  1.7989 >E94716                   jmp     8FD3
  1.798C  C706620B0000             mov     word ptr [0B62], 0000
  1.7992  C706C00B6A00             mov     word ptr [0BC0], 006A
  1.7998  E998D3                   jmp     4D33
  1.799B  C706620B0100             mov     word ptr [0B62], 0001
  1.79A1  C706C00B6A00             mov     word ptr [0BC0], 006A
  1.79A7  E989D3                   jmp     4D33
  1.79AA  833E620B00               cmp     word ptr [0B62], 0000
  1.79AF  0F858B00                 jne     7A3E
  1.79B3  A1200B                   mov     ax, [0B20]
  1.79B6  8946EC                   mov     [bp-14], ax
  1.79B9  A1220B                   mov     ax, [0B22]
  1.79BC  052700                   add     ax, 0027
  1.79BF  8946EE                   mov     [bp-12], ax
  1.79C2  FF76EE                   push    word ptr [bp-12]
  1.79C5  FF76EC                   push    word ptr [bp-14]
  1.79C8  9AE0790000               call    USER.WINDOWFROMPOINT
  1.79CD  8946F0                   mov     [bp-10], ax
  1.79D0  A1200B                   mov     ax, [0B20]
  1.79D3  052700                   add     ax, 0027
  1.79D6  8946EC                   mov     [bp-14], ax
  1.79D9  FF76EE                   push    word ptr [bp-12]
  1.79DC  FF76EC                   push    word ptr [bp-14]
  1.79DF  9AFFFF0000               call    USER.WINDOWFROMPOINT
  1.79E4  8946F8                   mov     [bp-08], ax
  1.79E7  A1D023                   mov     ax, [23D0]
  1.79EA  3946F0                   cmp     [bp-10], ax
  1.79ED  0F851900                 jne     7A0A
  1.79F1  A1D023                   mov     ax, [23D0]
  1.79F4  3946F8                   cmp     [bp-08], ax
  1.79F7  0F850F00                 jne     7A0A
  1.79FB  FF36D023                 push    word ptr [23D0]
  1.79FF  9ABF2A1E7A               call    1:2ABF
  1.7A04  83C402                   add     sp, 0002
  1.7A07  E92B00                   jmp     7A35

  1.7A0A >A1D023                   mov     ax, [23D0]
  1.7A0D  3946F0                   cmp     [bp-10], ax
  1.7A10  0F851200                 jne     7A26
  1.7A14  FF76F8                   push    word ptr [bp-08]
  1.7A17  FF36D023                 push    word ptr [23D0]
  1.7A1B  9A012B307A               call    1:2B01
  1.7A20  83C404                   add     sp, 0004
  1.7A23  E90F00                   jmp     7A35

  1.7A26 >FF76F0                   push    word ptr [bp-10]
  1.7A29  FF36D023                 push    word ptr [23D0]
  1.7A2D  9A012B537A               call    1:2B01
  1.7A32  83C404                   add     sp, 0004

  1.7A35 >C706240B5100             mov     word ptr [0B24], 0051
  1.7A3B  E90600                   jmp     7A44

  1.7A3E >C706240B4E00             mov     word ptr [0B24], 004E

  1.7A44 >FF36240B                 push    word ptr [0B24]
  1.7A48  FF36220B                 push    word ptr [0B22]
  1.7A4C  FF36200B                 push    word ptr [0B20]
  1.7A50  9A07488B7A               call    1:4807
  1.7A55  83C406                   add     sp, 0006
  1.7A58  C706C00B6B00             mov     word ptr [0BC0], 006B
  1.7A5E  C706460B0000             mov     word ptr [0B46], 0000
  1.7A64  E96C15                   jmp     8FD3
  1.7A67  8B1E460B                 mov     bx, [0B46]
  1.7A6B  A1620B                   mov     ax, [0B62]
  1.7A6E  C1E003                   shl     ax, 03
  1.7A71  2BD8                     sub     bx, ax
  1.7A73  D1E3                     shl     bx, 1
  1.7A75  8B871406                 mov     ax, [bx+0614]
  1.7A79  A3240B                   mov     [0B24], ax
  1.7A7C  FF36240B                 push    word ptr [0B24]
  1.7A80  FF36220B                 push    word ptr [0B22]
  1.7A84  FF36200B                 push    word ptr [0B20]
  1.7A88  9A0748A97A               call    1:4807
  1.7A8D  83C406                   add     sp, 0006
  1.7A90  FF06460B                 inc     word ptr [0B46]
  1.7A94  833E460B07               cmp     word ptr [0B46], 0007
  1.7A99  0F8E4000                 jle     7ADD
  1.7A9D  833E620B00               cmp     word ptr [0B62], 0000
  1.7AA2  0F841D00                 je      7AC3
  1.7AA6  9AB612C67A               call    1:12B6
  1.7AAB  A801                     test    al, 01
  1.7AAD  0F850900                 jne     7ABA
  1.7AB1  C706C00B6F00             mov     word ptr [0BC0], 006F
  1.7AB7  E90600                   jmp     7AC0

  1.7ABA >C706C00B6D00             mov     word ptr [0BC0], 006D

  1.7AC0 >E91A00                   jmp     7ADD

  1.7AC3 >9AB6120C7B               call    1:12B6
  1.7AC8  A801                     test    al, 01
  1.7ACA  0F850900                 jne     7AD7
  1.7ACE  C706C00B6F00             mov     word ptr [0BC0], 006F
  1.7AD4  E90600                   jmp     7ADD

  1.7AD7 >C706C00B6C00             mov     word ptr [0BC0], 006C

  1.7ADD >E9F314                   jmp     8FD3
  1.7AE0  A15A0B                   mov     ax, [0B5A]
  1.7AE3  FF065A0B                 inc     word ptr [0B5A]
  1.7AE7  3D0A00                   cmp     ax, 000A
  1.7AEA  0F8D0300                 jnl     7AF1
  1.7AEE  E9E214                   jmp     8FD3

  1.7AF1 >C7065A0B0000             mov     word ptr [0B5A], 0000
  1.7AF7  C706240B0300             mov     word ptr [0B24], 0003
  1.7AFD  FF36240B                 push    word ptr [0B24]
  1.7B01  FF36220B                 push    word ptr [0B22]
  1.7B05  FF36200B                 push    word ptr [0B20]
  1.7B09  9A07484A7B               call    1:4807
  1.7B0E  83C406                   add     sp, 0006
  1.7B11  C706C00B0100             mov     word ptr [0BC0], 0001
  1.7B17  E9B914                   jmp     8FD3
  1.7B1A  A1CA05                   mov     ax, [05CA]
  1.7B1D  8BC8                     mov     cx, ax
  1.7B1F  D1E0                     shl     ax, 1
  1.7B21  03C1                     add     ax, cx
  1.7B23  D1E0                     shl     ax, 1
  1.7B25  03C1                     add     ax, cx
  1.7B27  D1E0                     shl     ax, 1
  1.7B29  F7D8                     neg     ax
  1.7B2B  A3280B                   mov     [0B28], ax
  1.7B2E  C706240B1700             mov     word ptr [0B24], 0017
  1.7B34  A1280B                   mov     ax, [0B28]
  1.7B37  0106200B                 add     [0B20], ax
  1.7B3B  FF36240B                 push    word ptr [0B24]
  1.7B3F  FF36220B                 push    word ptr [0B22]
  1.7B43  FF36200B                 push    word ptr [0B20]
  1.7B47  9A07487B7B               call    1:4807
  1.7B4C  83C406                   add     sp, 0006
  1.7B4F  C706C00B5F00             mov     word ptr [0BC0], 005F
  1.7B55  C706460B0000             mov     word ptr [0B46], 0000
  1.7B5B  E97514                   jmp     8FD3
  1.7B5E  A1280B                   mov     ax, [0B28]
  1.7B61  0106200B                 add     [0B20], ax
  1.7B65  A1CA05                   mov     ax, [05CA]
  1.7B68  0106280B                 add     [0B28], ax
  1.7B6C  FF36240B                 push    word ptr [0B24]
  1.7B70  FF36220B                 push    word ptr [0B22]
  1.7B74  FF36200B                 push    word ptr [0B20]
  1.7B78  9A0748B87B               call    1:4807
  1.7B7D  83C406                   add     sp, 0006
  1.7B80  A1460B                   mov     ax, [0B46]
  1.7B83  FF06460B                 inc     word ptr [0B46]
  1.7B87  3D0300                   cmp     ax, 0003
  1.7B8A  0F8E0600                 jle     7B94
  1.7B8E  C706C00B5F00             mov     word ptr [0BC0], 005F

  1.7B94 >E93C14                   jmp     8FD3
  1.7B97  833E620B00               cmp     word ptr [0B62], 0000
  1.7B9C  0F841500                 je      7BB5
  1.7BA0  6B06CA05E6               imul    ax, [05CA], FFE6
  1.7BA5  0106200B                 add     [0B20], ax
  1.7BA9  8306220B23               add     word ptr [0B22], 0023
  1.7BAE  F71ECA05                 neg     word ptr [05CA]
  1.7BB2  E92500                   jmp     7BDA

  1.7BB5 >9AB6126C7C               call    1:12B6
  1.7BBA  B90200                   mov     cx, 0002
  1.7BBD  99                       cwd    
  1.7BBE  F7F9                     idiv    cx
  1.7BC0  89164A0B                 mov     [0B4A], dx
  1.7BC4  833E4A0B00               cmp     word ptr [0B4A], 0000
  1.7BC9  0F840800                 je      7BD5
  1.7BCD  8306220B24               add     word ptr [0B22], 0024
  1.7BD2  E90500                   jmp     7BDA

  1.7BD5 >8306220B14               add     word ptr [0B22], 0014

  1.7BDA >C706460B0000             mov     word ptr [0B46], 0000
  1.7BE0  C706C00B7000             mov     word ptr [0BC0], 0070
  1.7BE6  833E460B00               cmp     word ptr [0B46], 0000
  1.7BEB  0F851A00                 jne     7C09
  1.7BEF  A15A0B                   mov     ax, [0B5A]
  1.7BF2  FF065A0B                 inc     word ptr [0B5A]
  1.7BF6  3D0A00                   cmp     ax, 000A
  1.7BF9  0F8D0300                 jnl     7C00
  1.7BFD  E9D313                   jmp     8FD3

  1.7C00 >C7065A0B0000             mov     word ptr [0B5A], 0000
  1.7C06  E91700                   jmp     7C20

  1.7C09 >A15A0B                   mov     ax, [0B5A]
  1.7C0C  FF065A0B                 inc     word ptr [0B5A]
  1.7C10  3D0100                   cmp     ax, 0001
  1.7C13  0F8D0300                 jnl     7C1A
  1.7C17  E9B913                   jmp     8FD3

  1.7C1A >C7065A0B0000             mov     word ptr [0B5A], 0000

  1.7C20 >833E620B00               cmp     word ptr [0B62], 0000
  1.7C25  0F841800                 je      7C41
  1.7C29  833E240B28               cmp     word ptr [0B24], 0028
  1.7C2E  0F850600                 jne     7C38
  1.7C32  B82900                   mov     ax, 0029
  1.7C35  E90300                   jmp     7C3B

  1.7C38 >B82800                   mov     ax, 0028

  1.7C3B >A3240B                   mov     [0B24], ax
  1.7C3E  E91C00                   jmp     7C5D

  1.7C41 >A1460B                   mov     ax, [0B46]
  1.7C44  B90400                   mov     cx, 0004
  1.7C47  99                       cwd    
  1.7C48  F7F9                     idiv    cx
  1.7C4A  8BDA                     mov     bx, dx
  1.7C4C  A14A0B                   mov     ax, [0B4A]
  1.7C4F  C1E002                   shl     ax, 02
  1.7C52  03D8                     add     bx, ax
  1.7C54  D1E3                     shl     bx, 1
  1.7C56  8B873406                 mov     ax, [bx+0634]
  1.7C5A  A3240B                   mov     [0B24], ax

  1.7C5D >FF36240B                 push    word ptr [0B24]
  1.7C61  FF36220B                 push    word ptr [0B22]
  1.7C65  FF36200B                 push    word ptr [0B20]
  1.7C69  9A0748B47C               call    1:4807
  1.7C6E  83C406                   add     sp, 0006
  1.7C71  FF06460B                 inc     word ptr [0B46]
  1.7C75  833E460B0C               cmp     word ptr [0B46], 000C
  1.7C7A  0F8E1800                 jle     7C96
  1.7C7E  833E620B00               cmp     word ptr [0B62], 0000
  1.7C83  0F840900                 je      7C90
  1.7C87  C706C00B6200             mov     word ptr [0BC0], 0062
  1.7C8D  E90600                   jmp     7C96

  1.7C90 >C706C00B6000             mov     word ptr [0BC0], 0060

  1.7C96 >E93A13                   jmp     8FD3
  1.7C99  C706962D0100             mov     word ptr [2D96], 0001
  1.7C9F  C706240B0600             mov     word ptr [0B24], 0006
  1.7CA5  FF36240B                 push    word ptr [0B24]
  1.7CA9  FF36220B                 push    word ptr [0B22]
  1.7CAD  FF36200B                 push    word ptr [0B20]
  1.7CB1  9A0748EC7C               call    1:4807
  1.7CB6  83C406                   add     sp, 0006
  1.7CB9  C706C00B7200             mov     word ptr [0BC0], 0072
  1.7CBF  E91113                   jmp     8FD3
  1.7CC2  A15A0B                   mov     ax, [0B5A]
  1.7CC5  FF065A0B                 inc     word ptr [0B5A]
  1.7CC9  3D0100                   cmp     ax, 0001
  1.7CCC  0F8D0300                 jnl     7CD3
  1.7CD0  E90013                   jmp     8FD3

  1.7CD3 >C7065A0B0000             mov     word ptr [0B5A], 0000
  1.7CD9  FF06240B                 inc     word ptr [0B24]
  1.7CDD  FF36240B                 push    word ptr [0B24]
  1.7CE1  FF36220B                 push    word ptr [0B22]
  1.7CE5  FF36200B                 push    word ptr [0B20]
  1.7CE9  9A07480B7D               call    1:4807
  1.7CEE  83C406                   add     sp, 0006
  1.7CF1  833E240B08               cmp     word ptr [0B24], 0008
  1.7CF6  0F850C00                 jne     7D06
  1.7CFA  C706240B0000             mov     word ptr [0B24], 0000
  1.7D00  C706C00B7300             mov     word ptr [0BC0], 0073

  1.7D06 >6A00                     push    0000
  1.7D08  9A6F49E275               call    1:496F
  1.7D0D  83C402                   add     sp, 0002
  1.7D10  E9C012                   jmp     8FD3
  1.7D13  6A00                     push    0000
  1.7D15  9A6F494F7D               call    1:496F
  1.7D1A  83C402                   add     sp, 0002
  1.7D1D  A15A0B                   mov     ax, [0B5A]
  1.7D20  FF065A0B                 inc     word ptr [0B5A]
  1.7D24  3D0400                   cmp     ax, 0004
  1.7D27  0F8D0300                 jnl     7D2E
  1.7D2B  E9A512                   jmp     8FD3

  1.7D2E >C7065A0B0000             mov     word ptr [0B5A], 0000
  1.7D34  833E240B01               cmp     word ptr [0B24], 0001
  1.7D39  1BC0                     sbb     ax, ax
  1.7D3B  F7D8                     neg     ax
  1.7D3D  A3240B                   mov     [0B24], ax
  1.7D40  FF36240B                 push    word ptr [0B24]
  1.7D44  FF36220B                 push    word ptr [0B22]
  1.7D48  FF36200B                 push    word ptr [0B20]
  1.7D4C  9A0748917D               call    1:4807
  1.7D51  83C406                   add     sp, 0006
  1.7D54  E97C12                   jmp     8FD3
  1.7D57  A1702D                   mov     ax, [2D70]
  1.7D5A  A3200B                   mov     [0B20], ax
  1.7D5D  A1722D                   mov     ax, [2D72]
  1.7D60  8BC8                     mov     cx, ax
  1.7D62  D1E0                     shl     ax, 1
  1.7D64  03C1                     add     ax, cx
  1.7D66  D1E0                     shl     ax, 1
  1.7D68  03C1                     add     ax, cx
  1.7D6A  99                       cwd    
  1.7D6B  83E207                   and     dx, 0007
  1.7D6E  03C2                     add     ax, dx
  1.7D70  C1F803                   sar     ax, 03
  1.7D73  A3220B                   mov     [0B22], ax
  1.7D76  C706240B0400             mov     word ptr [0B24], 0004
  1.7D7C  C706CA050100             mov     word ptr [05CA], 0001
  1.7D82  FF36240B                 push    word ptr [0B24]
  1.7D86  FF36220B                 push    word ptr [0B22]
  1.7D8A  FF36200B                 push    word ptr [0B20]
  1.7D8E  9A0748E47D               call    1:4807
  1.7D93  83C406                   add     sp, 0006
  1.7D96  C706C00B7500             mov     word ptr [0BC0], 0075
  1.7D9C  E93412                   jmp     8FD3
  1.7D9F  A15A0B                   mov     ax, [0B5A]
  1.7DA2  FF065A0B                 inc     word ptr [0B5A]
  1.7DA6  3D0100                   cmp     ax, 0001
  1.7DA9  0F8D0300                 jnl     7DB0
  1.7DAD  E92312                   jmp     8FD3

  1.7DB0 >C7065A0B0000             mov     word ptr [0B5A], 0000
  1.7DB6  A1CA05                   mov     ax, [05CA]
  1.7DB9  C1E004                   shl     ax, 04
  1.7DBC  2906200B                 sub     [0B20], ax
  1.7DC0  833E240B04               cmp     word ptr [0B24], 0004
  1.7DC5  0F850600                 jne     7DCF
  1.7DC9  B80500                   mov     ax, 0005
  1.7DCC  E90300                   jmp     7DD2

  1.7DCF >B80400                   mov     ax, 0004

  1.7DD2 >A3240B                   mov     [0B24], ax
  1.7DD5  FF36240B                 push    word ptr [0B24]
  1.7DD9  FF36220B                 push    word ptr [0B22]
  1.7DDD  FF36200B                 push    word ptr [0B20]
  1.7DE1  9A0748087E               call    1:4807
  1.7DE6  83C406                   add     sp, 0006
  1.7DE9  A1702D                   mov     ax, [2D70]
  1.7DEC  99                       cwd    
  1.7DED  2BC2                     sub     ax, dx
  1.7DEF  D1F8                     sar     ax, 1
  1.7DF1  2D1400                   sub     ax, 0014
  1.7DF4  3B06200B                 cmp     ax, [0B20]
  1.7DF8  0F8C0600                 jl      7E02
  1.7DFC  C706C00B7600             mov     word ptr [0BC0], 0076

  1.7E02 >E9CE11                   jmp     8FD3
  1.7E05  9A212A447E               call    1:2A21
  1.7E0A  C706CC05FFFF             mov     word ptr [05CC], FFFF
  1.7E10  C7062E0BD8FF             mov     word ptr [0B2E], FFD8
  1.7E16  A1722D                   mov     ax, [2D72]
  1.7E19  99                       cwd    
  1.7E1A  83E207                   and     dx, 0007
  1.7E1D  03C2                     add     ax, dx
  1.7E1F  C1F803                   sar     ax, 03
  1.7E22  A3300B                   mov     [0B30], ax
  1.7E25  C706320B9A00             mov     word ptr [0B32], 009A
  1.7E2B  C706460B0000             mov     word ptr [0B46], 0000
  1.7E31  C706C00B7700             mov     word ptr [0BC0], 0077
  1.7E37  C706CE230000             mov     word ptr [23CE], 0000
  1.7E3D  FF36D023                 push    word ptr [23D0]
  1.7E41  9ABF2A507E               call    1:2ABF
  1.7E46  83C402                   add     sp, 0002
  1.7E49  FF36902D                 push    word ptr [2D90]
  1.7E4D  9ABF2A7D7E               call    1:2ABF
  1.7E52  83C402                   add     sp, 0002
  1.7E55  E97B11                   jmp     8FD3
  1.7E58  833E460B00               cmp     word ptr [0B46], 0000
  1.7E5D  0F843700                 je      7E98
  1.7E61  8B1E460B                 mov     bx, [0B46]
  1.7E65  D1E3                     shl     bx, 1
  1.7E67  8B87F405                 mov     ax, [bx+05F4]
  1.7E6B  A3240B                   mov     [0B24], ax
  1.7E6E  FF36240B                 push    word ptr [0B24]
  1.7E72  FF36220B                 push    word ptr [0B22]
  1.7E76  FF36200B                 push    word ptr [0B20]
  1.7E7A  9A0748AD7E               call    1:4807
  1.7E7F  83C406                   add     sp, 0006
  1.7E82  FF06460B                 inc     word ptr [0B46]
  1.7E86  833E460B07               cmp     word ptr [0B46], 0007
  1.7E8B  0F8E0600                 jle     7E95
  1.7E8F  C706460B0000             mov     word ptr [0B46], 0000

  1.7E95 >E93200                   jmp     7ECA

  1.7E98 >C706240B4900             mov     word ptr [0B24], 0049
  1.7E9E  FF36240B                 push    word ptr [0B24]
  1.7EA2  FF36220B                 push    word ptr [0B22]
  1.7EA6  FF36200B                 push    word ptr [0B20]
  1.7EAA  9A0748B57E               call    1:4807
  1.7EAF  83C406                   add     sp, 0006
  1.7EB2  9AB612107F               call    1:12B6
  1.7EB7  B91400                   mov     cx, 0014
  1.7EBA  99                       cwd    
  1.7EBB  F7F9                     idiv    cx
  1.7EBD  83FA00                   cmp     dx, 0000
  1.7EC0  0F850600                 jne     7ECA
  1.7EC4  C706460B0100             mov     word ptr [0B46], 0001

  1.7ECA >A15A0B                   mov     ax, [0B5A]
  1.7ECD  FF065A0B                 inc     word ptr [0B5A]
  1.7ED1  3D0100                   cmp     ax, 0001
  1.7ED4  0F8D0300                 jnl     7EDB
  1.7ED8  E9F810                   jmp     8FD3

  1.7EDB >C7065A0B0000             mov     word ptr [0B5A], 0000
  1.7EE1  A1CC05                   mov     ax, [05CC]
  1.7EE4  C1E004                   shl     ax, 04
  1.7EE7  29062E0B                 sub     [0B2E], ax
  1.7EEB  813E320B9A00             cmp     word ptr [0B32], 009A
  1.7EF1  0F850600                 jne     7EFB
  1.7EF5  B89B00                   mov     ax, 009B
  1.7EF8  E90300                   jmp     7EFE

  1.7EFB >B89A00                   mov     ax, 009A

  1.7EFE >A3320B                   mov     [0B32], ax
  1.7F01  FF36320B                 push    word ptr [0B32]
  1.7F05  FF36300B                 push    word ptr [0B30]
  1.7F09  FF362E0B                 push    word ptr [0B2E]
  1.7F0D  9A8C48357F               call    1:488C
  1.7F12  83C406                   add     sp, 0006
  1.7F15  A1200B                   mov     ax, [0B20]
  1.7F18  39062E0B                 cmp     [0B2E], ax
  1.7F1C  0F8E1A00                 jle     7F3A
  1.7F20  C706CA05FFFF             mov     word ptr [05CA], FFFF
  1.7F26  FF36240B                 push    word ptr [0B24]
  1.7F2A  FF36220B                 push    word ptr [0B22]
  1.7F2E  FF36200B                 push    word ptr [0B20]
  1.7F32  9A0748487F               call    1:4807
  1.7F37  83C406                   add     sp, 0006

  1.7F3A >A1702D                   mov     ax, [2D70]
  1.7F3D  39062E0B                 cmp     [0B2E], ax
  1.7F41  0F8E0B00                 jle     7F50
  1.7F45  9A962A987F               call    1:2A96
  1.7F4A  C706C00B7800             mov     word ptr [0BC0], 0078

  1.7F50 >E98010                   jmp     8FD3
  1.7F53  A15A0B                   mov     ax, [0B5A]
  1.7F56  FF065A0B                 inc     word ptr [0B5A]
  1.7F5A  3D0100                   cmp     ax, 0001
  1.7F5D  0F8D0300                 jnl     7F64
  1.7F61  E96F10                   jmp     8FD3

  1.7F64 >C7065A0B0000             mov     word ptr [0B5A], 0000
  1.7F6A  A1CA05                   mov     ax, [05CA]
  1.7F6D  C1E004                   shl     ax, 04
  1.7F70  2906200B                 sub     [0B20], ax
  1.7F74  833E240B04               cmp     word ptr [0B24], 0004
  1.7F79  0F850600                 jne     7F83
  1.7F7D  B80500                   mov     ax, 0005
  1.7F80  E90300                   jmp     7F86

  1.7F83 >B80400                   mov     ax, 0004

  1.7F86 >A3240B                   mov     [0B24], ax
  1.7F89  FF36240B                 push    word ptr [0B24]
  1.7F8D  FF36220B                 push    word ptr [0B22]
  1.7F91  FF36200B                 push    word ptr [0B20]
  1.7F95  9A0748DF7F               call    1:4807
  1.7F9A  83C406                   add     sp, 0006
  1.7F9D  A1702D                   mov     ax, [2D70]
  1.7FA0  3906200B                 cmp     [0B20], ax
  1.7FA4  0F8E0600                 jle     7FAE
  1.7FA8  C706C00B0100             mov     word ptr [0BC0], 0001

  1.7FAE >E92210                   jmp     8FD3
  1.7FB1  A1702D                   mov     ax, [2D70]
  1.7FB4  A3200B                   mov     [0B20], ax
  1.7FB7  A1722D                   mov     ax, [2D72]
  1.7FBA  8BC8                     mov     cx, ax
  1.7FBC  D1E0                     shl     ax, 1
  1.7FBE  03C1                     add     ax, cx
  1.7FC0  D1E0                     shl     ax, 1
  1.7FC2  03C1                     add     ax, cx
  1.7FC4  99                       cwd    
  1.7FC5  83E207                   and     dx, 0007
  1.7FC8  03C2                     add     ax, dx
  1.7FCA  C1F803                   sar     ax, 03
  1.7FCD  A3220B                   mov     [0B22], ax
  1.7FD0  C706240B0400             mov     word ptr [0B24], 0004
  1.7FD6  C706CA050100             mov     word ptr [05CA], 0001
  1.7FDC  9A212A1B80               call    1:2A21
  1.7FE1  C706CC05FFFF             mov     word ptr [05CC], FFFF
  1.7FE7  C7062E0BD8FF             mov     word ptr [0B2E], FFD8
  1.7FED  A1722D                   mov     ax, [2D72]
  1.7FF0  8BC8                     mov     cx, ax
  1.7FF2  D1E0                     shl     ax, 1
  1.7FF4  03C1                     add     ax, cx
  1.7FF6  D1E0                     shl     ax, 1
  1.7FF8  03C1                     add     ax, cx
  1.7FFA  99                       cwd    
  1.7FFB  83E207                   and     dx, 0007
  1.7FFE  03C2                     add     ax, dx
  1.8000  C1F803                   sar     ax, 03
  1.8003  A3300B                   mov     [0B30], ax
  1.8006  C706320B9A00             mov     word ptr [0B32], 009A
  1.800C  FF36240B                 push    word ptr [0B24]
  1.8010  FF36220B                 push    word ptr [0B22]
  1.8014  FF36200B                 push    word ptr [0B20]
  1.8018  9A07482F80               call    1:4807
  1.801D  83C406                   add     sp, 0006
  1.8020  FF36320B                 push    word ptr [0B32]
  1.8024  FF36300B                 push    word ptr [0B30]
  1.8028  FF362E0B                 push    word ptr [0B2E]
  1.802C  9A8C484780               call    1:488C
  1.8031  83C406                   add     sp, 0006
  1.8034  C706C00B7A00             mov     word ptr [0BC0], 007A
  1.803A  C706CE230000             mov     word ptr [23CE], 0000
  1.8040  FF36D023                 push    word ptr [23D0]
  1.8044  9ABF2A5380               call    1:2ABF
  1.8049  83C402                   add     sp, 0002
  1.804C  FF36902D                 push    word ptr [2D90]
  1.8050  9ABF2A7079               call    1:2ABF
  1.8055  83C402                   add     sp, 0002
  1.8058  E9780F                   jmp     8FD3
  1.805B  A15A0B                   mov     ax, [0B5A]
  1.805E  FF065A0B                 inc     word ptr [0B5A]
  1.8062  3D0100                   cmp     ax, 0001
  1.8065  0F8D0300                 jnl     806C
  1.8069  E9670F                   jmp     8FD3

  1.806C >C7065A0B0000             mov     word ptr [0B5A], 0000
  1.8072  A1CA05                   mov     ax, [05CA]
  1.8075  C1E004                   shl     ax, 04
  1.8078  2906200B                 sub     [0B20], ax
  1.807C  833E240B04               cmp     word ptr [0B24], 0004
  1.8081  0F850600                 jne     808B
  1.8085  B80500                   mov     ax, 0005
  1.8088  E90300                   jmp     808E

  1.808B >B80400                   mov     ax, 0004

  1.808E >A3240B                   mov     [0B24], ax
  1.8091  A1CC05                   mov     ax, [05CC]
  1.8094  C1E004                   shl     ax, 04
  1.8097  29062E0B                 sub     [0B2E], ax
  1.809B  813E320B9A00             cmp     word ptr [0B32], 009A
  1.80A1  0F850600                 jne     80AB
  1.80A5  B89B00                   mov     ax, 009B
  1.80A8  E90300                   jmp     80AE

  1.80AB >B89A00                   mov     ax, 009A

  1.80AE >A3320B                   mov     [0B32], ax
  1.80B1  A1200B                   mov     ax, [0B20]
  1.80B4  2B062E0B                 sub     ax, [0B2E]
  1.80B8  3D2E00                   cmp     ax, 002E
  1.80BB  0F8F5F00                 jg      811E
  1.80BF  A1702D                   mov     ax, [2D70]
  1.80C2  99                       cwd    
  1.80C3  2BC2                     sub     ax, dx
  1.80C5  D1F8                     sar     ax, 1
  1.80C7  050300                   add     ax, 0003
  1.80CA  A3200B                   mov     [0B20], ax
  1.80CD  A1702D                   mov     ax, [2D70]
  1.80D0  99                       cwd    
  1.80D1  2BC2                     sub     ax, dx
  1.80D3  D1F8                     sar     ax, 1
  1.80D5  2D2B00                   sub     ax, 002B
  1.80D8  A32E0B                   mov     [0B2E], ax
  1.80DB  C706240B0300             mov     word ptr [0B24], 0003
  1.80E1  C706320B9D00             mov     word ptr [0B32], 009D
  1.80E7  FF36240B                 push    word ptr [0B24]
  1.80EB  FF36220B                 push    word ptr [0B22]
  1.80EF  FF36200B                 push    word ptr [0B20]
  1.80F3  9A07480A81               call    1:4807
  1.80F8  83C406                   add     sp, 0006
  1.80FB  FF36320B                 push    word ptr [0B32]
  1.80FF  FF36300B                 push    word ptr [0B30]
  1.8103  FF362E0B                 push    word ptr [0B2E]
  1.8107  9A8C482D81               call    1:488C
  1.810C  83C406                   add     sp, 0006
  1.810F  C706460B0000             mov     word ptr [0B46], 0000
  1.8115  C706C00B7B00             mov     word ptr [0BC0], 007B
  1.811B  E92800                   jmp     8146

  1.811E >FF36240B                 push    word ptr [0B24]
  1.8122  FF36220B                 push    word ptr [0B22]
  1.8126  FF36200B                 push    word ptr [0B20]
  1.812A  9A07484181               call    1:4807
  1.812F  83C406                   add     sp, 0006
  1.8132  FF36320B                 push    word ptr [0B32]
  1.8136  FF36300B                 push    word ptr [0B30]
  1.813A  FF362E0B                 push    word ptr [0B2E]
  1.813E  9A8C487C81               call    1:488C
  1.8143  83C406                   add     sp, 0006

  1.8146 >E98A0E                   jmp     8FD3
  1.8149  A15A0B                   mov     ax, [0B5A]
  1.814C  FF065A0B                 inc     word ptr [0B5A]
  1.8150  3D0300                   cmp     ax, 0003
  1.8153  0F8D0300                 jnl     815A
  1.8157  E9790E                   jmp     8FD3

  1.815A >C7065A0B0000             mov     word ptr [0B5A], 0000
  1.8160  A1460B                   mov     ax, [0B46]
  1.8163  057F00                   add     ax, 007F
  1.8166  A3240B                   mov     [0B24], ax
  1.8169  FF06460B                 inc     word ptr [0B46]
  1.816D  FF36240B                 push    word ptr [0B24]
  1.8171  FF36220B                 push    word ptr [0B22]
  1.8175  FF36200B                 push    word ptr [0B20]
  1.8179  9A0748BA81               call    1:4807
  1.817E  83C406                   add     sp, 0006
  1.8181  833E460B04               cmp     word ptr [0B46], 0004
  1.8186  0F8C0600                 jl      8190
  1.818A  C706C00B7C00             mov     word ptr [0BC0], 007C

  1.8190 >E9400E                   jmp     8FD3
  1.8193  A15A0B                   mov     ax, [0B5A]
  1.8196  FF065A0B                 inc     word ptr [0B5A]
  1.819A  3D0400                   cmp     ax, 0004
  1.819D  0F8D0300                 jnl     81A4
  1.81A1  E92F0E                   jmp     8FD3

  1.81A4 >C7065A0B0000             mov     word ptr [0B5A], 0000
  1.81AA  FF06662D                 inc     word ptr [2D66]
  1.81AE  833E662D08               cmp     word ptr [2D66], 0008
  1.81B3  0F8E1100                 jle     81C8
  1.81B7  9A962AFD81               call    1:2A96
  1.81BC  C706460B0000             mov     word ptr [0B46], 0000
  1.81C2  C706C00B7D00             mov     word ptr [0BC0], 007D

  1.81C8 >E9080E                   jmp     8FD3
  1.81CB  8B1E460B                 mov     bx, [0B46]
  1.81CF  D1E3                     shl     bx, 1
  1.81D1  8B877C07                 mov     ax, [bx+077C]
  1.81D5  A3240B                   mov     [0B24], ax
  1.81D8  FF06460B                 inc     word ptr [0B46]
  1.81DC  833E240B00               cmp     word ptr [0B24], 0000
  1.81E1  0F850900                 jne     81EE
  1.81E5  C706C00B0100             mov     word ptr [0BC0], 0001
  1.81EB  E9E50D                   jmp     8FD3

  1.81EE >FF36240B                 push    word ptr [0B24]
  1.81F2  FF36220B                 push    word ptr [0B22]
  1.81F6  FF36200B                 push    word ptr [0B20]
  1.81FA  9A07483382               call    1:4807
  1.81FF  83C406                   add     sp, 0006
  1.8202  E9CE0D                   jmp     8FD3
  1.8205  A1702D                   mov     ax, [2D70]
  1.8208  A3200B                   mov     [0B20], ax
  1.820B  A1722D                   mov     ax, [2D72]
  1.820E  8BC8                     mov     cx, ax
  1.8210  D1E0                     shl     ax, 1
  1.8212  03C1                     add     ax, cx
  1.8214  D1E0                     shl     ax, 1
  1.8216  03C1                     add     ax, cx
  1.8218  99                       cwd    
  1.8219  83E207                   and     dx, 0007
  1.821C  03C2                     add     ax, dx
  1.821E  C1F803                   sar     ax, 03
  1.8221  A3220B                   mov     [0B22], ax
  1.8224  C706240B0400             mov     word ptr [0B24], 0004
  1.822A  C706CA050100             mov     word ptr [05CA], 0001
  1.8230  9A212A7282               call    1:2A21
  1.8235  C706CC050100             mov     word ptr [05CC], 0001
  1.823B  A1702D                   mov     ax, [2D70]
  1.823E  052E00                   add     ax, 002E
  1.8241  A32E0B                   mov     [0B2E], ax
  1.8244  A1722D                   mov     ax, [2D72]
  1.8247  8BC8                     mov     cx, ax
  1.8249  D1E0                     shl     ax, 1
  1.824B  03C1                     add     ax, cx
  1.824D  D1E0                     shl     ax, 1
  1.824F  03C1                     add     ax, cx
  1.8251  99                       cwd    
  1.8252  83E207                   and     dx, 0007
  1.8255  03C2                     add     ax, dx
  1.8257  C1F803                   sar     ax, 03
  1.825A  A3300B                   mov     [0B30], ax
  1.825D  C706320B9A00             mov     word ptr [0B32], 009A
  1.8263  FF36240B                 push    word ptr [0B24]
  1.8267  FF36220B                 push    word ptr [0B22]
  1.826B  FF36200B                 push    word ptr [0B20]
  1.826F  9A07488682               call    1:4807
  1.8274  83C406                   add     sp, 0006
  1.8277  FF36320B                 push    word ptr [0B32]
  1.827B  FF36300B                 push    word ptr [0B30]
  1.827F  FF362E0B                 push    word ptr [0B2E]
  1.8283  9A8C489E82               call    1:488C
  1.8288  83C406                   add     sp, 0006
  1.828B  C706C00B7F00             mov     word ptr [0BC0], 007F
  1.8291  C706CE230000             mov     word ptr [23CE], 0000
  1.8297  FF36D023                 push    word ptr [23D0]
  1.829B  9ABF2AAA82               call    1:2ABF
  1.82A0  83C402                   add     sp, 0002
  1.82A3  FF36902D                 push    word ptr [2D90]
  1.82A7  9ABF2A1483               call    1:2ABF
  1.82AC  83C402                   add     sp, 0002
  1.82AF  E9210D                   jmp     8FD3
  1.82B2  A15A0B                   mov     ax, [0B5A]
  1.82B5  FF065A0B                 inc     word ptr [0B5A]
  1.82B9  3D0100                   cmp     ax, 0001
  1.82BC  0F8D0300                 jnl     82C3
  1.82C0  E9100D                   jmp     8FD3

  1.82C3 >C7065A0B0000             mov     word ptr [0B5A], 0000
  1.82C9  A1CA05                   mov     ax, [05CA]
  1.82CC  C1E004                   shl     ax, 04
  1.82CF  2906200B                 sub     [0B20], ax
  1.82D3  833E240B04               cmp     word ptr [0B24], 0004
  1.82D8  0F850600                 jne     82E2
  1.82DC  B80500                   mov     ax, 0005
  1.82DF  E90300                   jmp     82E5

  1.82E2 >B80400                   mov     ax, 0004

  1.82E5 >A3240B                   mov     [0B24], ax
  1.82E8  A1CC05                   mov     ax, [05CC]
  1.82EB  C1E004                   shl     ax, 04
  1.82EE  29062E0B                 sub     [0B2E], ax
  1.82F2  813E320B9A00             cmp     word ptr [0B32], 009A
  1.82F8  0F850600                 jne     8302
  1.82FC  B89B00                   mov     ax, 009B
  1.82FF  E90300                   jmp     8305

  1.8302 >B89A00                   mov     ax, 009A

  1.8305 >A3320B                   mov     [0B32], ax
  1.8308  833E2E0BD8               cmp     word ptr [0B2E], FFD8
  1.830D  0F8D0E00                 jnl     831F
  1.8311  9A962A2E83               call    1:2A96
  1.8316  C706C00B0100             mov     word ptr [0BC0], 0001
  1.831C  E92800                   jmp     8347

  1.831F >FF36240B                 push    word ptr [0B24]
  1.8323  FF36220B                 push    word ptr [0B22]
  1.8327  FF36200B                 push    word ptr [0B20]
  1.832B  9A07484283               call    1:4807
  1.8330  83C406                   add     sp, 0006
  1.8333  FF36320B                 push    word ptr [0B32]
  1.8337  FF36300B                 push    word ptr [0B30]
  1.833B  FF362E0B                 push    word ptr [0B2E]
  1.833F  9A8C488483               call    1:488C
  1.8344  83C406                   add     sp, 0006

  1.8347 >E9890C                   jmp     8FD3
  1.834A  A1702D                   mov     ax, [2D70]
  1.834D  A3200B                   mov     [0B20], ax
  1.8350  A1722D                   mov     ax, [2D72]
  1.8353  8BC8                     mov     cx, ax
  1.8355  D1E0                     shl     ax, 1
  1.8357  03C1                     add     ax, cx
  1.8359  D1E0                     shl     ax, 1
  1.835B  03C1                     add     ax, cx
  1.835D  99                       cwd    
  1.835E  83E207                   and     dx, 0007
  1.8361  03C2                     add     ax, dx
  1.8363  C1F803                   sar     ax, 03
  1.8366  A3220B                   mov     [0B22], ax
  1.8369  C706240B0400             mov     word ptr [0B24], 0004
  1.836F  C706CA050100             mov     word ptr [05CA], 0001
  1.8375  FF36240B                 push    word ptr [0B24]
  1.8379  FF36220B                 push    word ptr [0B22]
  1.837D  FF36200B                 push    word ptr [0B20]
  1.8381  9A0748D783               call    1:4807
  1.8386  83C406                   add     sp, 0006
  1.8389  C706C00B8100             mov     word ptr [0BC0], 0081
  1.838F  E9410C                   jmp     8FD3
  1.8392  A15A0B                   mov     ax, [0B5A]
  1.8395  FF065A0B                 inc     word ptr [0B5A]
  1.8399  3D0100                   cmp     ax, 0001
  1.839C  0F8D0300                 jnl     83A3
  1.83A0  E9300C                   jmp     8FD3

  1.83A3 >C7065A0B0000             mov     word ptr [0B5A], 0000
  1.83A9  A1CA05                   mov     ax, [05CA]
  1.83AC  C1E004                   shl     ax, 04
  1.83AF  2906200B                 sub     [0B20], ax
  1.83B3  833E240B04               cmp     word ptr [0B24], 0004
  1.83B8  0F850600                 jne     83C2
  1.83BC  B80500                   mov     ax, 0005
  1.83BF  E90300                   jmp     83C5

  1.83C2 >B80400                   mov     ax, 0004

  1.83C5 >A3240B                   mov     [0B24], ax
  1.83C8  FF36240B                 push    word ptr [0B24]
  1.83CC  FF36220B                 push    word ptr [0B22]
  1.83D0  FF36200B                 push    word ptr [0B20]
  1.83D4  9A0748FB83               call    1:4807
  1.83D9  83C406                   add     sp, 0006
  1.83DC  A1702D                   mov     ax, [2D70]
  1.83DF  99                       cwd    
  1.83E0  2BC2                     sub     ax, dx
  1.83E2  D1F8                     sar     ax, 1
  1.83E4  2D1400                   sub     ax, 0014
  1.83E7  3B06200B                 cmp     ax, [0B20]
  1.83EB  0F8C0600                 jl      83F5
  1.83EF  C706C00B8200             mov     word ptr [0BC0], 0082

  1.83F5 >E9DB0B                   jmp     8FD3
  1.83F8  9A212A3784               call    1:2A21
  1.83FD  C706CC05FFFF             mov     word ptr [05CC], FFFF
  1.8403  C7062E0BD8FF             mov     word ptr [0B2E], FFD8
  1.8409  A1722D                   mov     ax, [2D72]
  1.840C  99                       cwd    
  1.840D  83E207                   and     dx, 0007
  1.8410  03C2                     add     ax, dx
  1.8412  C1F803                   sar     ax, 03
  1.8415  A3300B                   mov     [0B30], ax
  1.8418  C706320B9E00             mov     word ptr [0B32], 009E
  1.841E  C706460B0000             mov     word ptr [0B46], 0000
  1.8424  C706C00B8300             mov     word ptr [0BC0], 0083
  1.842A  C706CE230000             mov     word ptr [23CE], 0000
  1.8430  FF36D023                 push    word ptr [23D0]
  1.8434  9ABF2A4384               call    1:2ABF
  1.8439  83C402                   add     sp, 0002
  1.843C  FF36902D                 push    word ptr [2D90]
  1.8440  9ABF2A187D               call    1:2ABF
  1.8445  83C402                   add     sp, 0002
  1.8448  E9880B                   jmp     8FD3
  1.844B  833E460B00               cmp     word ptr [0B46], 0000
  1.8450  0F843700                 je      848B
  1.8454  8B1E460B                 mov     bx, [0B46]
  1.8458  D1E3                     shl     bx, 1
  1.845A  8B87F405                 mov     ax, [bx+05F4]
  1.845E  A3240B                   mov     [0B24], ax
  1.8461  FF36240B                 push    word ptr [0B24]
  1.8465  FF36220B                 push    word ptr [0B22]
  1.8469  FF36200B                 push    word ptr [0B20]
  1.846D  9A0748A084               call    1:4807
  1.8472  83C406                   add     sp, 0006
  1.8475  FF06460B                 inc     word ptr [0B46]
  1.8479  833E460B07               cmp     word ptr [0B46], 0007
  1.847E  0F8E0600                 jle     8488
  1.8482  C706460B0000             mov     word ptr [0B46], 0000

  1.8488 >E93200                   jmp     84BD

  1.848B >C706240B4900             mov     word ptr [0B24], 0049
  1.8491  FF36240B                 push    word ptr [0B24]
  1.8495  FF36220B                 push    word ptr [0B22]
  1.8499  FF36200B                 push    word ptr [0B20]
  1.849D  9A0748A884               call    1:4807
  1.84A2  83C406                   add     sp, 0006
  1.84A5  9AB6120A85               call    1:12B6
  1.84AA  B91400                   mov     cx, 0014
  1.84AD  99                       cwd    
  1.84AE  F7F9                     idiv    cx
  1.84B0  83FA00                   cmp     dx, 0000
  1.84B3  0F850600                 jne     84BD
  1.84B7  C706460B0100             mov     word ptr [0B46], 0001

  1.84BD >A1CC05                   mov     ax, [05CC]
  1.84C0  C1E004                   shl     ax, 04
  1.84C3  29062E0B                 sub     [0B2E], ax
  1.84C7  813E320BA100             cmp     word ptr [0B32], 00A1
  1.84CD  0F850900                 jne     84DA
  1.84D1  C706320B9E00             mov     word ptr [0B32], 009E
  1.84D7  E90400                   jmp     84DE

  1.84DA >FF06320B                 inc     word ptr [0B32]

  1.84DE >A1200B                   mov     ax, [0B20]
  1.84E1  39062E0B                 cmp     [0B2E], ax
  1.84E5  0F8E1200                 jle     84FB
  1.84E9  A1200B                   mov     ax, [0B20]
  1.84EC  A32E0B                   mov     [0B2E], ax
  1.84EF  C706320BA200             mov     word ptr [0B32], 00A2
  1.84F5  C706C00B8400             mov     word ptr [0BC0], 0084

  1.84FB >FF36320B                 push    word ptr [0B32]
  1.84FF  FF36300B                 push    word ptr [0B30]
  1.8503  FF362E0B                 push    word ptr [0B2E]
  1.8507  9A8C482785               call    1:488C
  1.850C  83C406                   add     sp, 0006
  1.850F  E9C10A                   jmp     8FD3
  1.8512  C706240B4900             mov     word ptr [0B24], 0049
  1.8518  FF36240B                 push    word ptr [0B24]
  1.851C  FF36220B                 push    word ptr [0B22]
  1.8520  FF36200B                 push    word ptr [0B20]
  1.8524  9A07486A85               call    1:4807
  1.8529  83C406                   add     sp, 0006
  1.852C  83067C2D28               add     word ptr [2D7C], 0028
  1.8531  A1220B                   mov     ax, [0B22]
  1.8534  2B06300B                 sub     ax, [0B30]
  1.8538  2D2800                   sub     ax, 0028
  1.853B  3B067C2D                 cmp     ax, [2D7C]
  1.853F  0F8F1800                 jg      855B
  1.8543  A1220B                   mov     ax, [0B22]
  1.8546  2B06300B                 sub     ax, [0B30]
  1.854A  2D2800                   sub     ax, 0028
  1.854D  A37C2D                   mov     [2D7C], ax
  1.8550  832E7C2D14               sub     word ptr [2D7C], 0014
  1.8555  C706C00B8500             mov     word ptr [0BC0], 0085

  1.855B >FF36320B                 push    word ptr [0B32]
  1.855F  FF36300B                 push    word ptr [0B30]
  1.8563  FF362E0B                 push    word ptr [0B2E]
  1.8567  9A8C48E785               call    1:488C
  1.856C  83C406                   add     sp, 0006
  1.856F  A15A0B                   mov     ax, [0B5A]
  1.8572  FF065A0B                 inc     word ptr [0B5A]
  1.8576  3D0100                   cmp     ax, 0001
  1.8579  0F8D0300                 jnl     8580
  1.857D  E9530A                   jmp     8FD3

  1.8580 >C7065A0B0000             mov     word ptr [0B5A], 0000
  1.8586  813E320BA500             cmp     word ptr [0B32], 00A5
  1.858C  0F850900                 jne     8599
  1.8590  C706320BA200             mov     word ptr [0B32], 00A2
  1.8596  E90400                   jmp     859D

  1.8599 >FF06320B                 inc     word ptr [0B32]

  1.859D >E9330A                   jmp     8FD3
  1.85A0  832E7C2D14               sub     word ptr [2D7C], 0014
  1.85A5  833E7C2D00               cmp     word ptr [2D7C], 0000
  1.85AA  0F8F5B00                 jg      8609
  1.85AE  C7067C2D0000             mov     word ptr [2D7C], 0000
  1.85B4  A1300B                   mov     ax, [0B30]
  1.85B7  052800                   add     ax, 0028
  1.85BA  A3220B                   mov     [0B22], ax
  1.85BD  C706C00B8600             mov     word ptr [0BC0], 0086
  1.85C3  833E240B04               cmp     word ptr [0B24], 0004
  1.85C8  0F850600                 jne     85D2
  1.85CC  B80500                   mov     ax, 0005
  1.85CF  E90300                   jmp     85D5

  1.85D2 >B80400                   mov     ax, 0004

  1.85D5 >A3240B                   mov     [0B24], ax
  1.85D8  FF36240B                 push    word ptr [0B24]
  1.85DC  FF36220B                 push    word ptr [0B22]
  1.85E0  FF36200B                 push    word ptr [0B20]
  1.85E4  9A07480186               call    1:4807
  1.85E9  83C406                   add     sp, 0006
  1.85EC  C706320B9E00             mov     word ptr [0B32], 009E
  1.85F2  FF36320B                 push    word ptr [0B32]
  1.85F6  FF36300B                 push    word ptr [0B30]
  1.85FA  FF362E0B                 push    word ptr [0B2E]
  1.85FE  9A8C481886               call    1:488C
  1.8603  83C406                   add     sp, 0006
  1.8606  E9CA09                   jmp     8FD3

  1.8609 >FF36320B                 push    word ptr [0B32]
  1.860D  FF36300B                 push    word ptr [0B30]
  1.8611  FF362E0B                 push    word ptr [0B2E]
  1.8615  9A8C484686               call    1:488C
  1.861A  83C406                   add     sp, 0006
  1.861D  833E240B04               cmp     word ptr [0B24], 0004
  1.8622  0F850600                 jne     862C
  1.8626  B80500                   mov     ax, 0005
  1.8629  E90300                   jmp     862F

  1.862C >B80400                   mov     ax, 0004

  1.862F >A3240B                   mov     [0B24], ax
  1.8632  832E220B14               sub     word ptr [0B22], 0014
  1.8637  FF36240B                 push    word ptr [0B24]
  1.863B  FF36220B                 push    word ptr [0B22]
  1.863F  FF36200B                 push    word ptr [0B20]
  1.8643  9A07489186               call    1:4807
  1.8648  83C406                   add     sp, 0006
  1.864B  A15A0B                   mov     ax, [0B5A]
  1.864E  FF065A0B                 inc     word ptr [0B5A]
  1.8652  3D0100                   cmp     ax, 0001
  1.8655  0F8D0300                 jnl     865C
  1.8659  E97709                   jmp     8FD3

  1.865C >C7065A0B0000             mov     word ptr [0B5A], 0000
  1.8662  813E320BA500             cmp     word ptr [0B32], 00A5
  1.8668  0F850900                 jne     8675
  1.866C  C706320BA200             mov     word ptr [0B32], 00A2
  1.8672  E90400                   jmp     8679

  1.8675 >FF06320B                 inc     word ptr [0B32]

  1.8679 >E95709                   jmp     8FD3
  1.867C  C706200BB0FF             mov     word ptr [0B20], FFB0
  1.8682  FF36240B                 push    word ptr [0B24]
  1.8686  FF36220B                 push    word ptr [0B22]
  1.868A  FF36200B                 push    word ptr [0B20]
  1.868E  9A0748C586               call    1:4807
  1.8693  83C406                   add     sp, 0006
  1.8696  A1CC05                   mov     ax, [05CC]
  1.8699  C1E004                   shl     ax, 04
  1.869C  29062E0B                 sub     [0B2E], ax
  1.86A0  813E320BA100             cmp     word ptr [0B32], 00A1
  1.86A6  0F850900                 jne     86B3
  1.86AA  C706320B9E00             mov     word ptr [0B32], 009E
  1.86B0  E90400                   jmp     86B7

  1.86B3 >FF06320B                 inc     word ptr [0B32]

  1.86B7 >A1702D                   mov     ax, [2D70]
  1.86BA  39062E0B                 cmp     [0B2E], ax
  1.86BE  0F8E1300                 jle     86D5
  1.86C2  9A962ACA86               call    1:2A96
  1.86C7  9A8E42E486               call    1:428E
  1.86CC  C706C00B0100             mov     word ptr [0BC0], 0001
  1.86D2  E9FE08                   jmp     8FD3

  1.86D5 >FF36320B                 push    word ptr [0B32]
  1.86D9  FF36300B                 push    word ptr [0B30]
  1.86DD  FF362E0B                 push    word ptr [0B2E]
  1.86E1  9A8C489287               call    1:488C
  1.86E6  83C406                   add     sp, 0006
  1.86E9  E9E708                   jmp     8FD3
  1.86EC  A1722D                   mov     ax, [2D72]
  1.86EF  8BC8                     mov     cx, ax
  1.86F1  D1E0                     shl     ax, 1
  1.86F3  03C1                     add     ax, cx
  1.86F5  D1E0                     shl     ax, 1
  1.86F7  03C1                     add     ax, cx
  1.86F9  99                       cwd    
  1.86FA  83E207                   and     dx, 0007
  1.86FD  03C2                     add     ax, dx
  1.86FF  C1F803                   sar     ax, 03
  1.8702  A3300B                   mov     [0B30], ax
  1.8705  C706CA05FFFF             mov     word ptr [05CA], FFFF
  1.870B  C706200BD8FF             mov     word ptr [0B20], FFD8
  1.8711  A1722D                   mov     ax, [2D72]
  1.8714  99                       cwd    
  1.8715  83E207                   and     dx, 0007
  1.8718  03C2                     add     ax, dx
  1.871A  C1F803                   sar     ax, 03
  1.871D  A3220B                   mov     [0B22], ax
  1.8720  C706240B9E00             mov     word ptr [0B24], 009E
  1.8726  C706460B0000             mov     word ptr [0B46], 0000
  1.872C  C706C00B8800             mov     word ptr [0BC0], 0088
  1.8732  E99E08                   jmp     8FD3
  1.8735  A1CA05                   mov     ax, [05CA]
  1.8738  C1E004                   shl     ax, 04
  1.873B  2906200B                 sub     [0B20], ax
  1.873F  813E240BA100             cmp     word ptr [0B24], 00A1
  1.8745  0F850900                 jne     8752
  1.8749  C706240B9E00             mov     word ptr [0B24], 009E
  1.874F  E90400                   jmp     8756

  1.8752 >FF06240B                 inc     word ptr [0B24]

  1.8756 >A1702D                   mov     ax, [2D70]
  1.8759  99                       cwd    
  1.875A  2BC2                     sub     ax, dx
  1.875C  D1F8                     sar     ax, 1
  1.875E  2D1400                   sub     ax, 0014
  1.8761  3B06200B                 cmp     ax, [0B20]
  1.8765  0F8D1A00                 jnl     8783
  1.8769  A1702D                   mov     ax, [2D70]
  1.876C  99                       cwd    
  1.876D  2BC2                     sub     ax, dx
  1.876F  D1F8                     sar     ax, 1
  1.8771  2D1400                   sub     ax, 0014
  1.8774  A3200B                   mov     [0B20], ax
  1.8777  C706240BA200             mov     word ptr [0B24], 00A2
  1.877D  C706C00B8900             mov     word ptr [0BC0], 0089

  1.8783 >FF36240B                 push    word ptr [0B24]
  1.8787  FF36220B                 push    word ptr [0B22]
  1.878B  FF36200B                 push    word ptr [0B20]
  1.878F  9A0748D387               call    1:4807
  1.8794  83C406                   add     sp, 0006
  1.8797  E93908                   jmp     8FD3
  1.879A  8306922D28               add     word ptr [2D92], 0028
  1.879F  A1300B                   mov     ax, [0B30]
  1.87A2  2B06220B                 sub     ax, [0B22]
  1.87A6  2D2800                   sub     ax, 0028
  1.87A9  3B06922D                 cmp     ax, [2D92]
  1.87AD  0F8F1300                 jg      87C4
  1.87B1  A1300B                   mov     ax, [0B30]
  1.87B4  2B06220B                 sub     ax, [0B22]
  1.87B8  2D2800                   sub     ax, 0028
  1.87BB  A3922D                   mov     [2D92], ax
  1.87BE  C706C00B8A00             mov     word ptr [0BC0], 008A

  1.87C4 >FF36240B                 push    word ptr [0B24]
  1.87C8  FF36220B                 push    word ptr [0B22]
  1.87CC  FF36200B                 push    word ptr [0B20]
  1.87D0  9A0748F680               call    1:4807
  1.87D5  83C406                   add     sp, 0006
  1.87D8  A15A0B                   mov     ax, [0B5A]
  1.87DB  FF065A0B                 inc     word ptr [0B5A]
  1.87DF  3D0100                   cmp     ax, 0001
  1.87E2  0F8D0300                 jnl     87E9
  1.87E6  E9EA07                   jmp     8FD3

  1.87E9 >C7065A0B0000             mov     word ptr [0B5A], 0000
  1.87EF  813E240BA500             cmp     word ptr [0B24], 00A5
  1.87F5  0F850900                 jne     8802
  1.87F9  C706240BA200             mov     word ptr [0B24], 00A2
  1.87FF  E90400                   jmp     8806

  1.8802 >FF06240B                 inc     word ptr [0B24]

  1.8806 >E9CA07                   jmp     8FD3
  1.8809  A15A0B                   mov     ax, [0B5A]
  1.880C  FF065A0B                 inc     word ptr [0B5A]
  1.8810  3D0400                   cmp     ax, 0004
  1.8813  0F8D0300                 jnl     881A
  1.8817  E9B907                   jmp     8FD3

  1.881A >C7065A0B0000             mov     word ptr [0B5A], 0000
  1.8820  9A212A4088               call    1:2A21
  1.8825  A1200B                   mov     ax, [0B20]
  1.8828  A32E0B                   mov     [0B2E], ax
  1.882B  C706320BA700             mov     word ptr [0B32], 00A7
  1.8831  FF36320B                 push    word ptr [0B32]
  1.8835  FF36300B                 push    word ptr [0B30]
  1.8839  FF362E0B                 push    word ptr [0B2E]
  1.883D  9A8C485488               call    1:488C
  1.8842  83C406                   add     sp, 0006
  1.8845  FF36240B                 push    word ptr [0B24]
  1.8849  FF36220B                 push    word ptr [0B22]
  1.884D  FF36200B                 push    word ptr [0B20]
  1.8851  9A07486C88               call    1:4807
  1.8856  83C406                   add     sp, 0006
  1.8859  C706C00B8B00             mov     word ptr [0BC0], 008B
  1.885F  C706CE230000             mov     word ptr [23CE], 0000
  1.8865  FF36D023                 push    word ptr [23D0]
  1.8869  9ABF2A7888               call    1:2ABF
  1.886E  83C402                   add     sp, 0002
  1.8871  FF36902D                 push    word ptr [2D90]
  1.8875  9ABF2AFE88               call    1:2ABF
  1.887A  83C402                   add     sp, 0002
  1.887D  E95307                   jmp     8FD3
  1.8880  833E922D00               cmp     word ptr [2D92], 0000
  1.8885  0F843400                 je      88BD
  1.8889  832E922D28               sub     word ptr [2D92], 0028
  1.888E  833E922D00               cmp     word ptr [2D92], 0000
  1.8893  0F8F0C00                 jg      88A3
  1.8897  C706240B9E00             mov     word ptr [0B24], 009E
  1.889D  C706922D0000             mov     word ptr [2D92], 0000

  1.88A3 >813E240BA500             cmp     word ptr [0B24], 00A5
  1.88A9  0F850900                 jne     88B6
  1.88AD  C706240BA200             mov     word ptr [0B24], 00A2
  1.88B3  E90400                   jmp     88BA

  1.88B6 >FF06240B                 inc     word ptr [0B24]

  1.88BA >E92100                   jmp     88DE

  1.88BD >A1CA05                   mov     ax, [05CA]
  1.88C0  C1E004                   shl     ax, 04
  1.88C3  2906200B                 sub     [0B20], ax
  1.88C7  813E240BA100             cmp     word ptr [0B24], 00A1
  1.88CD  0F850900                 jne     88DA
  1.88D1  C706240B9E00             mov     word ptr [0B24], 009E
  1.88D7  E90400                   jmp     88DE

  1.88DA >FF06240B                 inc     word ptr [0B24]

  1.88DE >A1702D                   mov     ax, [2D70]
  1.88E1  3906200B                 cmp     [0B20], ax
  1.88E5  0F8E0600                 jle     88EF
  1.88E9  C706C00B8C00             mov     word ptr [0BC0], 008C

  1.88EF >FF36240B                 push    word ptr [0B24]
  1.88F3  FF36220B                 push    word ptr [0B22]
  1.88F7  FF36200B                 push    word ptr [0B20]
  1.88FB  9A07483F89               call    1:4807
  1.8900  83C406                   add     sp, 0006
  1.8903  A15A0B                   mov     ax, [0B5A]
  1.8906  FF065A0B                 inc     word ptr [0B5A]
  1.890A  3D0100                   cmp     ax, 0001
  1.890D  0F8D0300                 jnl     8914
  1.8911  E9BF06                   jmp     8FD3

  1.8914 >C7065A0B0000             mov     word ptr [0B5A], 0000
  1.891A  813E320BA700             cmp     word ptr [0B32], 00A7
  1.8920  0F850600                 jne     892A
  1.8924  B8A800                   mov     ax, 00A8
  1.8927  E90300                   jmp     892D

  1.892A >B8A700                   mov     ax, 00A7

  1.892D >A3320B                   mov     [0B32], ax
  1.8930  FF36320B                 push    word ptr [0B32]
  1.8934  FF36300B                 push    word ptr [0B30]
  1.8938  FF362E0B                 push    word ptr [0B2E]
  1.893C  9A8C485C89               call    1:488C
  1.8941  83C406                   add     sp, 0006
  1.8944  E98C06                   jmp     8FD3
  1.8947  C706320BA600             mov     word ptr [0B32], 00A6
  1.894D  FF36320B                 push    word ptr [0B32]
  1.8951  FF36300B                 push    word ptr [0B30]
  1.8955  FF362E0B                 push    word ptr [0B2E]
  1.8959  9A8C488889               call    1:488C
  1.895E  83C406                   add     sp, 0006
  1.8961  A15A0B                   mov     ax, [0B5A]
  1.8964  FF065A0B                 inc     word ptr [0B5A]
  1.8968  3D0100                   cmp     ax, 0001
  1.896B  0F8D0300                 jnl     8972
  1.896F  E96106                   jmp     8FD3

  1.8972 >C7065A0B0000             mov     word ptr [0B5A], 0000
  1.8978  FF06662D                 inc     word ptr [2D66]
  1.897C  833E662D08               cmp     word ptr [2D66], 0008
  1.8981  0F8E1000                 jle     8995
  1.8985  9A962A8D89               call    1:2A96
  1.898A  9A8E42BC89               call    1:428E
  1.898F  C706C00B0100             mov     word ptr [0BC0], 0001

  1.8995 >E93B06                   jmp     8FD3
  1.8998  C706200BB0FF             mov     word ptr [0B20], FFB0
  1.899E  A1722D                   mov     ax, [2D72]
  1.89A1  99                       cwd    
  1.89A2  83E207                   and     dx, 0007
  1.89A5  03C2                     add     ax, dx
  1.89A7  C1F803                   sar     ax, 03
  1.89AA  A3220B                   mov     [0B22], ax
  1.89AD  FF36240B                 push    word ptr [0B24]
  1.89B1  FF36220B                 push    word ptr [0B22]
  1.89B5  FF36200B                 push    word ptr [0B20]
  1.89B9  9A0748C489               call    1:4807
  1.89BE  83C406                   add     sp, 0006
  1.89C1  9A212A0A8A               call    1:2A21
  1.89C6  C706CC05FFFF             mov     word ptr [05CC], FFFF
  1.89CC  C7062E0BD8FF             mov     word ptr [0B2E], FFD8
  1.89D2  A1722D                   mov     ax, [2D72]
  1.89D5  8BC8                     mov     cx, ax
  1.89D7  D1E0                     shl     ax, 1
  1.89D9  03C1                     add     ax, cx
  1.89DB  D1E0                     shl     ax, 1
  1.89DD  03C1                     add     ax, cx
  1.89DF  99                       cwd    
  1.89E0  83E207                   and     dx, 0007
  1.89E3  03C2                     add     ax, dx
  1.89E5  C1F803                   sar     ax, 03
  1.89E8  A3300B                   mov     [0B30], ax
  1.89EB  C706320B9E00             mov     word ptr [0B32], 009E
  1.89F1  C706460B0000             mov     word ptr [0B46], 0000
  1.89F7  C706C00B8F00             mov     word ptr [0BC0], 008F
  1.89FD  C706CE230000             mov     word ptr [23CE], 0000
  1.8A03  FF36D023                 push    word ptr [23D0]
  1.8A07  9ABF2A168A               call    1:2ABF
  1.8A0C  83C402                   add     sp, 0002
  1.8A0F  FF36902D                 push    word ptr [2D90]
  1.8A13  9ABF2A8F8A               call    1:2ABF
  1.8A18  83C402                   add     sp, 0002
  1.8A1B  E9B505                   jmp     8FD3
  1.8A1E  A1CC05                   mov     ax, [05CC]
  1.8A21  C1E004                   shl     ax, 04
  1.8A24  29062E0B                 sub     [0B2E], ax
  1.8A28  813E320BA100             cmp     word ptr [0B32], 00A1
  1.8A2E  0F850900                 jne     8A3B
  1.8A32  C706320B9E00             mov     word ptr [0B32], 009E
  1.8A38  E90400                   jmp     8A3F

  1.8A3B >FF06320B                 inc     word ptr [0B32]

  1.8A3F >A1722D                   mov     ax, [2D72]
  1.8A42  99                       cwd    
  1.8A43  83E207                   and     dx, 0007
  1.8A46  03C2                     add     ax, dx
  1.8A48  C1F803                   sar     ax, 03
  1.8A4B  3B062E0B                 cmp     ax, [0B2E]
  1.8A4F  0F8D2D00                 jnl     8A80
  1.8A53  A1722D                   mov     ax, [2D72]
  1.8A56  99                       cwd    
  1.8A57  83E207                   and     dx, 0007
  1.8A5A  03C2                     add     ax, dx
  1.8A5C  C1F803                   sar     ax, 03
  1.8A5F  A32E0B                   mov     [0B2E], ax
  1.8A62  A1702D                   mov     ax, [2D70]
  1.8A65  A3200B                   mov     [0B20], ax
  1.8A68  A1300B                   mov     ax, [0B30]
  1.8A6B  A3220B                   mov     [0B22], ax
  1.8A6E  C706240B0400             mov     word ptr [0B24], 0004
  1.8A74  C706CA050100             mov     word ptr [05CA], 0001
  1.8A7A  C706C00B9000             mov     word ptr [0BC0], 0090

  1.8A80 >FF36320B                 push    word ptr [0B32]
  1.8A84  FF36300B                 push    word ptr [0B30]
  1.8A88  FF362E0B                 push    word ptr [0B2E]
  1.8A8C  9A8C48D48A               call    1:488C
  1.8A91  83C406                   add     sp, 0006
  1.8A94  E93C05                   jmp     8FD3
  1.8A97  A15A0B                   mov     ax, [0B5A]
  1.8A9A  FF065A0B                 inc     word ptr [0B5A]
  1.8A9E  3D0100                   cmp     ax, 0001
  1.8AA1  0F8D0300                 jnl     8AA8
  1.8AA5  E92B05                   jmp     8FD3

  1.8AA8 >C7065A0B0000             mov     word ptr [0B5A], 0000
  1.8AAE  813E320BA100             cmp     word ptr [0B32], 00A1
  1.8AB4  0F850900                 jne     8AC1
  1.8AB8  C706320B9E00             mov     word ptr [0B32], 009E
  1.8ABE  E90400                   jmp     8AC5

  1.8AC1 >FF06320B                 inc     word ptr [0B32]

  1.8AC5 >FF36320B                 push    word ptr [0B32]
  1.8AC9  FF36300B                 push    word ptr [0B30]
  1.8ACD  FF362E0B                 push    word ptr [0B2E]
  1.8AD1  9A8C48078B               call    1:488C
  1.8AD6  83C406                   add     sp, 0006
  1.8AD9  A1CA05                   mov     ax, [05CA]
  1.8ADC  C1E004                   shl     ax, 04
  1.8ADF  2906200B                 sub     [0B20], ax
  1.8AE3  833E240B04               cmp     word ptr [0B24], 0004
  1.8AE8  0F850600                 jne     8AF2
  1.8AEC  B80500                   mov     ax, 0005
  1.8AEF  E90300                   jmp     8AF5

  1.8AF2 >B80400                   mov     ax, 0004

  1.8AF5 >A3240B                   mov     [0B24], ax
  1.8AF8  FF36240B                 push    word ptr [0B24]
  1.8AFC  FF36220B                 push    word ptr [0B22]
  1.8B00  FF36200B                 push    word ptr [0B20]
  1.8B04  9A07482F8B               call    1:4807
  1.8B09  83C406                   add     sp, 0006
  1.8B0C  A12E0B                   mov     ax, [0B2E]
  1.8B0F  052800                   add     ax, 0028
  1.8B12  3B06200B                 cmp     ax, [0B20]
  1.8B16  0F8C2000                 jl      8B3A
  1.8B1A  C706200BB0FF             mov     word ptr [0B20], FFB0
  1.8B20  FF36240B                 push    word ptr [0B24]
  1.8B24  FF36220B                 push    word ptr [0B22]
  1.8B28  FF36200B                 push    word ptr [0B20]
  1.8B2C  9A0748658B               call    1:4807
  1.8B31  83C406                   add     sp, 0006
  1.8B34  C706C00B9100             mov     word ptr [0BC0], 0091

  1.8B3A >E99604                   jmp     8FD3
  1.8B3D  832E300B28               sub     word ptr [0B30], 0028
  1.8B42  813E320BA100             cmp     word ptr [0B32], 00A1
  1.8B48  0F850900                 jne     8B55
  1.8B4C  C706320B9E00             mov     word ptr [0B32], 009E
  1.8B52  E90400                   jmp     8B59

  1.8B55 >FF06320B                 inc     word ptr [0B32]

  1.8B59 >833E300BD8               cmp     word ptr [0B30], FFD8
  1.8B5E  0F8D1300                 jnl     8B75
  1.8B62  9A962A6A8B               call    1:2A96
  1.8B67  9A8E42848B               call    1:428E
  1.8B6C  C706C00B0100             mov     word ptr [0BC0], 0001
  1.8B72  E95E04                   jmp     8FD3

  1.8B75 >FF36320B                 push    word ptr [0B32]
  1.8B79  FF36300B                 push    word ptr [0B30]
  1.8B7D  FF362E0B                 push    word ptr [0B2E]
  1.8B81  9A8C488F8B               call    1:488C
  1.8B86  83C406                   add     sp, 0006
  1.8B89  E94704                   jmp     8FD3
  1.8B8C  9A212A7084               call    1:2A21
  1.8B91  C706762D0100             mov     word ptr [2D76], 0001
  1.8B97  C706CC050100             mov     word ptr [05CC], 0001
  1.8B9D  C706320B9200             mov     word ptr [0B32], 0092
  1.8BA3  C706460B0000             mov     word ptr [0B46], 0000
  1.8BA9  A1702D                   mov     ax, [2D70]
  1.8BAC  A3200B                   mov     [0B20], ax
  1.8BAF  C706220BD8FF             mov     word ptr [0B22], FFD8
  1.8BB5  C706CA050100             mov     word ptr [05CA], 0001
  1.8BBB  A1702D                   mov     ax, [2D70]
  1.8BBE  B9A0FF                   mov     cx, FFA0
  1.8BC1  99                       cwd    
  1.8BC2  F7F9                     idiv    cx
  1.8BC4  A3280B                   mov     [0B28], ax
  1.8BC7  A1722D                   mov     ax, [2D72]
  1.8BCA  B96000                   mov     cx, 0060
  1.8BCD  99                       cwd    
  1.8BCE  F7F9                     idiv    cx
  1.8BD0  A3260B                   mov     [0B26], ax
  1.8BD3  6B06280B5C               imul    ax, [0B28], 005C
  1.8BD8  0306702D                 add     ax, [2D70]
  1.8BDC  A32E0B                   mov     [0B2E], ax
  1.8BDF  6B06260B5C               imul    ax, [0B26], 005C
  1.8BE4  2D1400                   sub     ax, 0014
  1.8BE7  A3300B                   mov     [0B30], ax
  1.8BEA  C706C00B9400             mov     word ptr [0BC0], 0094
  1.8BF0  C706CE230100             mov     word ptr [23CE], 0001
  1.8BF6  FF36902D                 push    word ptr [2D90]
  1.8BFA  9ABF2A098C               call    1:2ABF
  1.8BFF  83C402                   add     sp, 0002
  1.8C02  FF36D023                 push    word ptr [23D0]
  1.8C06  9ABF2A348C               call    1:2ABF
  1.8C0B  83C402                   add     sp, 0002
  1.8C0E  A15A0B                   mov     ax, [0B5A]
  1.8C11  FF065A0B                 inc     word ptr [0B5A]
  1.8C15  3D0000                   cmp     ax, 0000
  1.8C18  0F8D0300                 jnl     8C1F
  1.8C1C  E9B403                   jmp     8FD3

  1.8C1F >C7065A0B0000             mov     word ptr [0B5A], 0000
  1.8C25  FF36320B                 push    word ptr [0B32]
  1.8C29  FF36300B                 push    word ptr [0B30]
  1.8C2D  FF362E0B                 push    word ptr [0B2E]
  1.8C31  9A8C48D88C               call    1:488C
  1.8C36  83C406                   add     sp, 0006
  1.8C39  A1280B                   mov     ax, [0B28]
  1.8C3C  0106200B                 add     [0B20], ax
  1.8C40  A1260B                   mov     ax, [0B26]
  1.8C43  0106220B                 add     [0B22], ax
  1.8C47  A1460B                   mov     ax, [0B46]
  1.8C4A  B90300                   mov     cx, 0003
  1.8C4D  99                       cwd    
  1.8C4E  F7F9                     idiv    cx
  1.8C50  8BD8                     mov     bx, ax
  1.8C52  D1E3                     shl     bx, 1
  1.8C54  8B87FE06                 mov     ax, [bx+06FE]
  1.8C58  A3240B                   mov     [0B24], ax
  1.8C5B  FF06460B                 inc     word ptr [0B46]
  1.8C5F  833E240B00               cmp     word ptr [0B24], 0000
  1.8C64  0F850400                 jne     8C6C
  1.8C68  FF0E460B                 dec     word ptr [0B46]

  1.8C6C >833E240B00               cmp     word ptr [0B24], 0000
  1.8C71  0F841400                 je      8C89
  1.8C75  813E240B9000             cmp     word ptr [0B24], 0090
  1.8C7B  0F840A00                 je      8C89
  1.8C7F  813E240B9100             cmp     word ptr [0B24], 0091
  1.8C85  0F851600                 jne     8C9F

  1.8C89 >813E240B9000             cmp     word ptr [0B24], 0090
  1.8C8F  0F850600                 jne     8C99
  1.8C93  B89100                   mov     ax, 0091
  1.8C96  E90300                   jmp     8C9C

  1.8C99 >B89000                   mov     ax, 0090

  1.8C9C >A3240B                   mov     [0B24], ax

  1.8C9F >813E240B8900             cmp     word ptr [0B24], 0089
  1.8CA5  0F840A00                 je      8CB3
  1.8CA9  813E240B8A00             cmp     word ptr [0B24], 008A
  1.8CAF  0F851600                 jne     8CC9

  1.8CB3 >813E240B8900             cmp     word ptr [0B24], 0089
  1.8CB9  0F850600                 jne     8CC3
  1.8CBD  B88A00                   mov     ax, 008A
  1.8CC0  E90300                   jmp     8CC6

  1.8CC3 >B88900                   mov     ax, 0089

  1.8CC6 >A3240B                   mov     [0B24], ax

  1.8CC9 >FF36240B                 push    word ptr [0B24]
  1.8CCD  FF36220B                 push    word ptr [0B22]
  1.8CD1  FF36200B                 push    word ptr [0B20]
  1.8CD5  9A07481A8D               call    1:4807
  1.8CDA  83C406                   add     sp, 0006
  1.8CDD  A12E0B                   mov     ax, [0B2E]
  1.8CE0  050A00                   add     ax, 000A
  1.8CE3  3B06200B                 cmp     ax, [0B20]
  1.8CE7  0F8F0E00                 jg      8CF9
  1.8CEB  A1300B                   mov     ax, [0B30]
  1.8CEE  051400                   add     ax, 0014
  1.8CF1  3B06220B                 cmp     ax, [0B22]
  1.8CF5  0F8D2900                 jnl     8D22

  1.8CF9 >C706460B0000             mov     word ptr [0B46], 0000
  1.8CFF  C706C00B9500             mov     word ptr [0BC0], 0095
  1.8D05  C706240BAD00             mov     word ptr [0B24], 00AD
  1.8D0B  FF36240B                 push    word ptr [0B24]
  1.8D0F  FF36220B                 push    word ptr [0B22]
  1.8D13  FF36200B                 push    word ptr [0B20]
  1.8D17  9A0748518D               call    1:4807
  1.8D1C  83C406                   add     sp, 0006
  1.8D1F  E9B102                   jmp     8FD3

  1.8D22 >E9AE02                   jmp     8FD3
  1.8D25  A15A0B                   mov     ax, [0B5A]
  1.8D28  FF065A0B                 inc     word ptr [0B5A]
  1.8D2C  3D0100                   cmp     ax, 0001
  1.8D2F  0F8D0300                 jnl     8D36
  1.8D33  E99D02                   jmp     8FD3

  1.8D36 >C7065A0B0000             mov     word ptr [0B5A], 0000
  1.8D3C  C706200BB0FF             mov     word ptr [0B20], FFB0
  1.8D42  FF36240B                 push    word ptr [0B24]
  1.8D46  FF36220B                 push    word ptr [0B22]
  1.8D4A  FF36200B                 push    word ptr [0B20]
  1.8D4E  9A07488B8D               call    1:4807
  1.8D53  83C406                   add     sp, 0006
  1.8D56  8B1E460B                 mov     bx, [0B46]
  1.8D5A  D1E3                     shl     bx, 1
  1.8D5C  8B87B407                 mov     ax, [bx+07B4]
  1.8D60  A3320B                   mov     [0B32], ax
  1.8D63  FF06460B                 inc     word ptr [0B46]
  1.8D67  833E320B00               cmp     word ptr [0B32], 0000
  1.8D6C  0F852900                 jne     8D99
  1.8D70  A12E0B                   mov     ax, [0B2E]
  1.8D73  A3200B                   mov     [0B20], ax
  1.8D76  A1300B                   mov     ax, [0B30]
  1.8D79  A3220B                   mov     [0B22], ax
  1.8D7C  C706460B0000             mov     word ptr [0B46], 0000
  1.8D82  6A00                     push    0000
  1.8D84  6A00                     push    0000
  1.8D86  6A6C                     push    006C
  1.8D88  9AC842A88D               call    1:42C8
  1.8D8D  83C406                   add     sp, 0006
  1.8D90  C706C00B9600             mov     word ptr [0BC0], 0096
  1.8D96  E93A02                   jmp     8FD3

  1.8D99 >FF36320B                 push    word ptr [0B32]
  1.8D9D  FF36300B                 push    word ptr [0B30]
  1.8DA1  FF362E0B                 push    word ptr [0B2E]
  1.8DA5  9A8C48038E               call    1:488C
  1.8DAA  83C406                   add     sp, 0006
  1.8DAD  E92302                   jmp     8FD3
  1.8DB0  C706240BA900             mov     word ptr [0B24], 00A9
  1.8DB6  8B1E460B                 mov     bx, [0B46]
  1.8DBA  D1E3                     shl     bx, 1
  1.8DBC  8B87BE07                 mov     ax, [bx+07BE]
  1.8DC0  A3240B                   mov     [0B24], ax
  1.8DC3  FF06460B                 inc     word ptr [0B46]
  1.8DC7  833E240B00               cmp     word ptr [0B24], 0000
  1.8DCC  0F850F00                 jne     8DDF
  1.8DD0  C706240B0300             mov     word ptr [0B24], 0003
  1.8DD6  C706C00B9700             mov     word ptr [0BC0], 0097
  1.8DDC  E9F401                   jmp     8FD3

  1.8DDF >833E240B51               cmp     word ptr [0B24], 0051
  1.8DE4  0F8C2300                 jl      8E0B
  1.8DE8  833E240B53               cmp     word ptr [0B24], 0053
  1.8DED  0F8F1A00                 jg      8E0B
  1.8DF1  FF36240B                 push    word ptr [0B24]
  1.8DF5  A1220B                   mov     ax, [0B22]
  1.8DF8  2D1400                   sub     ax, 0014
  1.8DFB  50                       push    ax
  1.8DFC  FF36200B                 push    word ptr [0B20]
  1.8E00  9A07481A8E               call    1:4807
  1.8E05  83C406                   add     sp, 0006
  1.8E08  E91400                   jmp     8E1F

  1.8E0B >FF36240B                 push    word ptr [0B24]
  1.8E0F  FF36220B                 push    word ptr [0B22]
  1.8E13  FF36200B                 push    word ptr [0B20]
  1.8E17  9A07486C8E               call    1:4807
  1.8E1C  83C406                   add     sp, 0006

  1.8E1F >E9B101                   jmp     8FD3
  1.8E22  A15A0B                   mov     ax, [0B5A]
  1.8E25  FF065A0B                 inc     word ptr [0B5A]
  1.8E29  3D0100                   cmp     ax, 0001
  1.8E2C  0F8D0300                 jnl     8E33
  1.8E30  E9A001                   jmp     8FD3

  1.8E33 >C7065A0B0000             mov     word ptr [0B5A], 0000
  1.8E39  A1CA05                   mov     ax, [05CA]
  1.8E3C  8BC8                     mov     cx, ax
  1.8E3E  D1E0                     shl     ax, 1
  1.8E40  03C1                     add     ax, cx
  1.8E42  D1E0                     shl     ax, 1
  1.8E44  2906200B                 sub     [0B20], ax
  1.8E48  833E240B02               cmp     word ptr [0B24], 0002
  1.8E4D  0F850600                 jne     8E57
  1.8E51  B80300                   mov     ax, 0003
  1.8E54  E90300                   jmp     8E5A

  1.8E57 >B80200                   mov     ax, 0002

  1.8E5A >A3240B                   mov     [0B24], ax
  1.8E5D  FF36240B                 push    word ptr [0B24]
  1.8E61  FF36220B                 push    word ptr [0B22]
  1.8E65  FF36200B                 push    word ptr [0B20]
  1.8E69  9A07487D8E               call    1:4807
  1.8E6E  83C406                   add     sp, 0006
  1.8E71  833E200BD8               cmp     word ptr [0B20], FFD8
  1.8E76  0F8D0E00                 jnl     8E88
  1.8E7A  9A962A2388               call    1:2A96
  1.8E7F  C706C00B0100             mov     word ptr [0BC0], 0001
  1.8E85  E94B01                   jmp     8FD3

  1.8E88 >E94801                   jmp     8FD3
  1.8E8B  E94501                   jmp     8FD3

  1.8E8E >3D9A00                   cmp     ax, 009A
  1.8E91  0F873E01                 ja      8FD3
  1.8E95  D1E0                     shl     ax, 1
  1.8E97  93                       xchg    ax, bx
  1.8E98  2EFFA79D8E               jmp     near ptr cs:[bx-7163]
  1.8E9D  394D5F                   cmp     [di+5F], cx
  1.8EA0  4D                       dec     bp
  1.8EA1  8A4EF8                   mov     cl, byte ptr [bp-08]
  1.8EA4  4F                       dec     di
  1.8EA5  7350                     jnb     8EF7
  1.8EA7  B8501F                   mov     ax, 1F50
  1.8EAA  51                       push    cx
  1.8EAB  385191                   cmp     byte ptr [bx+di-6F], dl
  1.8EAE  51                       push    cx
  1.8EAF  F4                       hlt    
  1.8EB0  52                       push    dx
  1.8EB1  1153C7                   adc     [bp+di-39], dx
  1.8EB4  53                       push    bx
  1.8EB5  2C54                     sub     al, 54
  1.8EB7  AF                       scasw  
  1.8EB8  55                       push    bp
  1.8EB9  0456                     add     al, 56
  1.8EBB  94                       xchg    ax, sp
  1.8EBC  56                       push    si
  1.8EBD  E95661                   jmp     F016
  1.8EC0  57                       push    di
  1.8EC1  8457E6                   test    byte ptr [bx-1A], dl
  1.8EC4  57                       push    di
  1.8EC5  2F                       das    
  1.8EC6  58                       pop     ax
  1.8EC7  AD                       lodsw  
  1.8EC8  58                       pop     ax
  1.8EC9  D7                       xlat   
  1.8ECA  58                       pop     ax
  1.8ECB  3D5961                   cmp     ax, 6159
  1.8ECE  59                       pop     cx
  1.8ECF  BB5954                   mov     bx, 5459
  1.8ED2  5A                       pop     dx
  1.8ED3  98                       cbw    
  1.8ED4  5A                       pop     dx
  1.8ED5  B95A0C                   mov     cx, 0C5A
  1.8ED8  5B                       pop     bx
  1.8ED9  5F                       pop     di
  1.8EDA  5B                       pop     bx
  1.8EDB  BE5BAF                   mov     si, AF5B
  1.8EDE  5C                       pop     sp
  1.8EDF  F75C21                   neg     word ptr [si+21]
  1.8EE2  5D                       pop     bp
  1.8EE3  E35D                     jcxz    8F42
  1.8EE5  D38F235E                 ror     word ptr [bx+5E23], cl
  1.8EE9  93                       xchg    ax, bx

  1.8EEA >5E                       pop     si
  1.8EEB  E75E                     out     ax, 5E
  1.8EED  95                       xchg    ax, bp

  1.8EEE >5F                       pop     di
  1.8EEF  E95F53                   jmp     E251
  1.8EF2  60                       pusha  
  1.8EF3  9D                       popf   
  1.8EF4  60                       pusha  

  1.8EF5 >B760                     mov     bh, 60

  1.8EF7 >12612C                   adc     ah, byte ptr [bx+di+2C]

  1.8EFA >61                       popa   
  1.8EFB  876193                   xchg    sp, [bx+di-6D]
  1.8EFE  61                       popa   
  1.8EFF  056211                   add     ax, 1162
  1.8F02  626C62                   bound   bp, [si+62]
  1.8F05  7862                     js      8F69
  1.8F07  DF624D                   fbld    tbyte ptr [bp+si+4D]
  1.8F0A  63D3                     arpl    bx, dx

  1.8F0B >D38FA564                 ror     word ptr [bx+64A5], cl

  1.8F0D >A5                       movsw  
  1.8F0E  64B164                   mov     cl, 64
  1.8F11  316571                   xor     [di+71], sp

  1.8F13 >7165                     jno     8F7A
  1.8F15  ED                       in      ax, dx
  1.8F16  6551                     push    cx
  1.8F18  66D268E1                 shr     byte ptr [bx+si-1F], cl

  1.8F19 >D268E1                   shr     byte ptr [bx+si-1F], cl

  1.8F1C >68D38F                   push    8FD3
  1.8F1F  BB66E4                   mov     bx, E466
  1.8F22  667767                   ja      8F8C
  1.8F25  47                       inc     di
  1.8F26  68F56A                   push    6AF5

  1.8F27 >F5                       cmc    
  1.8F28  6A07                     push    0007
  1.8F2A  6B236C                   imul    sp, [bp+di], 006C
  1.8F2D  676C                     insb   
  1.8F2F  AB                       stosw  

  1.8F30 >6C                       insb   
  1.8F31  B76C                     mov     bh, 6C
  1.8F33  3C69                     cmp     al, 69
  1.8F35  8E69C8                   mov     gs, [bx+di-38]

  1.8F38 >692B6A61                 imul    bp, [bp+di], 616A

  1.8F3C >6A87                     push    FF87
  1.8F3E  6A12                     push    0012
  1.8F40  6D                       insw   

  1.8F41 >356DD3                   xor     ax, D36D

  1.8F42 >6D                       insw   
  1.8F43  D38F676D                 ror     word ptr [bx+6D67], cl

  1.8F44 >8F676D                   pop     [bx+6D]
  1.8F47  706D                     jo      8FB6
  1.8F49  BA6EB2                   mov     dx, B26E
  1.8F4C  6F                       outsw  
  1.8F4D  EF                       out     ax, dx
  1.8F4E  6F                       outsw  
  1.8F4F  EC                       in      al, dx
  1.8F50  704D                     jo      8F9F
  1.8F52  719A                     jno     8EEE
  1.8F54  71E2                     jno     8F38

  1.8F56 >717B                     jno     8FD3
  1.8F58  731A                     jnb     8F74
  1.8F5A  7440                     je      8F9C
  1.8F5C  7469                     je      8FC7
  1.8F5E  748A                     je      8EEA

  1.8F60 >74AB                     je      8F0D
  1.8F62  74CC                     je      8F30

  1.8F64 >74D6                     je      8F3C
  1.8F66  778D                     ja      8EF5
  1.8F68  78F6                     js      8F60

  1.8F69 >F6782B                   idiv    byte ptr [bx+si+2B]
  1.8F6C  798C                     jns     8EFA
  1.8F6E  799B                     jns     8F0B
  1.8F70  79AA                     jns     8F1C
  1.8F72  7967                     jns     8FDB

  1.8F74 >7AE0                     jp      8F56
  1.8F76  7A1A                     jp      8F92
  1.8F78  7B5E                     jnp     8FD8

  1.8F7A >7B97                     jnp     8F13
  1.8F7C  7BE6                     jnp     8F64
  1.8F7E  7B99                     jnp     8F19
  1.8F80  7CC2                     jl      8F44
  1.8F82  7C13                     jl      8F97
  1.8F84  7D57                     jnl     8FDD
  1.8F86  7D9F                     jnl     8F27
  1.8F88  7D05                     jnl     8F8F
  1.8F8A  7E58                     jle     8FE4

  1.8F8C >7E53                     jle     8FE1
  1.8F8E  7FB1                     jg      8F41

  1.8F8F >B17F                     mov     cl, 7F
  1.8F91  5B                       pop     bx

  1.8F92 >80498193                 or      byte ptr [bx+di-7F], 93
  1.8F96  81CB8105                 or      bx, 0581

  1.8F97 >CB                       retf   
  1.8F98  810582B2                 add     word ptr [di], B282

  1.8F9C >824A8392                 or      byte ptr [bp+si-7D], 92

  1.8F9F >92                       xchg    ax, dx
  1.8FA0  83F883                   cmp     ax, FF83
  1.8FA3  4B                       dec     bx
  1.8FA4  8412                     test    byte ptr [bp+si], dl
  1.8FA6  85A0857C                 test    [bx+si+7C85], sp
  1.8FAA  86EC                     xchg    ch, ah
  1.8FAC  8635                     xchg    dh, byte ptr [di]
  1.8FAE  879A8709                 xchg    bx, [bp+si+0987]
  1.8FB2  88808847                 mov     byte ptr [bx+si+4788], al

  1.8FB6 >89D3                     mov     bx, dx
  1.8FB8  8F98891E                 pop     [bx+si+1E89]
  1.8FBC  8A978A3D                 mov     dl, byte ptr [bx+3D8A]
  1.8FC0  8BD3                     mov     dx, bx
  1.8FC2  8F8C8B0E                 pop     [si+0E8B]
  1.8FC6  8C25                     mov     [di], fs

  1.8FC7 >258DB0                   and     ax, B08D
  1.8FCA  8D22                     lea     sp, [bp+si]
  1.8FCC  8ED3                     mov     ss, bx
  1.8FCE  8F6D50                   pop     [di+50]
  1.8FD1  7050                     jo      9023

  1.8FD3 >5E                       pop     si
  1.8FD4  5F                       pop     di
  1.8FD5  C9                       leave  
  1.8FD6  CB                       retf   
  1.8FD7  55                       push    bp

  1.8FD8 >8BEC                     mov     bp, sp
  1.8FDA  B80000                   mov     ax, 0000

  1.8FDB >0000                     add     byte ptr [bx+si], al

  1.8FDD >9A12075390               call    1:0712

  1.8FE1 >90                       nop    
  1.8FE2  57                       push    di
  1.8FE3  56                       push    si

  1.8FE4 >8B4606                   mov     ax, [bp+06]
  1.8FE7  E93F00                   jmp     9029

  1.8FEA >C706C00B0100             mov     word ptr [0BC0], 0001

  1.8FED >0B01                     or      ax, [bx+di]
  1.8FEF  00833E1C                 add     byte ptr [bp+di+1C3E], al
  1.8FF3  0B00                     or      ax, [bx+si]
  1.8FF5  0F840600                 je      8FFF
  1.8FF9  C706C00B6100             mov     word ptr [0BC0], 0061

  1.8FFF >E94400                   jmp     9046

  1.9002 >C706C00B5100             mov     word ptr [0BC0], 0051
  1.9008  E93B00                   jmp     9046

  1.900B >C706C00B6100             mov     word ptr [0BC0], 0061
  1.9011  E93200                   jmp     9046

  1.9014 >C706742D7100             mov     word ptr [2D74], 0071
  1.901A  E92900                   jmp     9046

  1.901D >C706C00B3800             mov     word ptr [0BC0], 0038

  1.9023 >E92000                   jmp     9046
  1.9026  E91D00                   jmp     9046

  1.9029 >0BC0                     or      ax, ax
  1.902B  0F84BBFF                 je      8FEA
  1.902F  48                       dec     ax
  1.9030  0F84CEFF                 je      9002
  1.9034  48                       dec     ax
  1.9035  0F84D2FF                 je      900B
  1.9039  48                       dec     ax
  1.903A  0F84D6FF                 je      9014
  1.903E  48                       dec     ax
  1.903F  0F84DAFF                 je      901D
  1.9043  E90000                   jmp     9046

  1.9046 >5E                       pop     si
  1.9047  5F                       pop     di
  1.9048  C9                       leave  
  1.9049  CB                       retf   
  1.904A  55                       push    bp
  1.904B  8BEC                     mov     bp, sp
  1.904D  B80000                   mov     ax, 0000
  1.9050  9A12076090               call    1:0712
  1.9055  57                       push    di
  1.9056  56                       push    si
  1.9057  C706922D0000             mov     word ptr [2D92], 0000
  1.905D  9A8E426590               call    1:428E
  1.9062  9A962AFD8B               call    1:2A96
  1.9067  8B4606                   mov     ax, [bp+06]
  1.906A  E91101                   jmp     917E
  1.906D  C706C00B0100             mov     word ptr [0BC0], 0001
  1.9073  E95301                   jmp     91C9
  1.9076  C706C00B0700             mov     word ptr [0BC0], 0007
  1.907C  E94A01                   jmp     91C9
  1.907F  C706C00B0B00             mov     word ptr [0BC0], 000B
  1.9085  E94101                   jmp     91C9
  1.9088  C706C00B0D00             mov     word ptr [0BC0], 000D
  1.908E  E93801                   jmp     91C9
  1.9091  C706C00B0F00             mov     word ptr [0BC0], 000F
  1.9097  E92F01                   jmp     91C9
  1.909A  C706C00B1100             mov     word ptr [0BC0], 0011
  1.90A0  E92601                   jmp     91C9
  1.90A3  C706C00B1400             mov     word ptr [0BC0], 0014
  1.90A9  E91D01                   jmp     91C9
  1.90AC  C706C00B1800             mov     word ptr [0BC0], 0018
  1.90B2  E91401                   jmp     91C9
  1.90B5  C706C00B1E00             mov     word ptr [0BC0], 001E
  1.90BB  E90B01                   jmp     91C9
  1.90BE  C706C00B2300             mov     word ptr [0BC0], 0023
  1.90C4  E90201                   jmp     91C9
  1.90C7  C706C00B2B00             mov     word ptr [0BC0], 002B
  1.90CD  E9F900                   jmp     91C9
  1.90D0  C706C00B2D00             mov     word ptr [0BC0], 002D
  1.90D6  E9F000                   jmp     91C9
  1.90D9  C706C00B3100             mov     word ptr [0BC0], 0031
  1.90DF  E9E700                   jmp     91C9
  1.90E2  C706C00B3300             mov     word ptr [0BC0], 0033
  1.90E8  E9DE00                   jmp     91C9
  1.90EB  C706C00B3500             mov     word ptr [0BC0], 0035
  1.90F1  E9D500                   jmp     91C9
  1.90F4  C706C00B3A00             mov     word ptr [0BC0], 003A
  1.90FA  E9CC00                   jmp     91C9
  1.90FD  C706C00B2F00             mov     word ptr [0BC0], 002F
  1.9103  E9C300                   jmp     91C9
  1.9106  C706C00B9300             mov     word ptr [0BC0], 0093
  1.910C  E9BA00                   jmp     91C9
  1.910F  C706C00B7400             mov     word ptr [0BC0], 0074
  1.9115  E9B100                   jmp     91C9
  1.9118  C706C00B7900             mov     word ptr [0BC0], 0079
  1.911E  E9A800                   jmp     91C9

  1.9121 >C706C00B7E00             mov     word ptr [0BC0], 007E

  1.9123 >C00B7E                   ror     byte ptr [bp+di], 7E
  1.9126  00E9                     add     cl, ch
  1.9128  9F                       lahf   
  1.9129  00C7                     add     bh, al
  1.912B  06                       push    es
  1.912C  C00B80                   ror     byte ptr [bp+di], 80
  1.912F  00E9                     add     cl, ch
  1.9131  96                       xchg    ax, si
  1.9132  00C7                     add     bh, al
  1.9134  06                       push    es
  1.9135  C00B87                   ror     byte ptr [bp+di], 87
  1.9138  00E9                     add     cl, ch

  1.9139 >E98D00                   jmp     91C9

  1.913B >00C7                     add     bh, al
  1.913D  06                       push    es
  1.913E  C00B8E                   ror     byte ptr [bp+di], 8E
  1.9141  00E9                     add     cl, ch
  1.9143  8400                     test    byte ptr [bx+si], al
  1.9145  C706C00B4100             mov     word ptr [0BC0], 0041
  1.914B  E97B00                   jmp     91C9
  1.914E  C706C00B3E00             mov     word ptr [0BC0], 003E
  1.9154  E97200                   jmp     91C9
  1.9157  C706C00B4B00             mov     word ptr [0BC0], 004B
  1.915D  E96900                   jmp     91C9
  1.9160  C706C00B6000             mov     word ptr [0BC0], 0060
  1.9166  E96000                   jmp     91C9
  1.9169  C706C00B0900             mov     word ptr [0BC0], 0009
  1.916F  E95700                   jmp     91C9
  1.9172  C706C00B4500             mov     word ptr [0BC0], 0045
  1.9178  E94E00                   jmp     91C9
  1.917B  E94B00                   jmp     91C9

  1.917E >3D1D00                   cmp     ax, 001D
  1.9181  0F874400                 ja      91C9
  1.9185  D1E0                     shl     ax, 1
  1.9187  93                       xchg    ax, bx
  1.9188  2EFFA78D91               jmp     near ptr cs:[bx-6E73]
  1.918D  6D                       insw   
  1.918E  90                       nop    
  1.918F  7690                     jbe     9121
  1.9191  7F90                     jg      9123
  1.9193  88909190                 mov     byte ptr [bx+si-6F6F], dl
  1.9197  9A90A390AC               call    AC90:A390
  1.919C  90                       nop    
  1.919D  B590                     mov     ch, 90
  1.919F  BE90C7                   mov     si, C790
  1.91A2  90                       nop    
  1.91A3  D090D990                 rcl     byte ptr [bx+si-6F27], 1
  1.91A7  E290                     loop    9139
  1.91A9  EB90                     jmp     913B
  1.91AB  F4                       hlt    
  1.91AC  90                       nop    
  1.91AD  FD                       std    
  1.91AE  90                       nop    
  1.91AF  06                       push    es
  1.91B0  91                       xchg    ax, cx
  1.91B1  0F9118                   setno   byte ptr [bx+si]
  1.91B4  91                       xchg    ax, cx
  1.91B5  21912A91                 and     [bx+di-6ED6], dx
  1.91B9  33913C91                 xor     dx, [bx+di-6EC4]
  1.91BD  45                       inc     bp
  1.91BE  91                       xchg    ax, cx
  1.91BF  4E                       dec     si
  1.91C0  91                       xchg    ax, cx
  1.91C1  57                       push    di
  1.91C2  91                       xchg    ax, cx
  1.91C3  60                       pusha  
  1.91C4  91                       xchg    ax, cx
  1.91C5  699172915E5F             imul    dx, [bx+di-6E8E], 5F5E

  1.91C9 >5E                       pop     si
  1.91CA  5F                       pop     di
  1.91CB  C9                       leave  
  1.91CC  CB                       retf   
  1.91CD  55                       push    bp
  1.91CE  8BEC                     mov     bp, sp
  1.91D0  B80000                   mov     ax, 0000
  1.91D3  9A1207F791               call    1:0712
  1.91D8  57                       push    di
  1.91D9  56                       push    si
  1.91DA  8B4606                   mov     ax, [bp+06]
  1.91DD  0106200B                 add     [0B20], ax
  1.91E1  8B4608                   mov     ax, [bp+08]
  1.91E4  0106220B                 add     [0B22], ax
  1.91E8  FF36240B                 push    word ptr [0B24]
  1.91EC  FF36220B                 push    word ptr [0B22]
  1.91F0  FF36200B                 push    word ptr [0B20]
  1.91F4  9A0748E08F               call    1:4807
  1.91F9  83C406                   add     sp, 0006
  1.91FC  5E                       pop     si
  1.91FD  5F                       pop     di
  1.91FE  C9                       leave  
  1.91FF  CB                       retf   
  1.9200  55                       push    bp
  1.9201  8BEC                     mov     bp, sp
  1.9203  B80200                   mov     ax, 0002
  1.9206  9A12071893               call    1:0712
  1.920B  57                       push    di
  1.920C  56                       push    si
  1.920D  FF7606                   push    word ptr [bp+06]
  1.9210  9A9A940000               call    USER.GETDC
  1.9215  8946FE                   mov     [bp-02], ax
  1.9218  FF76FE                   push    word ptr [bp-02]
  1.921B  6A64                     push    0064
  1.921D  6A64                     push    0064
  1.921F  9A3B920000               call    GDI.CREATECOMPATIBLEBITMAP
  1.9224  A3700B                   mov     [0B70], ax
  1.9227  833E700B00               cmp     word ptr [0B70], 0000
  1.922C  0F850300                 jne     9233
  1.9230  E9C700                   jmp     92FA

  1.9233 >FF76FE                   push    word ptr [bp-02]
  1.9236  6A64                     push    0064
  1.9238  6A64                     push    0064
  1.923A  9A56920000               call    GDI.CREATECOMPATIBLEBITMAP
  1.923F  A3720B                   mov     [0B72], ax
  1.9242  833E720B00               cmp     word ptr [0B72], 0000
  1.9247  0F850300                 jne     924E
  1.924B  E9AC00                   jmp     92FA

  1.924E >FF76FE                   push    word ptr [bp-02]
  1.9251  6A64                     push    0064
  1.9253  6A64                     push    0064
  1.9255  9A71920000               call    GDI.CREATECOMPATIBLEBITMAP
  1.925A  A3740B                   mov     [0B74], ax
  1.925D  833E740B00               cmp     word ptr [0B74], 0000
  1.9262  0F850300                 jne     9269
  1.9266  E99100                   jmp     92FA

  1.9269 >FF76FE                   push    word ptr [bp-02]
  1.926C  6A28                     push    0028
  1.926E  6A28                     push    0028
  1.9270  9A8C920000               call    GDI.CREATECOMPATIBLEBITMAP
  1.9275  A37A0B                   mov     [0B7A], ax
  1.9278  833E7A0B00               cmp     word ptr [0B7A], 0000
  1.927D  0F850300                 jne     9284
  1.9281  E97600                   jmp     92FA

  1.9284 >FF76FE                   push    word ptr [bp-02]
  1.9287  6A28                     push    0028
  1.9289  6A28                     push    0028
  1.928B  9AF0370000               call    GDI.CREATECOMPATIBLEBITMAP
  1.9290  A37C0B                   mov     [0B7C], ax
  1.9293  833E7C0B00               cmp     word ptr [0B7C], 0000
  1.9298  0F850300                 jne     929F
  1.929C  E95B00                   jmp     92FA

  1.929F >C7066C2D0000             mov     word ptr [2D6C], 0000
  1.92A5  C7066E2D0000             mov     word ptr [2D6E], 0000
  1.92AB  6A00                     push    0000
  1.92AD  9AB8920000               call    USER.GETSYSTEMMETRICS
  1.92B2  A3702D                   mov     [2D70], ax
  1.92B5  6A01                     push    0001
  1.92B7  9AE2300000               call    USER.GETSYSTEMMETRICS
  1.92BC  A3722D                   mov     [2D72], ax
  1.92BF  FF7606                   push    word ptr [bp+06]
  1.92C2  FF76FE                   push    word ptr [bp-02]
  1.92C5  9A01930000               call    USER.RELEASEDC
  1.92CA  C706662D0000             mov     word ptr [2D66], 0000
  1.92D0  C7067C2D0000             mov     word ptr [2D7C], 0000
  1.92D6  C706762D0000             mov     word ptr [2D76], 0000
  1.92DC  C706B00B0000             mov     word ptr [0BB0], 0000
  1.92E2  C706B20B0000             mov     word ptr [0BB2], 0000
  1.92E8  C706B40B0000             mov     word ptr [0BB4], 0000
  1.92EE  C706B60B0000             mov     word ptr [0BB6], 0000
  1.92F4  B80100                   mov     ax, 0001
  1.92F7  E91100                   jmp     930B

  1.92FA >FF7606                   push    word ptr [bp+06]
  1.92FD  FF76FE                   push    word ptr [bp-02]
  1.9300  9A84390000               call    USER.RELEASEDC
  1.9305  B80000                   mov     ax, 0000
  1.9308  E90000                   jmp     930B

  1.930B >5E                       pop     si
  1.930C  5F                       pop     di
  1.930D  C9                       leave  
  1.930E  CB                       retf   
  1.930F  55                       push    bp
  1.9310  8BEC                     mov     bp, sp
  1.9312  B80000                   mov     ax, 0000
  1.9315  9A12075993               call    1:0712
  1.931A  57                       push    di
  1.931B  56                       push    si
  1.931C  FF367C0B                 push    word ptr [0B7C]
  1.9320  9A2A930000               call    GDI.DELETEOBJECT
  1.9325  FF367A0B                 push    word ptr [0B7A]
  1.9329  9A33930000               call    GDI.DELETEOBJECT
  1.932E  FF36700B                 push    word ptr [0B70]
  1.9332  9A3C930000               call    GDI.DELETEOBJECT
  1.9337  FF36720B                 push    word ptr [0B72]
  1.933B  9A45930000               call    GDI.DELETEOBJECT
  1.9340  FF36740B                 push    word ptr [0B74]
  1.9344  9A23390000               call    GDI.DELETEOBJECT
  1.9349  E90000                   jmp     934C

  1.934C >5E                       pop     si
  1.934D  5F                       pop     di
  1.934E  C9                       leave  
  1.934F  CB                       retf   
  1.9350  55                       push    bp
  1.9351  8BEC                     mov     bp, sp
  1.9353  B80000                   mov     ax, 0000
  1.9356  9A1207E893               call    1:0712
  1.935B  57                       push    di
  1.935C  56                       push    si
  1.935D  8B4606                   mov     ax, [bp+06]
  1.9360  A3980B                   mov     [0B98], ax
  1.9363  8B4608                   mov     ax, [bp+08]
  1.9366  A39A0B                   mov     [0B9A], ax
  1.9369  8B5E0A                   mov     bx, [bp+0A]
  1.936C  8BC3                     mov     ax, bx
  1.936E  D1E3                     shl     bx, 1
  1.9370  03D8                     add     bx, ax
  1.9372  C1E302                   shl     bx, 02
  1.9375  8B87C20B                 mov     ax, [bx+0BC2]
  1.9379  A3760B                   mov     [0B76], ax
  1.937C  8B5E0A                   mov     bx, [bp+0A]
  1.937F  8BC3                     mov     ax, bx
  1.9381  D1E3                     shl     bx, 1
  1.9383  03D8                     add     bx, ax
  1.9385  C1E302                   shl     bx, 02
  1.9388  8B87C40B                 mov     ax, [bx+0BC4]
  1.938C  A3780B                   mov     [0B78], ax
  1.938F  8B5E0A                   mov     bx, [bp+0A]
  1.9392  8BC3                     mov     ax, bx
  1.9394  D1E3                     shl     bx, 1
  1.9396  03D8                     add     bx, ax
  1.9398  C1E302                   shl     bx, 02
  1.939B  8B87C60B                 mov     ax, [bx+0BC6]
  1.939F  A37E0B                   mov     [0B7E], ax
  1.93A2  8B5E0A                   mov     bx, [bp+0A]
  1.93A5  8BC3                     mov     ax, bx
  1.93A7  D1E3                     shl     bx, 1
  1.93A9  03D8                     add     bx, ax
  1.93AB  C1E302                   shl     bx, 02
  1.93AE  8B87C80B                 mov     ax, [bx+0BC8]
  1.93B2  A3800B                   mov     [0B80], ax
  1.93B5  8B5E0A                   mov     bx, [bp+0A]
  1.93B8  8BC3                     mov     ax, bx
  1.93BA  D1E3                     shl     bx, 1
  1.93BC  03D8                     add     bx, ax
  1.93BE  C1E302                   shl     bx, 02
  1.93C1  8B87CA0B                 mov     ax, [bx+0BCA]
  1.93C5  A39C0B                   mov     [0B9C], ax
  1.93C8  8B5E0A                   mov     bx, [bp+0A]
  1.93CB  8BC3                     mov     ax, bx
  1.93CD  D1E3                     shl     bx, 1
  1.93CF  03D8                     add     bx, ax
  1.93D1  C1E302                   shl     bx, 02
  1.93D4  8B87CC0B                 mov     ax, [bx+0BCC]
  1.93D8  A39E0B                   mov     [0B9E], ax
  1.93DB  5E                       pop     si
  1.93DC  5F                       pop     di
  1.93DD  C9                       leave  
  1.93DE  CB                       retf   
  1.93DF  55                       push    bp
  1.93E0  8BEC                     mov     bp, sp
  1.93E2  B80000                   mov     ax, 0000
  1.93E5  9A12074194               call    1:0712
  1.93EA  57                       push    di
  1.93EB  56                       push    si
  1.93EC  833E762D00               cmp     word ptr [2D76], 0000
  1.93F1  0F840300                 je      93F8
  1.93F5  E93C00                   jmp     9434

  1.93F8 >C706B00B0000             mov     word ptr [0BB0], 0000
  1.93FE  C706B20B0000             mov     word ptr [0BB2], 0000
  1.9404  C706B40B0000             mov     word ptr [0BB4], 0000
  1.940A  C706B60B0000             mov     word ptr [0BB6], 0000
  1.9410  FF7606                   push    word ptr [bp+06]
  1.9413  6A00                     push    0000
  1.9415  6A00                     push    0000
  1.9417  6A00                     push    0000
  1.9419  6A00                     push    0000
  1.941B  6A01                     push    0001
  1.941D  9ABC390000               call    USER.MOVEWINDOW
  1.9422  C706920B0100             mov     word ptr [0B92], 0001
  1.9428  C706DA230100             mov     word ptr [23DA], 0001
  1.942E  C706960B0000             mov     word ptr [0B96], 0000

  1.9434 >5E                       pop     si
  1.9435  5F                       pop     di
  1.9436  C9                       leave  
  1.9437  CB                       retf   
  1.9438  55                       push    bp
  1.9439  8BEC                     mov     bp, sp
  1.943B  B81E00                   mov     ax, 001E
  1.943E  9A1207D691               call    1:0712
  1.9443  57                       push    di
  1.9444  56                       push    si
  1.9445  833E900B00               cmp     word ptr [0B90], 0000
  1.944A  0F840300                 je      9451
  1.944E  E9F405                   jmp     9A45

  1.9451 >A1980B                   mov     ax, [0B98]
  1.9454  3906B00B                 cmp     [0BB0], ax
  1.9458  0F853600                 jne     9492
  1.945C  A19A0B                   mov     ax, [0B9A]
  1.945F  3906B20B                 cmp     [0BB2], ax
  1.9463  0F852B00                 jne     9492
  1.9467  A1760B                   mov     ax, [0B76]
  1.946A  3906960B                 cmp     [0B96], ax
  1.946E  0F852000                 jne     9492
  1.9472  A17E0B                   mov     ax, [0B7E]
  1.9475  3906860B                 cmp     [0B86], ax
  1.9479  0F851500                 jne     9492
  1.947D  833E662D00               cmp     word ptr [2D66], 0000
  1.9482  0F850C00                 jne     9492
  1.9486  833E7C2D00               cmp     word ptr [2D7C], 0000
  1.948B  0F850300                 jne     9492
  1.948F  E9B305                   jmp     9A45

  1.9492 >83368E0B01               xor     word ptr [0B8E], 0001
  1.9497  6A00                     push    0000
  1.9499  9A3A370000               call    USER.GETDC
  1.949E  8946FE                   mov     [bp-02], ax
  1.94A1  FF76FE                   push    word ptr [bp-02]
  1.94A4  FF366A2D                 push    word ptr [2D6A]
  1.94A8  6A00                     push    0000
  1.94AA  9ACF940000               call    USER.SELECTPALETTE
  1.94AF  FF76FE                   push    word ptr [bp-02]
  1.94B2  9ABE940000               call    GDI.CREATECOMPATIBLEDC
  1.94B7  8946FC                   mov     [bp-04], ax
  1.94BA  FF76FE                   push    word ptr [bp-02]
  1.94BD  9A32380000               call    GDI.CREATECOMPATIBLEDC
  1.94C2  8946FA                   mov     [bp-06], ax
  1.94C5  FF76FA                   push    word ptr [bp-06]
  1.94C8  FF366A2D                 push    word ptr [2D6A]
  1.94CC  6A00                     push    0000
  1.94CE  9ADD940000               call    USER.SELECTPALETTE
  1.94D3  FF76FC                   push    word ptr [bp-04]
  1.94D6  FF366A2D                 push    word ptr [2D6A]
  1.94DA  6A00                     push    0000
  1.94DC  9A4B370000               call    USER.SELECTPALETTE
  1.94E1  A1B00B                   mov     ax, [0BB0]
  1.94E4  3B06980B                 cmp     ax, [0B98]
  1.94E8  0F8D0300                 jnl     94EF
  1.94EC  A1980B                   mov     ax, [0B98]

  1.94EF >8946EA                   mov     [bp-16], ax
  1.94F2  A1B20B                   mov     ax, [0BB2]
  1.94F5  3B069A0B                 cmp     ax, [0B9A]
  1.94F9  0F8D0300                 jnl     9500
  1.94FD  A19A0B                   mov     ax, [0B9A]

  1.9500 >8946EC                   mov     [bp-14], ax
  1.9503  A1B40B                   mov     ax, [0BB4]
  1.9506  0306B00B                 add     ax, [0BB0]
  1.950A  8B0E9C0B                 mov     cx, [0B9C]
  1.950E  030E980B                 add     cx, [0B98]
  1.9512  3BC1                     cmp     ax, cx
  1.9514  0F8E0200                 jle     951A
  1.9518  8BC1                     mov     ax, cx

  1.951A >2B46EA                   sub     ax, [bp-16]
  1.951D  8946EE                   mov     [bp-12], ax
  1.9520  A1B20B                   mov     ax, [0BB2]
  1.9523  0306B60B                 add     ax, [0BB6]
  1.9527  8B0E9A0B                 mov     cx, [0B9A]
  1.952B  030E9E0B                 add     cx, [0B9E]
  1.952F  3BC1                     cmp     ax, cx
  1.9531  0F8E0200                 jle     9537
  1.9535  8BC1                     mov     ax, cx

  1.9537 >2B46EC                   sub     ax, [bp-14]
  1.953A  8946F0                   mov     [bp-10], ax
  1.953D  837EEE00                 cmp     word ptr [bp-12], 0000
  1.9541  0F8E0800                 jle     954D
  1.9545  837EF000                 cmp     word ptr [bp-10], 0000
  1.9549  0F8F6600                 jg      95B3

  1.954D >C706B80B0100             mov     word ptr [0BB8], 0001
  1.9553  833E920B00               cmp     word ptr [0B92], 0000
  1.9558  0F840600                 je      9562
  1.955C  C706920B0000             mov     word ptr [0B92], 0000

  1.9562 >A1980B                   mov     ax, [0B98]
  1.9565  A3A00B                   mov     [0BA0], ax
  1.9568  A19A0B                   mov     ax, [0B9A]
  1.956B  A3A20B                   mov     [0BA2], ax
  1.956E  A19C0B                   mov     ax, [0B9C]
  1.9571  A3A40B                   mov     [0BA4], ax
  1.9574  A19E0B                   mov     ax, [0B9E]
  1.9577  A3A60B                   mov     [0BA6], ax
  1.957A  FF76FC                   push    word ptr [bp-04]
  1.957D  8B1E8E0B                 mov     bx, [0B8E]
  1.9581  D1E3                     shl     bx, 1
  1.9583  FFB7700B                 push    word ptr [bx+0B70]
  1.9587  9A41380000               call    GDI.SELECTOBJECT
  1.958C  FF76FC                   push    word ptr [bp-04]
  1.958F  6A00                     push    0000
  1.9591  6A00                     push    0000
  1.9593  FF36A40B                 push    word ptr [0BA4]
  1.9597  FF36A60B                 push    word ptr [0BA6]
  1.959B  FF76FE                   push    word ptr [bp-02]
  1.959E  FF36A00B                 push    word ptr [0BA0]
  1.95A2  FF36A20B                 push    word ptr [0BA2]
  1.95A6  68CC00                   push    00CC
  1.95A9  6A20                     push    0020
  1.95AB  9A5F380000               call    GDI.BITBLT
  1.95B0  E99001                   jmp     9743

  1.95B3 >C706B80B0000             mov     word ptr [0BB8], 0000
  1.95B9  A1B00B                   mov     ax, [0BB0]
  1.95BC  3B06980B                 cmp     ax, [0B98]
  1.95C0  0F8E0300                 jle     95C7
  1.95C4  A1980B                   mov     ax, [0B98]

  1.95C7 >A3A00B                   mov     [0BA0], ax
  1.95CA  A1B20B                   mov     ax, [0BB2]
  1.95CD  3B069A0B                 cmp     ax, [0B9A]
  1.95D1  0F8E0300                 jle     95D8
  1.95D5  A19A0B                   mov     ax, [0B9A]

  1.95D8 >A3A20B                   mov     [0BA2], ax
  1.95DB  A1B40B                   mov     ax, [0BB4]
  1.95DE  0306B00B                 add     ax, [0BB0]
  1.95E2  8B0E9C0B                 mov     cx, [0B9C]
  1.95E6  030E980B                 add     cx, [0B98]
  1.95EA  3BC1                     cmp     ax, cx
  1.95EC  0F8D0200                 jnl     95F2
  1.95F0  8BC1                     mov     ax, cx

  1.95F2 >2B06A00B                 sub     ax, [0BA0]
  1.95F6  A3A40B                   mov     [0BA4], ax
  1.95F9  A1B20B                   mov     ax, [0BB2]
  1.95FC  0306B60B                 add     ax, [0BB6]
  1.9600  8B0E9A0B                 mov     cx, [0B9A]
  1.9604  030E9E0B                 add     cx, [0B9E]
  1.9608  3BC1                     cmp     ax, cx
  1.960A  0F8D0200                 jnl     9610
  1.960E  8BC1                     mov     ax, cx

  1.9610 >2B06A20B                 sub     ax, [0BA2]
  1.9614  A3A60B                   mov     [0BA6], ax
  1.9617  FF76FC                   push    word ptr [bp-04]
  1.961A  8B1E8E0B                 mov     bx, [0B8E]
  1.961E  D1E3                     shl     bx, 1
  1.9620  FFB7700B                 push    word ptr [bx+0B70]
  1.9624  9A1D970000               call    GDI.SELECTOBJECT
  1.9629  FF76FC                   push    word ptr [bp-04]
  1.962C  6A00                     push    0000
  1.962E  6A00                     push    0000
  1.9630  FF36A40B                 push    word ptr [0BA4]
  1.9634  FF36A60B                 push    word ptr [0BA6]
  1.9638  FF76FE                   push    word ptr [bp-02]
  1.963B  FF36A00B                 push    word ptr [0BA0]
  1.963F  FF36A20B                 push    word ptr [0BA2]
  1.9643  68CC00                   push    00CC
  1.9646  6A20                     push    0020
  1.9648  9A3F970000               call    GDI.BITBLT
  1.964D  A1A80B                   mov     ax, [0BA8]
  1.9650  3B06A00B                 cmp     ax, [0BA0]
  1.9654  0F8D0300                 jnl     965B
  1.9658  A1A00B                   mov     ax, [0BA0]

  1.965B >8946E2                   mov     [bp-1E], ax
  1.965E  A1AA0B                   mov     ax, [0BAA]
  1.9661  3B06A20B                 cmp     ax, [0BA2]
  1.9665  0F8D0300                 jnl     966C
  1.9669  A1A20B                   mov     ax, [0BA2]

  1.966C >8946E4                   mov     [bp-1C], ax
  1.966F  A1AC0B                   mov     ax, [0BAC]
  1.9672  0306A80B                 add     ax, [0BA8]
  1.9676  8B0EA40B                 mov     cx, [0BA4]
  1.967A  030EA00B                 add     cx, [0BA0]
  1.967E  3BC1                     cmp     ax, cx
  1.9680  0F8E0200                 jle     9686
  1.9684  8BC1                     mov     ax, cx

  1.9686 >2B46E2                   sub     ax, [bp-1E]
  1.9689  8946E6                   mov     [bp-1A], ax
  1.968C  A1AA0B                   mov     ax, [0BAA]
  1.968F  0306AE0B                 add     ax, [0BAE]
  1.9693  8B0EA20B                 mov     cx, [0BA2]
  1.9697  030EA60B                 add     cx, [0BA6]
  1.969B  3BC1                     cmp     ax, cx
  1.969D  0F8E0200                 jle     96A3
  1.96A1  8BC1                     mov     ax, cx

  1.96A3 >2B46E4                   sub     ax, [bp-1C]
  1.96A6  8946E8                   mov     [bp-18], ax
  1.96A9  8B46E2                   mov     ax, [bp-1E]
  1.96AC  2B06A00B                 sub     ax, [0BA0]
  1.96B0  3D0000                   cmp     ax, 0000
  1.96B3  0F8D0300                 jnl     96BA
  1.96B7  B80000                   mov     ax, 0000

  1.96BA >8946EA                   mov     [bp-16], ax
  1.96BD  8B46E4                   mov     ax, [bp-1C]
  1.96C0  2B06A20B                 sub     ax, [0BA2]
  1.96C4  3D0000                   cmp     ax, 0000
  1.96C7  0F8D0300                 jnl     96CE
  1.96CB  B80000                   mov     ax, 0000

  1.96CE >8946EC                   mov     [bp-14], ax
  1.96D1  8B46E2                   mov     ax, [bp-1E]
  1.96D4  2B06A80B                 sub     ax, [0BA8]
  1.96D8  3D0000                   cmp     ax, 0000
  1.96DB  0F8D0300                 jnl     96E2
  1.96DF  B80000                   mov     ax, 0000

  1.96E2 >8946F2                   mov     [bp-0E], ax
  1.96E5  8B46E4                   mov     ax, [bp-1C]
  1.96E8  2B06AA0B                 sub     ax, [0BAA]
  1.96EC  3D0000                   cmp     ax, 0000
  1.96EF  0F8D0300                 jnl     96F6
  1.96F3  B80000                   mov     ax, 0000

  1.96F6 >8946F4                   mov     [bp-0C], ax
  1.96F9  837EE600                 cmp     word ptr [bp-1A], 0000
  1.96FD  0F8E4200                 jle     9743
  1.9701  837EE800                 cmp     word ptr [bp-18], 0000
  1.9705  0F8E3A00                 jle     9743
  1.9709  FF76FA                   push    word ptr [bp-06]
  1.970C  8A1E8E0B                 mov     bl, byte ptr [0B8E]
  1.9710  80EBFF                   sub     bl, FF
  1.9713  83E301                   and     bx, 0001
  1.9716  D1E3                     shl     bx, 1
  1.9718  FFB7700B                 push    word ptr [bx+0B70]
  1.971C  9A54970000               call    GDI.SELECTOBJECT
  1.9721  FF76FC                   push    word ptr [bp-04]
  1.9724  FF76EA                   push    word ptr [bp-16]
  1.9727  FF76EC                   push    word ptr [bp-14]
  1.972A  FF76E6                   push    word ptr [bp-1A]
  1.972D  FF76E8                   push    word ptr [bp-18]
  1.9730  FF76FA                   push    word ptr [bp-06]
  1.9733  FF76F2                   push    word ptr [bp-0E]
  1.9736  FF76F4                   push    word ptr [bp-0C]
  1.9739  68CC00                   push    00CC
  1.973C  6A20                     push    0020
  1.973E  9A74970000               call    GDI.BITBLT

  1.9743 >833E760B00               cmp     word ptr [0B76], 0000
  1.9748  0F849D02                 je      99E9
  1.974C  FF76FA                   push    word ptr [bp-06]
  1.974F  FF36740B                 push    word ptr [0B74]
  1.9753  9AC3970000               call    GDI.SELECTOBJECT
  1.9758  FF76FA                   push    word ptr [bp-06]
  1.975B  6A00                     push    0000
  1.975D  6A00                     push    0000
  1.975F  FF36A40B                 push    word ptr [0BA4]
  1.9763  FF36A60B                 push    word ptr [0BA6]
  1.9767  FF76FC                   push    word ptr [bp-04]
  1.976A  6A00                     push    0000
  1.976C  6A00                     push    0000
  1.976E  68CC00                   push    00CC
  1.9771  6A20                     push    0020
  1.9773  9AEF970000               call    GDI.BITBLT
  1.9778  A1980B                   mov     ax, [0B98]
  1.977B  2B06A00B                 sub     ax, [0BA0]
  1.977F  3D0000                   cmp     ax, 0000
  1.9782  0F8D0300                 jnl     9789
  1.9786  B80000                   mov     ax, 0000

  1.9789 >8946EA                   mov     [bp-16], ax
  1.978C  A19A0B                   mov     ax, [0B9A]
  1.978F  2B06A20B                 sub     ax, [0BA2]
  1.9793  3D0000                   cmp     ax, 0000
  1.9796  0F8D0300                 jnl     979D
  1.979A  B80000                   mov     ax, 0000

  1.979D >8946EC                   mov     [bp-14], ax
  1.97A0  833E780B00               cmp     word ptr [0B78], 0000
  1.97A5  0F84DE01                 je      9987
  1.97A9  833E662D00               cmp     word ptr [2D66], 0000
  1.97AE  0F846C01                 je      991E
  1.97B2  833E662D01               cmp     word ptr [2D66], 0001
  1.97B7  0F857000                 jne     982B
  1.97BB  FF76FC                   push    word ptr [bp-04]
  1.97BE  FF36780B                 push    word ptr [0B78]
  1.97C2  9ACF970000               call    GDI.SELECTOBJECT
  1.97C7  FF76FA                   push    word ptr [bp-06]
  1.97CA  FF367C0B                 push    word ptr [0B7C]
  1.97CE  9AFB970000               call    GDI.SELECTOBJECT
  1.97D3  FF76FA                   push    word ptr [bp-06]
  1.97D6  6A00                     push    0000
  1.97D8  6A00                     push    0000
  1.97DA  6A28                     push    0028
  1.97DC  6A28                     push    0028
  1.97DE  FF76FC                   push    word ptr [bp-04]
  1.97E1  FF367E0B                 push    word ptr [0B7E]
  1.97E5  FF36800B                 push    word ptr [0B80]
  1.97E9  68CC00                   push    00CC
  1.97EC  6A20                     push    0020
  1.97EE  9A27980000               call    GDI.BITBLT
  1.97F3  FF76FC                   push    word ptr [bp-04]
  1.97F6  FF36760B                 push    word ptr [0B76]
  1.97FA  9A07980000               call    GDI.SELECTOBJECT
  1.97FF  FF76FA                   push    word ptr [bp-06]
  1.9802  FF367A0B                 push    word ptr [0B7A]
  1.9806  9A33980000               call    GDI.SELECTOBJECT
  1.980B  FF76FA                   push    word ptr [bp-06]
  1.980E  6A00                     push    0000
  1.9810  6A00                     push    0000
  1.9812  6A28                     push    0028
  1.9814  6A28                     push    0028
  1.9816  FF76FC                   push    word ptr [bp-04]
  1.9819  FF367E0B                 push    word ptr [0B7E]
  1.981D  FF36800B                 push    word ptr [0B80]
  1.9821  68CC00                   push    00CC
  1.9824  6A20                     push    0020
  1.9826  9A6A980000               call    GDI.BITBLT

  1.982B >FF76FC                   push    word ptr [bp-04]
  1.982E  FF367C0B                 push    word ptr [0B7C]
  1.9832  9A3F980000               call    GDI.SELECTOBJECT
  1.9837  FF76FA                   push    word ptr [bp-06]
  1.983A  FF36D213                 push    word ptr [13D2]
  1.983E  9A76980000               call    GDI.SELECTOBJECT
  1.9843  FF76FC                   push    word ptr [bp-04]
  1.9846  A1662D                   mov     ax, [2D66]
  1.9849  48                       dec     ax
  1.984A  50                       push    ax
  1.984B  A1662D                   mov     ax, [2D66]
  1.984E  48                       dec     ax
  1.984F  50                       push    ax
  1.9850  B82900                   mov     ax, 0029
  1.9853  2B06662D                 sub     ax, [2D66]
  1.9857  50                       push    ax
  1.9858  6A28                     push    0028
  1.985A  FF76FA                   push    word ptr [bp-06]
  1.985D  FF36D613                 push    word ptr [13D6]
  1.9861  6A00                     push    0000
  1.9863  68EE00                   push    00EE
  1.9866  688600                   push    0086
  1.9869  9AAD980000               call    GDI.BITBLT
  1.986E  FF76FC                   push    word ptr [bp-04]
  1.9871  FF367A0B                 push    word ptr [0B7A]
  1.9875  9A82980000               call    GDI.SELECTOBJECT
  1.987A  FF76FA                   push    word ptr [bp-06]
  1.987D  FF36D413                 push    word ptr [13D4]
  1.9881  9AB9980000               call    GDI.SELECTOBJECT
  1.9886  FF76FC                   push    word ptr [bp-04]
  1.9889  A1662D                   mov     ax, [2D66]
  1.988C  48                       dec     ax
  1.988D  50                       push    ax
  1.988E  A1662D                   mov     ax, [2D66]
  1.9891  48                       dec     ax
  1.9892  50                       push    ax
  1.9893  B82900                   mov     ax, 0029
  1.9896  2B06662D                 sub     ax, [2D66]
  1.989A  50                       push    ax
  1.989B  6A28                     push    0028
  1.989D  FF76FA                   push    word ptr [bp-06]
  1.98A0  FF36D613                 push    word ptr [13D6]
  1.98A4  6A00                     push    0000
  1.98A6  688800                   push    0088
  1.98A9  68C600                   push    00C6
  1.98AC  9AE8980000               call    GDI.BITBLT
  1.98B1  FF76FA                   push    word ptr [bp-06]
  1.98B4  FF36740B                 push    word ptr [0B74]
  1.98B8  9AC5980000               call    GDI.SELECTOBJECT
  1.98BD  FF76FC                   push    word ptr [bp-04]
  1.98C0  FF367C0B                 push    word ptr [0B7C]
  1.98C4  9AF4980000               call    GDI.SELECTOBJECT
  1.98C9  FF76FA                   push    word ptr [bp-06]
  1.98CC  FF76EA                   push    word ptr [bp-16]
  1.98CF  FF76EC                   push    word ptr [bp-14]
  1.98D2  FF369C0B                 push    word ptr [0B9C]
  1.98D6  FF369E0B                 push    word ptr [0B9E]
  1.98DA  FF76FC                   push    word ptr [bp-04]
  1.98DD  6A00                     push    0000
  1.98DF  6A00                     push    0000
  1.98E1  688800                   push    0088
  1.98E4  68C600                   push    00C6
  1.98E7  9A17990000               call    GDI.BITBLT
  1.98EC  FF76FC                   push    word ptr [bp-04]
  1.98EF  FF367A0B                 push    word ptr [0B7A]
  1.98F3  9A26990000               call    GDI.SELECTOBJECT
  1.98F8  FF76FA                   push    word ptr [bp-06]
  1.98FB  FF76EA                   push    word ptr [bp-16]
  1.98FE  FF76EC                   push    word ptr [bp-14]
  1.9901  FF369C0B                 push    word ptr [0B9C]
  1.9905  FF369E0B                 push    word ptr [0B9E]
  1.9909  FF76FC                   push    word ptr [bp-04]
  1.990C  6A00                     push    0000
  1.990E  6A00                     push    0000
  1.9910  68EE00                   push    00EE
  1.9913  688600                   push    0086
  1.9916  9A4D990000               call    GDI.BITBLT
  1.991B  E96600                   jmp     9984

  1.991E >FF76FC                   push    word ptr [bp-04]
  1.9921  FF36780B                 push    word ptr [0B78]
  1.9925  9A59990000               call    GDI.SELECTOBJECT
  1.992A  FF76FA                   push    word ptr [bp-06]
  1.992D  FF76EA                   push    word ptr [bp-16]
  1.9930  FF76EC                   push    word ptr [bp-14]
  1.9933  FF369C0B                 push    word ptr [0B9C]
  1.9937  FF369E0B                 push    word ptr [0B9E]
  1.993B  FF76FC                   push    word ptr [bp-04]
  1.993E  FF367E0B                 push    word ptr [0B7E]
  1.9942  FF36800B                 push    word ptr [0B80]
  1.9946  688800                   push    0088
  1.9949  68C600                   push    00C6
  1.994C  9AAC950000               call    GDI.BITBLT
  1.9951  FF76FC                   push    word ptr [bp-04]
  1.9954  FF36760B                 push    word ptr [0B76]
  1.9958  9A88950000               call    GDI.SELECTOBJECT
  1.995D  FF76FA                   push    word ptr [bp-06]
  1.9960  FF76EA                   push    word ptr [bp-16]
  1.9963  FF76EC                   push    word ptr [bp-14]
  1.9966  FF369C0B                 push    word ptr [0B9C]
  1.996A  FF369E0B                 push    word ptr [0B9E]
  1.996E  FF76FC                   push    word ptr [bp-04]
  1.9971  FF367E0B                 push    word ptr [0B7E]
  1.9975  FF36800B                 push    word ptr [0B80]
  1.9979  68EE00                   push    00EE
  1.997C  688600                   push    0086
  1.997F  9AB5990000               call    GDI.BITBLT

  1.9984 >E93200                   jmp     99B9

  1.9987 >FF76FC                   push    word ptr [bp-04]
  1.998A  FF36760B                 push    word ptr [0B76]
  1.998E  9AAD9A0000               call    GDI.SELECTOBJECT
  1.9993  FF76FA                   push    word ptr [bp-06]
  1.9996  FF76EA                   push    word ptr [bp-16]
  1.9999  FF76EC                   push    word ptr [bp-14]
  1.999C  FF369C0B                 push    word ptr [0B9C]
  1.99A0  FF369E0B                 push    word ptr [0B9E]
  1.99A4  FF76FC                   push    word ptr [bp-04]
  1.99A7  FF367E0B                 push    word ptr [0B7E]
  1.99AB  FF36800B                 push    word ptr [0B80]
  1.99AF  68CC00                   push    00CC
  1.99B2  6A20                     push    0020
  1.99B4  9ACD9A0000               call    GDI.BITBLT

  1.99B9 >C706900B0100             mov     word ptr [0B90], 0001
  1.99BF  C7067E2D0100             mov     word ptr [2D7E], 0001
  1.99C5  FF7606                   push    word ptr [bp+06]
  1.99C8  FF36A00B                 push    word ptr [0BA0]
  1.99CC  FF36A20B                 push    word ptr [0BA2]
  1.99D0  FF36A40B                 push    word ptr [0BA4]
  1.99D4  A1A60B                   mov     ax, [0BA6]
  1.99D7  03067C2D                 add     ax, [2D7C]
  1.99DB  50                       push    ax
  1.99DC  6A01                     push    0001
  1.99DE  9A1E940000               call    USER.MOVEWINDOW
  1.99E3  C7067E2D0000             mov     word ptr [2D7E], 0000

  1.99E9 >FF76FC                   push    word ptr [bp-04]
  1.99EC  9AF5990000               call    GDI.DELETEDC
  1.99F1  FF76FA                   push    word ptr [bp-06]
  1.99F4  9A3B9C0000               call    GDI.DELETEDC
  1.99F9  A1A00B                   mov     ax, [0BA0]
  1.99FC  A3A80B                   mov     [0BA8], ax
  1.99FF  A1A20B                   mov     ax, [0BA2]
  1.9A02  A3AA0B                   mov     [0BAA], ax
  1.9A05  A1A40B                   mov     ax, [0BA4]
  1.9A08  A3AC0B                   mov     [0BAC], ax
  1.9A0B  A1A60B                   mov     ax, [0BA6]
  1.9A0E  A3AE0B                   mov     [0BAE], ax
  1.9A11  A1980B                   mov     ax, [0B98]
  1.9A14  A3B00B                   mov     [0BB0], ax
  1.9A17  A19A0B                   mov     ax, [0B9A]
  1.9A1A  A3B20B                   mov     [0BB2], ax
  1.9A1D  A19C0B                   mov     ax, [0B9C]
  1.9A20  A3B40B                   mov     [0BB4], ax
  1.9A23  A19E0B                   mov     ax, [0B9E]
  1.9A26  A3B60B                   mov     [0BB6], ax
  1.9A29  A1760B                   mov     ax, [0B76]
  1.9A2C  A3960B                   mov     [0B96], ax
  1.9A2F  A17E0B                   mov     ax, [0B7E]
  1.9A32  A3860B                   mov     [0B86], ax
  1.9A35  A1800B                   mov     ax, [0B80]
  1.9A38  A3880B                   mov     [0B88], ax
  1.9A3B  6A00                     push    0000
  1.9A3D  FF76FE                   push    word ptr [bp-02]
  1.9A40  9AB99C0000               call    USER.RELEASEDC

  1.9A45 >5E                       pop     si
  1.9A46  5F                       pop     di
  1.9A47  C9                       leave  
  1.9A48  CB                       retf   
  1.9A49  55                       push    bp
  1.9A4A  8BEC                     mov     bp, sp
  1.9A4C  B80E00                   mov     ax, 000E
  1.9A4F  9A12070992               call    1:0712
  1.9A54  57                       push    di
  1.9A55  56                       push    si
  1.9A56  833E900B00               cmp     word ptr [0B90], 0000
  1.9A5B  0F850600                 jne     9A65
  1.9A5F  B80100                   mov     ax, 0001
  1.9A62  E97702                   jmp     9CDC

  1.9A65 >C706900B0000             mov     word ptr [0B90], 0000
  1.9A6B  FF7606                   push    word ptr [bp+06]
  1.9A6E  9A11920000               call    USER.GETDC
  1.9A73  8946FE                   mov     [bp-02], ax
  1.9A76  FF76FE                   push    word ptr [bp-02]
  1.9A79  FF366A2D                 push    word ptr [2D6A]
  1.9A7D  6A00                     push    0000
  1.9A7F  9AA19A0000               call    USER.SELECTPALETTE
  1.9A84  FF76FE                   push    word ptr [bp-02]
  1.9A87  9A53370000               call    USER.REALIZEPALETTE
  1.9A8C  FF76FE                   push    word ptr [bp-02]
  1.9A8F  9A679B0000               call    GDI.CREATECOMPATIBLEDC
  1.9A94  8946FC                   mov     [bp-04], ax
  1.9A97  FF76FC                   push    word ptr [bp-04]
  1.9A9A  FF366A2D                 push    word ptr [2D6A]
  1.9A9E  6A00                     push    0000
  1.9AA0  9AAB940000               call    USER.SELECTPALETTE
  1.9AA5  FF76FC                   push    word ptr [bp-04]
  1.9AA8  FF36740B                 push    word ptr [0B74]
  1.9AAC  9A769B0000               call    GDI.SELECTOBJECT
  1.9AB1  FF76FE                   push    word ptr [bp-02]
  1.9AB4  6A00                     push    0000
  1.9AB6  6A00                     push    0000
  1.9AB8  FF36A40B                 push    word ptr [0BA4]
  1.9ABC  FF36A60B                 push    word ptr [0BA6]
  1.9AC0  FF76FC                   push    word ptr [bp-04]
  1.9AC3  6A00                     push    0000
  1.9AC5  6A00                     push    0000
  1.9AC7  68CC00                   push    00CC
  1.9ACA  6A20                     push    0020
  1.9ACC  9A949B0000               call    GDI.BITBLT
  1.9AD1  833E7C2D00               cmp     word ptr [2D7C], 0000
  1.9AD6  0F847001                 je      9C4A
  1.9ADA  833ED82300               cmp     word ptr [23D8], 0000
  1.9ADF  0F852600                 jne     9B09
  1.9AE3  FF76FE                   push    word ptr [bp-02]
  1.9AE6  6A28                     push    0028
  1.9AE8  A1722D                   mov     ax, [2D72]
  1.9AEB  C1E002                   shl     ax, 02
  1.9AEE  B90500                   mov     cx, 0005
  1.9AF1  99                       cwd    
  1.9AF2  F7F9                     idiv    cx
  1.9AF4  50                       push    ax
  1.9AF5  9A259B0000               call    GDI.CREATECOMPATIBLEBITMAP
  1.9AFA  A3D823                   mov     [23D8], ax
  1.9AFD  833ED82300               cmp     word ptr [23D8], 0000
  1.9B02  0F850300                 jne     9B09
  1.9B06  E9BA01                   jmp     9CC3

  1.9B09 >833ED22300               cmp     word ptr [23D2], 0000
  1.9B0E  0F852600                 jne     9B38
  1.9B12  FF76FE                   push    word ptr [bp-02]
  1.9B15  6A28                     push    0028
  1.9B17  A1722D                   mov     ax, [2D72]
  1.9B1A  C1E002                   shl     ax, 02
  1.9B1D  B90500                   mov     cx, 0005
  1.9B20  99                       cwd    
  1.9B21  F7F9                     idiv    cx
  1.9B23  50                       push    ax
  1.9B24  9A20920000               call    GDI.CREATECOMPATIBLEBITMAP
  1.9B29  A3D223                   mov     [23D2], ax
  1.9B2C  833ED22300               cmp     word ptr [23D2], 0000
  1.9B31  0F850300                 jne     9B38
  1.9B35  E98B01                   jmp     9CC3

  1.9B38 >833E642D00               cmp     word ptr [2D64], 0000
  1.9B3D  0F850C00                 jne     9B4D
  1.9B41  6A00                     push    0000
  1.9B43  6AFF                     push    FFFF
  1.9B45  9A5C9B0000               call    GDI.CREATESOLIDBRUSH
  1.9B4A  A3642D                   mov     [2D64], ax

  1.9B4D >833ED42300               cmp     word ptr [23D4], 0000
  1.9B52  0F850D00                 jne     9B63
  1.9B56  6A00                     push    0000
  1.9B58  688080                   push    8080
  1.9B5B  9A11380000               call    GDI.CREATESOLIDBRUSH
  1.9B60  A3D423                   mov     [23D4], ax

  1.9B63 >FF76FE                   push    word ptr [bp-02]
  1.9B66  9AB3940000               call    GDI.CREATECOMPATIBLEDC
  1.9B6B  8946F2                   mov     [bp-0E], ax
  1.9B6E  FF76F2                   push    word ptr [bp-0E]
  1.9B71  FF36D223                 push    word ptr [23D2]
  1.9B75  9AB59B0000               call    GDI.SELECTOBJECT
  1.9B7A  FF76F2                   push    word ptr [bp-0E]
  1.9B7D  6A00                     push    0000
  1.9B7F  6A00                     push    0000
  1.9B81  6A28                     push    0028
  1.9B83  FF367C2D                 push    word ptr [2D7C]
  1.9B87  FF76FE                   push    word ptr [bp-02]
  1.9B8A  6A00                     push    0000
  1.9B8C  6A28                     push    0028
  1.9B8E  68CC00                   push    00CC
  1.9B91  6A20                     push    0020
  1.9B93  9AE59B0000               call    GDI.BITBLT
  1.9B98  C746F40000               mov     word ptr [bp-0C], 0000
  1.9B9D  C746F60000               mov     word ptr [bp-0A], 0000
  1.9BA2  C746F82800               mov     word ptr [bp-08], 0028
  1.9BA7  A17C2D                   mov     ax, [2D7C]
  1.9BAA  8946FA                   mov     [bp-06], ax
  1.9BAD  FF76FC                   push    word ptr [bp-04]
  1.9BB0  FF36D823                 push    word ptr [23D8]
  1.9BB4  9A25960000               call    GDI.SELECTOBJECT
  1.9BB9  FF76FC                   push    word ptr [bp-04]
  1.9BBC  8D46F4                   lea     ax, [bp-0C]
  1.9BBF  16                       push    ss
  1.9BC0  50                       push    ax
  1.9BC1  FF36642D                 push    word ptr [2D64]
  1.9BC5  9AF69B0000               call    USER.FILLRECT
  1.9BCA  FF76F2                   push    word ptr [bp-0E]
  1.9BCD  6A00                     push    0000
  1.9BCF  6A00                     push    0000
  1.9BD1  6A28                     push    0028
  1.9BD3  FF367C2D                 push    word ptr [2D7C]
  1.9BD7  FF76FC                   push    word ptr [bp-04]
  1.9BDA  6A00                     push    0000
  1.9BDC  6A00                     push    0000
  1.9BDE  688800                   push    0088
  1.9BE1  68C600                   push    00C6
  1.9BE4  9A159C0000               call    GDI.BITBLT
  1.9BE9  FF76FC                   push    word ptr [bp-04]
  1.9BEC  8D46F4                   lea     ax, [bp-0C]
  1.9BEF  16                       push    ss
  1.9BF0  50                       push    ax
  1.9BF1  FF36D423                 push    word ptr [23D4]
  1.9BF5  9A91380000               call    USER.FILLRECT
  1.9BFA  FF76F2                   push    word ptr [bp-0E]
  1.9BFD  6A00                     push    0000
  1.9BFF  6A00                     push    0000
  1.9C01  6A28                     push    0028
  1.9C03  FF367C2D                 push    word ptr [2D7C]
  1.9C07  FF76FC                   push    word ptr [bp-04]
  1.9C0A  6A00                     push    0000
  1.9C0C  6A00                     push    0000
  1.9C0E  68EE00                   push    00EE
  1.9C11  688600                   push    0086
  1.9C14  9A339C0000               call    GDI.BITBLT
  1.9C19  FF76FE                   push    word ptr [bp-02]
  1.9C1C  6A00                     push    0000
  1.9C1E  6A28                     push    0028
  1.9C20  6A28                     push    0028
  1.9C22  FF367C2D                 push    word ptr [2D7C]
  1.9C26  FF76F2                   push    word ptr [bp-0E]
  1.9C29  6A00                     push    0000
  1.9C2B  6A00                     push    0000
  1.9C2D  68CC00                   push    00CC
  1.9C30  6A20                     push    0020
  1.9C32  9A49960000               call    GDI.BITBLT
  1.9C37  FF76F2                   push    word ptr [bp-0E]
  1.9C3A  9A439C0000               call    GDI.DELETEDC
  1.9C3F  FF76FC                   push    word ptr [bp-04]
  1.9C42  9AAE9C0000               call    GDI.DELETEDC
  1.9C47  E96800                   jmp     9CB2

  1.9C4A >833ED42300               cmp     word ptr [23D4], 0000
  1.9C4F  0F840F00                 je      9C62
  1.9C53  FF36D423                 push    word ptr [23D4]
  1.9C57  9A709C0000               call    GDI.DELETEOBJECT
  1.9C5C  C706D4230000             mov     word ptr [23D4], 0000

  1.9C62 >833E642D00               cmp     word ptr [2D64], 0000
  1.9C67  0F840F00                 je      9C7A
  1.9C6B  FF36642D                 push    word ptr [2D64]
  1.9C6F  9A889C0000               call    GDI.DELETEOBJECT
  1.9C74  C706642D0000             mov     word ptr [2D64], 0000

  1.9C7A >833ED22300               cmp     word ptr [23D2], 0000
  1.9C7F  0F840F00                 je      9C92
  1.9C83  FF36D223                 push    word ptr [23D2]
  1.9C87  9AA09C0000               call    GDI.DELETEOBJECT
  1.9C8C  C706D2230000             mov     word ptr [23D2], 0000

  1.9C92 >833ED82300               cmp     word ptr [23D8], 0000
  1.9C97  0F840F00                 je      9CAA
  1.9C9B  FF36D823                 push    word ptr [23D8]
  1.9C9F  9A21930000               call    GDI.DELETEOBJECT
  1.9CA4  C706D8230000             mov     word ptr [23D8], 0000

  1.9CAA >FF76FC                   push    word ptr [bp-04]
  1.9CAD  9A06390000               call    GDI.DELETEDC

  1.9CB2 >FF7606                   push    word ptr [bp+06]
  1.9CB5  FF76FE                   push    word ptr [bp-02]
  1.9CB8  9ACA9C0000               call    USER.RELEASEDC
  1.9CBD  B80100                   mov     ax, 0001
  1.9CC0  E91900                   jmp     9CDC

  1.9CC3 >FF7606                   push    word ptr [bp+06]
  1.9CC6  FF76FE                   push    word ptr [bp-02]
  1.9CC9  9AC6920000               call    USER.RELEASEDC
  1.9CCE  FF7606                   push    word ptr [bp+06]
  1.9CD1  9AE2280000               call    USER.DESTROYWINDOW
  1.9CD6  B80000                   mov     ax, 0000
  1.9CD9  E90000                   jmp     9CDC

  1.9CDC >5E                       pop     si
  1.9CDD  5F                       pop     di
  1.9CDE  C9                       leave  
  1.9CDF  CB                       retf   

-- Segment: 2 -- Type: 16 bit ------------------------------------------------

  2.0000  0000000005000000         db      00,00,00,00,05,00,00,00 ; ........
  2.0008  0000000000000000         db      00,00,00,00,00,00,00,00 ; ........
  2.0010  F50053637265656E         db      F5,00,53,63,72,65,65,6E ; .Screen
  2.0018  4D617465506F6F00         db      4D,61,74,65,50,6F,6F,00 ; MatePoo.
  2.0020  53637265656E4D61         db      53,63,72,65,65,6E,4D,61 ; ScreenMa
  2.0028  7465506F6F537562         db      74,65,50,6F,6F,53,75,62 ; tePooSub
  2.0030  0053637265656E20         db      00,53,63,72,65,65,6E,20 ; .Screen 
  2.0038  4D61746500536372         db      4D,61,74,65,00,53,63,72 ; Mate.Scr
  2.0040  65656E4D61746550         db      65,65,6E,4D,61,74,65,50 ; eenMateP
  2.0048  6F6F005363726565         db      6F,6F,00,53,63,72,65,65 ; oo.Scree
  2.0050  6E204D6174650053         db      6E,20,4D,61,74,65,00,53 ; n Mate.S
  2.0058  637265656E4D6174         db      63,72,65,65,6E,4D,61,74 ; creenMat
  2.0060  65506F6F00536372         db      65,50,6F,6F,00,53,63,72 ; ePoo.Scr
  2.0068  65656E204D617465         db      65,65,6E,20,4D,61,74,65 ; een Mate
  2.0070  0053637265656E20         db      00,53,63,72,65,65,6E,20 ; .Screen 
  2.0078  4D61746582CD8DC5         db      4D,61,74,65,82,CD,8D,C5 ; Mate
  2.0080  91E582578CC282DC         db      91,E5,82,57,8C,C2,82,DC ; W
  2.0088  82C582C582B70053         db      82,C5,82,C5,82,B7,00,53 ; .S
  2.0090  637265656E204D61         db      63,72,65,65,6E,20,4D,61 ; creen Ma
  2.0098  7465008381838283         db      74,65,00,83,81,83,82,83 ; te.
  2.00A0  8A82AA957391AB82         db      8A,82,AA,95,73,91,AB,82 ; s
  2.00A8  B582C482A282DC82         db      B5,82,C4,82,A2,82,DC,82 ; 
  2.00B0  B70053637265656E         db      B7,00,53,63,72,65,65,6E ; .Screen
  2.00B8  204D617465008381         db      20,4D,61,74,65,00,83,81 ;  Mate.
  2.00C0  8382838A82AA9573         db      83,82,83,8A,82,AA,95,73 ; s
  2.00C8  91AB82B582C482A2         db      91,AB,82,B5,82,C4,82,A2 ; 
  2.00D0  82DC82B700536372         db      82,DC,82,B7,00,53,63,72 ; .Scr
  2.00D8  65656E204D617465         db      65,65,6E,20,4D,61,74,65 ; een Mate
  2.00E0  82CC90DD92E82E2E         db      82,CC,90,DD,92,E8,2E,2E ; ..
  2.00E8  2E0053637265656E         db      2E,00,53,63,72,65,65,6E ; ..Screen
  2.00F0  204D61746582CC8F         db      20,4D,61,74,65,82,CC,8F ;  Mate
  2.00F8  4997B90053636D70         db      49,97,B9,00,53,63,6D,70 ; I.Scmp
  2.0100  6F6F31362E686C70         db      6F,6F,31,36,2E,68,6C,70 ; oo16.hlp
  2.0108  0053637265656E4D         db      00,53,63,72,65,65,6E,4D ; .ScreenM
  2.0110  6174652053756200         db      61,74,65,20,53,75,62,00 ; ate Sub.
  2.0118  53637265656E4D61         db      53,63,72,65,65,6E,4D,61 ; ScreenMa
  2.0120  7465506F6F537562         db      74,65,50,6F,6F,53,75,62 ; tePooSub
  2.0128  0073636D6174652E         db      00,73,63,6D,61,74,65,2E ; .scmate.
  2.0130  696E6900536F756E         db      69,6E,69,00,53,6F,75,6E ; ini.Soun
  2.0138  6400537472617900         db      64,00,53,74,72,61,79,00 ; d.Stray.
  2.0140  73636D6174652E69         db      73,63,6D,61,74,65,2E,69 ; scmate.i
  2.0148  6E6900416C61726D         db      6E,69,00,41,6C,61,72,6D ; ni.Alarm
  2.0150  0053747261790073         db      00,53,74,72,61,79,00,73 ; .Stray.s
  2.0158  636D6174652E696E         db      63,6D,61,74,65,2E,69,6E ; cmate.in
  2.0160  69004E6F536C6565         db      69,00,4E,6F,53,6C,65,65 ; i.NoSlee
  2.0168  7000537472617900         db      70,00,53,74,72,61,79,00 ; p.Stray.
  2.0170  73636D6174652E69         db      73,63,6D,61,74,65,2E,69 ; scmate.i
  2.0178  6E690047466F7263         db      6E,69,00,47,46,6F,72,63 ; ni.GForc
  2.0180  6500537472617900         db      65,00,53,74,72,61,79,00 ; e.Stray.
  2.0188  25750073636D6174         db      25,75,00,73,63,6D,61,74 ; %u.scmat
  2.0190  652E696E6900536F         db      65,2E,69,6E,69,00,53,6F ; e.ini.So
  2.0198  756E640053747261         db      75,6E,64,00,53,74,72,61 ; und.Stra
  2.01A0  790073636D617465         db      79,00,73,63,6D,61,74,65 ; y.scmate
  2.01A8  2E696E6900416C61         db      2E,69,6E,69,00,41,6C,61 ; .ini.Ala
  2.01B0  726D005374726179         db      72,6D,00,53,74,72,61,79 ; rm.Stray
  2.01B8  0073636D6174652E         db      00,73,63,6D,61,74,65,2E ; .scmate.
  2.01C0  696E69004E6F536C         db      69,6E,69,00,4E,6F,53,6C ; ini.NoSl
  2.01C8  6565700053747261         db      65,65,70,00,53,74,72,61 ; eep.Stra
  2.01D0  790073636D617465         db      79,00,73,63,6D,61,74,65 ; y.scmate
  2.01D8  2E696E690047466F         db      2E,69,6E,69,00,47,46,6F ; .ini.GFo
  2.01E0  7263650053747261         db      72,63,65,00,53,74,72,61 ; rce.Stra
  2.01E8  790053637265656E         db      79,00,53,63,72,65,65,6E ; y.Screen
  2.01F0  204D617465005363         db      20,4D,61,74,65,00,53,63 ;  Mate.Sc
  2.01F8  7265656E204D6174         db      72,65,65,6E,20,4D,61,74 ; reen Mat
  2.0200  6500650001000000         db      65,00,65,00,01,00,00,00 ; e.e.....
  2.0208  0000000000000000         db      00,00,00,00,00,00,00,00 ; ........
  2.0210  0000660001000000         db      00,00,66,00,01,00,00,00 ; ..f.....
  2.0218  0000000000000000         db      00,00,00,00,00,00,00,00 ; ........
  2.0220  0000670001000000         db      00,00,67,00,01,00,00,00 ; ..g.....
  2.0228  0000000000000000         db      00,00,00,00,00,00,00,00 ; ........
  2.0230  0000680001000000         db      00,00,68,00,01,00,00,00 ; ..h.....
  2.0238  0000000000000000         db      00,00,00,00,00,00,00,00 ; ........
  2.0240  0000690001000000         db      00,00,69,00,01,00,00,00 ; ..i.....
  2.0248  0000000000000000         db      00,00,00,00,00,00,00,00 ; ........
  2.0250  00006A0001000000         db      00,00,6A,00,01,00,00,00 ; ..j.....
  2.0258  0000000000000000         db      00,00,00,00,00,00,00,00 ; ........
  2.0260  00006B0001000000         db      00,00,6B,00,01,00,00,00 ; ..k.....
  2.0268  0000000000000000         db      00,00,00,00,00,00,00,00 ; ........
  2.0270  00006C0001000000         db      00,00,6C,00,01,00,00,00 ; ..l.....
  2.0278  0000000000000000         db      00,00,00,00,00,00,00,00 ; ........
  2.0280  00006D0001000000         db      00,00,6D,00,01,00,00,00 ; ..m.....
  2.0288  0000000000000000         db      00,00,00,00,00,00,00,00 ; ........
  2.0290  00006E0001000000         db      00,00,6E,00,01,00,00,00 ; ..n.....
  2.0298  0000000000000000         db      00,00,00,00,00,00,00,00 ; ........
  2.02A0  00006F0001000000         db      00,00,6F,00,01,00,00,00 ; ..o.....
  2.02A8  0000000000000000         db      00,00,00,00,00,00,00,00 ; ........
  2.02B0  0000000000000000         db      00,00,00,00,00,00,00,00 ; ........
  2.02B8  0000000000000000         db      00,00,00,00,00,00,00,00 ; ........
  2.02C0  0000000000000000         db      00,00,00,00,00,00,00,00 ; ........
  2.02C8  0000000000000000         db      00,00,00,00,00,00,00,00 ; ........
  2.02D0  0000000000000000         db      00,00,00,00,00,00,00,00 ; ........
  2.02D8  0000000000000000         db      00,00,00,00,00,00,00,00 ; ........
  2.02E0  0000000000000000         db      00,00,00,00,00,00,00,00 ; ........
  2.02E8  0000000000000000         db      00,00,00,00,00,00,00,00 ; ........
  2.02F0  0000000000000000         db      00,00,00,00,00,00,00,00 ; ........
  2.02F8  0000000000000000         db      00,00,00,00,00,00,00,00 ; ........
  2.0300  0000000000000000         db      00,00,00,00,00,00,00,00 ; ........
  2.0308  0000000000000000         db      00,00,00,00,00,00,00,00 ; ........
  2.0310  0000000000000000         db      00,00,00,00,00,00,00,00 ; ........
  2.0318  0000000000000000         db      00,00,00,00,00,00,00,00 ; ........
  2.0320  0000000000000000         db      00,00,00,00,00,00,00,00 ; ........
  2.0328  0000000000000000         db      00,00,00,00,00,00,00,00 ; ........
  2.0330  0000000000000000         db      00,00,00,00,00,00,00,00 ; ........
  2.0338  0000000000000000         db      00,00,00,00,00,00,00,00 ; ........
  2.0340  0000000000000000         db      00,00,00,00,00,00,00,00 ; ........
  2.0348  0000000000000000         db      00,00,00,00,00,00,00,00 ; ........
  2.0350  0000000000000000         db      00,00,00,00,00,00,00,00 ; ........
  2.0358  0000000000000000         db      00,00,00,00,00,00,00,00 ; ........
  2.0360  0000000000000000         db      00,00,00,00,00,00,00,00 ; ........
  2.0368  0000000000000000         db      00,00,00,00,00,00,00,00 ; ........
  2.0370  0000000000000000         db      00,00,00,00,00,00,00,00 ; ........
  2.0378  0000000000000000         db      00,00,00,00,00,00,00,00 ; ........
  2.0380  0000000000000000         db      00,00,00,00,00,00,00,00 ; ........
  2.0388  0000000000000000         db      00,00,00,00,00,00,00,00 ; ........
  2.0390  0000000000000000         db      00,00,00,00,00,00,00,00 ; ........
  2.0398  0000000000000000         db      00,00,00,00,00,00,00,00 ; ........
  2.03A0  0000000000000000         db      00,00,00,00,00,00,00,00 ; ........
  2.03A8  0000000000000000         db      00,00,00,00,00,00,00,00 ; ........
  2.03B0  0000000000000000         db      00,00,00,00,00,00,00,00 ; ........
  2.03B8  0000000000000000         db      00,00,00,00,00,00,00,00 ; ........
  2.03C0  0000000000000000         db      00,00,00,00,00,00,00,00 ; ........
  2.03C8  0000000000000000         db      00,00,00,00,00,00,00,00 ; ........
  2.03D0  0000000000000000         db      00,00,00,00,00,00,00,00 ; ........
  2.03D8  0000000000000000         db      00,00,00,00,00,00,00,00 ; ........
  2.03E0  0000000000000000         db      00,00,00,00,00,00,00,00 ; ........
  2.03E8  0000000000000000         db      00,00,00,00,00,00,00,00 ; ........
  2.03F0  0000000000000000         db      00,00,00,00,00,00,00,00 ; ........
  2.03F8  0000000000000000         db      00,00,00,00,00,00,00,00 ; ........
  2.0400  00000B000B001100         db      00,00,0B,00,0B,00,11,00 ; ........
  2.0408  14000B000B001100         db      14,00,0B,00,0B,00,11,00 ; ........
  2.0410  1400110014001100         db      14,00,11,00,14,00,11,00 ; ........
  2.0418  1400110011001100         db      14,00,11,00,11,00,11,00 ; ........
  2.0420  1400110011001100         db      14,00,11,00,11,00,11,00 ; ........
  2.0428  140007000B001100         db      14,00,07,00,0B,00,11,00 ; ........
  2.0430  140007000B001100         db      14,00,07,00,0B,00,11,00 ; ........
  2.0438  14002D000B002B00         db      14,00,2D,00,0B,00,2B,00 ; ..-...+.
  2.0440  2300310033000D00         db      23,00,31,00,33,00,0D,00 ; #.1.3...
  2.0448  35000F000F000D00         db      35,00,0F,00,0F,00,0D,00 ; 5.......
  2.0450  3A0007000B000700         db      3A,00,07,00,0B,00,07,00 ; :.......
  2.0458  0B0007000B000700         db      0B,00,07,00,0B,00,07,00 ; ........
  2.0460  0B0007000B000700         db      0B,00,07,00,0B,00,07,00 ; ........
  2.0468  0B00070007001100         db      0B,00,07,00,07,00,11,00 ; ........
  2.0470  1400070007001100         db      14,00,07,00,07,00,11,00 ; ........
  2.0478  14000B000B000700         db      14,00,0B,00,0B,00,07,00 ; ........
  2.0480  07000B000B000700         db      07,00,0B,00,0B,00,07,00 ; ........
  2.0488  07000B000B000700         db      07,00,0B,00,0B,00,07,00 ; ........
  2.0490  07000B000B000700         db      07,00,0B,00,0B,00,07,00 ; ........
  2.0498  07000B000B000700         db      07,00,0B,00,0B,00,07,00 ; ........
  2.04A0  07000B000B000700         db      07,00,0B,00,0B,00,07,00 ; ........
  2.04A8  07000B000B000700         db      07,00,0B,00,0B,00,07,00 ; ........
  2.04B0  07000B000B000700         db      07,00,0B,00,0B,00,07,00 ; ........
  2.04B8  07000B000B000700         db      07,00,0B,00,0B,00,07,00 ; ........
  2.04C0  07000B000B000700         db      07,00,0B,00,0B,00,07,00 ; ........
  2.04C8  07000B0007001100         db      07,00,0B,00,07,00,11,00 ; ........
  2.04D0  14000B0007001100         db      14,00,0B,00,07,00,11,00 ; ........
  2.04D8  14000B0007001100         db      14,00,0B,00,07,00,11,00 ; ........
  2.04E0  14000B0007001100         db      14,00,0B,00,07,00,11,00 ; ........
  2.04E8  14000B0007001100         db      14,00,0B,00,07,00,11,00 ; ........
  2.04F0  14000B0007001100         db      14,00,0B,00,07,00,11,00 ; ........
  2.04F8  14000B0007001100         db      14,00,0B,00,07,00,11,00 ; ........
  2.0500  14000D003A000F00         db      14,00,0D,00,3A,00,0F,00 ; ....:...
  2.0508  2D00230035002B00         db      2D,00,23,00,35,00,2B,00 ; -.#.5.+.
  2.0510  2F002D002F003100         db      2F,00,2D,00,2F,00,31,00 ; /.-./.1.
  2.0518  33000B000B000700         db      33,00,0B,00,0B,00,07,00 ; 3.......
  2.0520  07000B000B000700         db      07,00,0B,00,0B,00,07,00 ; ........
  2.0528  07000B000B000700         db      07,00,0B,00,0B,00,07,00 ; ........
  2.0530  07000B000B000700         db      07,00,0B,00,0B,00,07,00 ; ........
  2.0538  07000B000B000700         db      07,00,0B,00,0B,00,07,00 ; ........
  2.0540  07000B000B000700         db      07,00,0B,00,0B,00,07,00 ; ........
  2.0548  07000B000B000700         db      07,00,0B,00,0B,00,07,00 ; ........
  2.0550  07000B000B000700         db      07,00,0B,00,0B,00,07,00 ; ........
  2.0558  07000B000B000700         db      07,00,0B,00,0B,00,07,00 ; ........
  2.0560  07000B000B000700         db      07,00,0B,00,0B,00,07,00 ; ........
  2.0568  07000B0007001100         db      07,00,0B,00,07,00,11,00 ; ........
  2.0570  14000B0007001100         db      14,00,0B,00,07,00,11,00 ; ........
  2.0578  14000B0007001100         db      14,00,0B,00,07,00,11,00 ; ........
  2.0580  14000B0007001100         db      14,00,0B,00,07,00,11,00 ; ........
  2.0588  14000B0007001100         db      14,00,0B,00,07,00,11,00 ; ........
  2.0590  14000B0007001100         db      14,00,0B,00,07,00,11,00 ; ........
  2.0598  14000B0007001100         db      14,00,0B,00,07,00,11,00 ; ........
  2.05A0  14000D003A000F00         db      14,00,0D,00,3A,00,0F,00 ; ....:...
  2.05A8  4100230035002B00         db      41,00,23,00,35,00,2B,00 ; A.#.5.+.
  2.05B0  4B002D002F003100         db      4B,00,2D,00,2F,00,31,00 ; K.-./.1.
  2.05B8  3300740079007E00         db      33,00,74,00,79,00,7E,00 ; 3.t.y.~.
  2.05C0  9300800087008E00         db      93,00,80,00,87,00,8E,00 ; ....
  2.05C8  9300010001005741         db      93,00,01,00,01,00,57,41 ; .....WA
  2.05D0  5645000007000800         db      56,45,00,00,07,00,08,00 ; VE......
  2.05D8  0700060007000800         db      07,00,06,00,07,00,08,00 ; ........
  2.05E0  0700060020002100         db      07,00,06,00,20,00,21,00 ; .... .!.
  2.05E8  20001F0020002100         db      20,00,1F,00,20,00,21,00 ;  ... .!.
  2.05F0  20001F004A004B00         db      20,00,1F,00,4A,00,4B,00 ;  ...J.K.
  2.05F8  4A0049004A004B00         db      4A,00,49,00,4A,00,4B,00 ; J.I.J.K.
  2.0600  4A0049004F005000         db      4A,00,49,00,4F,00,50,00 ; J.I.O.P.
  2.0608  4F004E004F005000         db      4F,00,4E,00,4F,00,50,00 ; O.N.O.P.
  2.0610  4F004E0052005300         db      4F,00,4E,00,52,00,53,00 ; O.N.R.S.
  2.0618  5200510052005300         db      52,00,51,00,52,00,53,00 ; R.Q.R.S.
  2.0620  5200510023002400         db      52,00,51,00,23,00,24,00 ; R.Q.#.$.
  2.0628  2300220023002400         db      23,00,22,00,23,00,24,00 ; #.".#.$.
  2.0630  230022002A002B00         db      23,00,22,00,2A,00,2B,00 ; #.".*.+.
  2.0638  2A002C002E002F00         db      2A,00,2C,00,2E,00,2F,00 ; *.,.../.
  2.0640  2E002F003E003F00         db      2E,00,2F,00,3E,00,3F,00 ; ../.>.?.
  2.0648  3F00400040004100         db      3F,00,40,00,40,00,41,00 ; ?.@.@.A.
  2.0650  4100420042004200         db      41,00,42,00,42,00,42,00 ; A.B.B.B.
  2.0658  00000A0011001500         db      00,00,0A,00,11,00,15,00 ; ........
  2.0660  1600150011000A00         db      16,00,15,00,11,00,0A,00 ; ........
  2.0668  0000000025002600         db      00,00,00,00,25,00,26,00 ; ....%.&.
  2.0670  2700270027002600         db      27,00,27,00,27,00,26,00 ; '.'.'.&.
  2.0678  2500030025000300         db      25,00,03,00,25,00,03,00 ; %...%...
  2.0680  0000470048004700         db      00,00,47,00,48,00,47,00 ; ..G.H.G.
  2.0688  4800470048000300         db      48,00,47,00,48,00,03,00 ; H.G.H...
  2.0690  00006B006C006D00         db      00,00,6B,00,6C,00,6D,00 ; ..k.l.m.
  2.0698  6D00030003000300         db      6D,00,03,00,03,00,03,00 ; m.......
  2.06A0  6E006F006E006F00         db      6E,00,6F,00,6E,00,6F,00 ; n.o.n.o.
  2.06A8  0300000032003300         db      03,00,00,00,32,00,33,00 ; ....2.3.
  2.06B0  3200330003000000         db      32,00,33,00,03,00,00,00 ; 2.3.....
  2.06B8  3A0096003C003D00         db      3A,00,96,00,3C,00,3D,00 ; :..<.=.
  2.06C0  3C003D003C003D00         db      3C,00,3D,00,3C,00,3D,00 ; <.=.<.=.
  2.06C8  3A0097003C003D00         db      3A,00,97,00,3C,00,3D,00 ; :..<.=.
  2.06D0  3C003D003C003D00         db      3C,00,3D,00,3C,00,3D,00 ; <.=.<.=.
  2.06D8  02003A0098003C00         db      02,00,3A,00,98,00,3C,00 ; ..:..<.
  2.06E0  3D003C003D003C00         db      3D,00,3C,00,3D,00,3C,00 ; =.<.=.<.
  2.06E8  3D003A0099003C00         db      3D,00,3A,00,99,00,3C,00 ; =.:..<.
  2.06F0  3D003C003D003C00         db      3D,00,3C,00,3D,00,3C,00 ; =.<.=.<.
  2.06F8  3D00030000008600         db      3D,00,03,00,00,00,86,00 ; =......
  2.0700  8600860086008600         db      86,00,86,00,86,00,86,00 ; ....
  2.0708  8600860086008700         db      86,00,86,00,86,00,87,00 ; ....
  2.0710  880089008A008900         db      88,00,89,00,8A,00,89,00 ; ....
  2.0718  8A0089008A008900         db      8A,00,89,00,8A,00,89,00 ; ....
  2.0720  8A0089008A008B00         db      8A,00,89,00,8A,00,8B,00 ; ....
  2.0728  8C008D008E008F00         db      8C,00,8D,00,8E,00,8F,00 ; ....
  2.0730  9000910090009100         db      90,00,91,00,90,00,91,00 ; ....
  2.0738  9000910090009100         db      90,00,91,00,90,00,91,00 ; ....
  2.0740  000003005D006300         db      00,00,03,00,5D,00,63,00 ; ....].c.
  2.0748  6400630064006300         db      64,00,63,00,64,00,63,00 ; d.c.d.c.
  2.0750  6400630064005F00         db      64,00,63,00,64,00,5F,00 ; d.c.d._.
  2.0758  0300000030003000         db      03,00,00,00,30,00,30,00 ; ....0.0.
  2.0760  300031000D000C00         db      30,00,31,00,0D,00,0C,00 ; 0.1.....
  2.0768  0300000030003000         db      03,00,00,00,30,00,30,00 ; ....0.0.
  2.0770  300031000D000E00         db      30,00,31,00,0D,00,0E,00 ; 0.1.....
  2.0778  0300000082008200         db      03,00,00,00,82,00,82,00 ; ......
  2.0780  8200820082008100         db      82,00,82,00,82,00,81,00 ; ....
  2.0788  8100800080007F00         db      81,00,80,00,80,00,7F,00 ; .....
  2.0790  7F007F0006000600         db      7F,00,7F,00,06,00,06,00 ; ........
  2.0798  0600060007000800         db      06,00,06,00,07,00,08,00 ; ........
  2.07A0  0700060007000800         db      07,00,06,00,07,00,08,00 ; ........
  2.07A8  0700060006000600         db      07,00,06,00,06,00,06,00 ; ........
  2.07B0  0600000093009400         db      06,00,00,00,93,00,94,00 ; ......
  2.07B8  930092000000A900         db      93,00,92,00,00,00,A9,00 ; .....
  2.07C0  A900A900A900A900         db      A9,00,A9,00,A9,00,A9,00 ; ....
  2.07C8  A900A900A900AA00         db      A9,00,A9,00,A9,00,AA,00 ; ....
  2.07D0  AB00AA00A900AA00         db      AB,00,AA,00,A9,00,AA,00 ; ....
  2.07D8  AB00AA00A900A900         db      AB,00,AA,00,A9,00,A9,00 ; ....
  2.07E0  A900A90051005100         db      A9,00,A9,00,51,00,51,00 ; ..Q.Q.
  2.07E8  5100510051005100         db      51,00,51,00,51,00,51,00 ; Q.Q.Q.Q.
  2.07F0  5100510055005500         db      51,00,51,00,55,00,55,00 ; Q.Q.U.U.
  2.07F8  5500550055005500         db      55,00,55,00,55,00,55,00 ; U.U.U.U.
  2.0800  5500550022002200         db      55,00,55,00,22,00,22,00 ; U.U.".".
  2.0808  2200220023002400         db      22,00,22,00,23,00,24,00 ; ".".#.$.
  2.0810  2300220023002400         db      23,00,22,00,23,00,24,00 ; #.".#.$.
  2.0818  2300220022002200         db      23,00,22,00,22,00,22,00 ; #.".".".
  2.0820  0A000A0009000900         db      0A,00,0A,00,09,00,09,00 ; ........
  2.0828  0300000003007F00         db      03,00,00,00,03,00,7F,00 ; ........
  2.0830  8000810082008200         db      80,00,81,00,82,00,82,00 ; ....
  2.0838  8200810080007F00         db      82,00,81,00,80,00,7F,00 ; .....
  2.0840  7F00000077007800         db      7F,00,00,00,77,00,78,00 ; ....w.x.
  2.0848  79007A007B007C00         db      79,00,7A,00,7B,00,7C,00 ; y.z.{.|.
  2.0850  7D007E0000000300         db      7D,00,7E,00,00,00,03,00 ; }.~.....
  2.0858  09000A000B000200         db      09,00,0A,00,0B,00,02,00 ; ........
  2.0860  0E000D000C000000         db      0E,00,0D,00,0C,00,00,00 ; ........
  2.0868  0000000000000000         db      00,00,00,00,00,00,00,00 ; ........
  2.0870  00000100FFFF0000         db      00,00,01,00,FF,FF,00,00 ; ......
  2.0878  00005F435F46494C         db      00,00,5F,43,5F,46,49,4C ; .._C_FIL
  2.0880  455F494E464F3D00         db      45,5F,49,4E,46,4F,3D,00 ; E_INFO=.
  2.0888  0000000000000000         db      00,00,00,00,00,00,00,00 ; ........
  2.0890  0000000000000000         db      00,00,00,00,00,00,00,00 ; ........
  2.0898  0000000000000000         db      00,00,00,00,00,00,00,00 ; ........
  2.08A0  0000000002010000         db      00,00,00,00,02,01,00,00 ; ........
  2.08A8  1400140028000000         db      14,00,14,00,28,00,00,00 ; ....(...
  2.08B0  0000000000000000         db      00,00,00,00,00,00,00,00 ; ........
  2.08B8  0000000000000000         db      00,00,00,00,00,00,00,00 ; ........
  2.08C0  0000C10000000000         db      00,00,C1,00,00,00,00,00 ; .......
  2.08C8  0000000000000000         db      00,00,00,00,00,00,00,00 ; ........
  2.08D0  0000000000000000         db      00,00,00,00,00,00,00,00 ; ........
  2.08D8  00000000E0080000         db      00,00,00,00,E0,08,00,00 ; .......
  2.08E0  0000000000000000         db      00,00,00,00,00,00,00,00 ; ........
  2.08E8  FFFFFFFF00000000         db      FF,FF,FF,FF,00,00,00,00 ; ....
  2.08F0  0010FFFF1E003B00         db      00,10,FF,FF,1E,00,3B,00 ; ....;.
  2.08F8  5A0078009700B500         db      5A,00,78,00,97,00,B5,00 ; Z.x...
  2.0900  D400F30011013001         db      D4,00,F3,00,11,01,30,01 ; ....0.
  2.0908  4E016D01FFFF1E00         db      4E,01,6D,01,FF,FF,1E,00 ; N.m...
  2.0910  3A00590077009600         db      3A,00,59,00,77,00,96,00 ; :.Y.w..
  2.0918  B400D300F2001001         db      B4,00,D3,00,F2,00,10,01 ; .....
  2.0920  2F014D016C010000         db      2F,01,4D,01,6C,01,00,00 ; /.M.l...
  2.0928  0000000000000000         db      00,00,00,00,00,00,00,00 ; ........
  2.0930  0000000000000000         db      00,00,00,00,00,00,00,00 ; ........
  2.0938  545A000080700000         db      54,5A,00,00,80,70,00,00 ; TZ..p..
  2.0940  0100505354005044         db      01,00,50,53,54,00,50,44 ; ..PST.PD
  2.0948  5400420946090100         db      54,00,42,09,46,09,01,00 ; T.B.F...
  2.0950  0000000000000000         db      00,00,00,00,00,00,00,00 ; ........
  2.0958  0000000000000000         db      00,00,00,00,00,00,00,00 ; ........
  2.0960  0000000000003C3C         db      00,00,00,00,00,00,3C,3C ; ......<<
  2.0968  4E4D53473E3E0000         db      4E,4D,53,47,3E,3E,00,00 ; NMSG>>..
  2.0970  52363030300D0A2D         db      52,36,30,30,30,0D,0A,2D ; R6000..-
  2.0978  20737461636B206F         db      20,73,74,61,63,6B,20,6F ;  stack o
  2.0980  766572666C6F770D         db      76,65,72,66,6C,6F,77,0D ; verflow.
  2.0988  0A00030052363030         db      0A,00,03,00,52,36,30,30 ; ....R600
  2.0990  330D0A2D20696E74         db      33,0D,0A,2D,20,69,6E,74 ; 3..- int
  2.0998  6567657220646976         db      65,67,65,72,20,64,69,76 ; eger div
  2.09A0  6964652062792030         db      69,64,65,20,62,79,20,30 ; ide by 0
  2.09A8  0D0A000900523630         db      0D,0A,00,09,00,52,36,30 ; .....R60
  2.09B0  30390D0A2D206E6F         db      30,39,0D,0A,2D,20,6E,6F ; 09..- no
  2.09B8  7420656E6F756768         db      74,20,65,6E,6F,75,67,68 ; t enough
  2.09C0  2073706163652066         db      20,73,70,61,63,65,20,66 ;  space f
  2.09C8  6F7220656E766972         db      6F,72,20,65,6E,76,69,72 ; or envir
  2.09D0  6F6E6D656E740D0A         db      6F,6E,6D,65,6E,74,0D,0A ; onment..
  2.09D8  0012005236303138         db      00,12,00,52,36,30,31,38 ; ...R6018
  2.09E0  0D0A2D20756E6578         db      0D,0A,2D,20,75,6E,65,78 ; ..- unex
  2.09E8  7065637465642068         db      70,65,63,74,65,64,20,68 ; pected h
  2.09F0  656170206572726F         db      65,61,70,20,65,72,72,6F ; eap erro
  2.09F8  720D0A0014005236         db      72,0D,0A,00,14,00,52,36 ; r.....R6
  2.0A00  3032300D0A2D2075         db      30,32,30,0D,0A,2D,20,75 ; 020..- u
  2.0A08  6E65787065637465         db      6E,65,78,70,65,63,74,65 ; nexpecte
  2.0A10  6420517569636B57         db      64,20,51,75,69,63,6B,57 ; d QuickW
  2.0A18  696E206572726F72         db      69,6E,20,65,72,72,6F,72 ; in error
  2.0A20  0D0A000800523630         db      0D,0A,00,08,00,52,36,30 ; .....R60
  2.0A28  30380D0A2D206E6F         db      30,38,0D,0A,2D,20,6E,6F ; 08..- no
  2.0A30  7420656E6F756768         db      74,20,65,6E,6F,75,67,68 ; t enough
  2.0A38  2073706163652066         db      20,73,70,61,63,65,20,66 ;  space f
  2.0A40  6F7220617267756D         db      6F,72,20,61,72,67,75,6D ; or argum
  2.0A48  656E74730D0A0015         db      65,6E,74,73,0D,0A,00,15 ; ents....
  2.0A50  0052363032310D0A         db      00,52,36,30,32,31,0D,0A ; .R6021..
  2.0A58  2D206E6F206D6169         db      2D,20,6E,6F,20,6D,61,69 ; - no mai
  2.0A60  6E2070726F636564         db      6E,20,70,72,6F,63,65,64 ; n proced
  2.0A68  7572650D0A00FC00         db      75,72,65,0D,0A,00,FC,00 ; ure....
  2.0A70  0D0A00FF0072756E         db      0D,0A,00,FF,00,72,75,6E ; ....run
  2.0A78  2D74696D65206572         db      2D,74,69,6D,65,20,65,72 ; -time er
  2.0A80  726F722000020052         db      72,6F,72,20,00,02,00,52 ; ror ...R
  2.0A88  363030320D0A2D20         db      36,30,30,32,0D,0A,2D,20 ; 6002..- 
  2.0A90  666C6F6174696E67         db      66,6C,6F,61,74,69,6E,67 ; floating
  2.0A98  2D706F696E742073         db      2D,70,6F,69,6E,74,20,73 ; -point s
  2.0AA0  7570706F7274206E         db      75,70,70,6F,72,74,20,6E ; upport n
  2.0AA8  6F74206C6F616465         db      6F,74,20,6C,6F,61,64,65 ; ot loade
  2.0AB0  640D0A00FFFFFF00         db      64,0D,0A,00,FF,FF,FF,00 ; d....
  2.0AB8  0000000000000000         db      00,00,00,00,00,00,00,00 ; ........
  2.0AC0  0000000000000000         db      00,00,00,00,00,00,00,00 ; ........
  2.0AC8  0000000000000000         db      00,00,00,00,00,00,00,00 ; ........
  2.0AD0  0000000000000000         db      00,00,00,00,00,00,00,00 ; ........
  2.0AD8  0000000000000000         db      00,00,00,00,00,00,00,00 ; ........
  2.0AE0  0000000000000000         db      00,00,00,00,00,00,00,00 ; ........
  2.0AE8  0000000000000000         db      00,00,00,00,00,00,00,00 ; ........
  2.0AF0  0000000000000000         db      00,00,00,00,00,00,00,00 ; ........
  2.0AF8  0000000000000000         db      00,00,00,00,00,00,00,00 ; ........
  2.0B00  0000000000000000         db      00,00,00,00,00,00,00,00 ; ........
  2.0B08  0000000000000000         db      00,00,00,00,00,00,00,00 ; ........
  2.0B10  0000000000000000         db      00,00,00,00,00,00,00,00 ; ........
  2.0B18  0000000000000000         db      00,00,00,00,00,00,00,00 ; ........
  2.0B20  0000000000000000         db      00,00,00,00,00,00,00,00 ; ........
  2.0B28  0000000000000000         db      00,00,00,00,00,00,00,00 ; ........
  2.0B30  0000000000000000         db      00,00,00,00,00,00,00,00 ; ........
  2.0B38  0000000000000000         db      00,00,00,00,00,00,00,00 ; ........
  2.0B40  0000000000000000         db      00,00,00,00,00,00,00,00 ; ........
  2.0B48  0000000000000000         db      00,00,00,00,00,00,00,00 ; ........
  2.0B50  0000000000000000         db      00,00,00,00,00,00,00,00 ; ........
  2.0B58  0000000000000000         db      00,00,00,00,00,00,00,00 ; ........
  2.0B60  0000000000000000         db      00,00,00,00,00,00,00,00 ; ........
  2.0B68  0000000000000000         db      00,00,00,00,00,00,00,00 ; ........
  2.0B70  0000000000000000         db      00,00,00,00,00,00,00,00 ; ........
  2.0B78  0000000000000000         db      00,00,00,00,00,00,00,00 ; ........
  2.0B80  0000000000000000         db      00,00,00,00,00,00,00,00 ; ........
  2.0B88  0000000000000000         db      00,00,00,00,00,00,00,00 ; ........
  2.0B90  0000000000000000         db      00,00,00,00,00,00,00,00 ; ........
  2.0B98  0000000000000000         db      00,00,00,00,00,00,00,00 ; ........
  2.0BA0  0000000000000000         db      00,00,00,00,00,00,00,00 ; ........
  2.0BA8  0000000000000000         db      00,00,00,00,00,00,00,00 ; ........
  2.0BB0  0000000000000000         db      00,00,00,00,00,00,00,00 ; ........
  2.0BB8  0000000000000000         db      00,00,00,00,00,00,00,00 ; ........
  2.0BC0  0000000000000000         db      00,00,00,00,00,00,00,00 ; ........
  2.0BC8  0000000000000000         db      00,00,00,00,00,00,00,00 ; ........
  2.0BD0  0000000000000000         db      00,00,00,00,00,00,00,00 ; ........
  2.0BD8  0000000000000000         db      00,00,00,00,00,00,00,00 ; ........
  2.0BE0  0000000000000000         db      00,00,00,00,00,00,00,00 ; ........
  2.0BE8  0000000000000000         db      00,00,00,00,00,00,00,00 ; ........
  2.0BF0  0000000000000000         db      00,00,00,00,00,00,00,00 ; ........
  2.0BF8  0000000000000000         db      00,00,00,00,00,00,00,00 ; ........
  2.0C00  0000000000000000         db      00,00,00,00,00,00,00,00 ; ........
  2.0C08  0000000000000000         db      00,00,00,00,00,00,00,00 ; ........
  2.0C10  0000000000000000         db      00,00,00,00,00,00,00,00 ; ........
  2.0C18  0000000000000000         db      00,00,00,00,00,00,00,00 ; ........
  2.0C20  0000000000000000         db      00,00,00,00,00,00,00,00 ; ........
  2.0C28  0000000000000000         db      00,00,00,00,00,00,00,00 ; ........
  2.0C30  0000000000000000         db      00,00,00,00,00,00,00,00 ; ........
  2.0C38  0000000000000000         db      00,00,00,00,00,00,00,00 ; ........
  2.0C40  0000000000000000         db      00,00,00,00,00,00,00,00 ; ........
  2.0C48  0000000000000000         db      00,00,00,00,00,00,00,00 ; ........
  2.0C50  0000000000000000         db      00,00,00,00,00,00,00,00 ; ........
  2.0C58  0000000000000000         db      00,00,00,00,00,00,00,00 ; ........
  2.0C60  0000000000000000         db      00,00,00,00,00,00,00,00 ; ........
  2.0C68  0000000000000000         db      00,00,00,00,00,00,00,00 ; ........
  2.0C70  0000000000000000         db      00,00,00,00,00,00,00,00 ; ........
  2.0C78  0000000000000000         db      00,00,00,00,00,00,00,00 ; ........
  2.0C80  0000000000000000         db      00,00,00,00,00,00,00,00 ; ........
  2.0C88  0000000000000000         db      00,00,00,00,00,00,00,00 ; ........
  2.0C90  0000000000000000         db      00,00,00,00,00,00,00,00 ; ........
  2.0C98  0000000000000000         db      00,00,00,00,00,00,00,00 ; ........
  2.0CA0  0000000000000000         db      00,00,00,00,00,00,00,00 ; ........
  2.0CA8  0000000000000000         db      00,00,00,00,00,00,00,00 ; ........
  2.0CB0  0000000000000000         db      00,00,00,00,00,00,00,00 ; ........
  2.0CB8  0000000000000000         db      00,00,00,00,00,00,00,00 ; ........
  2.0CC0  0000000000000000         db      00,00,00,00,00,00,00,00 ; ........
  2.0CC8  0000000000000000         db      00,00,00,00,00,00,00,00 ; ........
  2.0CD0  0000000000000000         db      00,00,00,00,00,00,00,00 ; ........
  2.0CD8  0000000000000000         db      00,00,00,00,00,00,00,00 ; ........
  2.0CE0  0000000000000000         db      00,00,00,00,00,00,00,00 ; ........
  2.0CE8  0000000000000000         db      00,00,00,00,00,00,00,00 ; ........
  2.0CF0  0000000000000000         db      00,00,00,00,00,00,00,00 ; ........
  2.0CF8  0000000000000000         db      00,00,00,00,00,00,00,00 ; ........
  2.0D00  0000000000000000         db      00,00,00,00,00,00,00,00 ; ........
  2.0D08  0000000000000000         db      00,00,00,00,00,00,00,00 ; ........
  2.0D10  0000000000000000         db      00,00,00,00,00,00,00,00 ; ........
  2.0D18  0000000000000000         db      00,00,00,00,00,00,00,00 ; ........
  2.0D20  0000000000000000         db      00,00,00,00,00,00,00,00 ; ........
  2.0D28  0000000000000000         db      00,00,00,00,00,00,00,00 ; ........
  2.0D30  0000000000000000         db      00,00,00,00,00,00,00,00 ; ........
  2.0D38  0000000000000000         db      00,00,00,00,00,00,00,00 ; ........
  2.0D40  0000000000000000         db      00,00,00,00,00,00,00,00 ; ........
  2.0D48  0000000000000000         db      00,00,00,00,00,00,00,00 ; ........
  2.0D50  0000000000000000         db      00,00,00,00,00,00,00,00 ; ........
  2.0D58  0000000000000000         db      00,00,00,00,00,00,00,00 ; ........
  2.0D60  0000000000000000         db      00,00,00,00,00,00,00,00 ; ........
  2.0D68  0000000000000000         db      00,00,00,00,00,00,00,00 ; ........
  2.0D70  0000000000000000         db      00,00,00,00,00,00,00,00 ; ........
  2.0D78  0000000000000000         db      00,00,00,00,00,00,00,00 ; ........
  2.0D80  0000000000000000         db      00,00,00,00,00,00,00,00 ; ........
  2.0D88  0000000000000000         db      00,00,00,00,00,00,00,00 ; ........
  2.0D90  0000000000000000         db      00,00,00,00,00,00,00,00 ; ........
  2.0D98  0000000000000000         db      00,00,00,00,00,00,00,00 ; ........
  2.0DA0  0000000000000000         db      00,00,00,00,00,00,00,00 ; ........
  2.0DA8  0000000000000000         db      00,00,00,00,00,00,00,00 ; ........
  2.0DB0  0000000000000000         db      00,00,00,00,00,00,00,00 ; ........
  2.0DB8  0000000000000000         db      00,00,00,00,00,00,00,00 ; ........
  2.0DC0  0000000000000000         db      00,00,00,00,00,00,00,00 ; ........
  2.0DC8  0000000000000000         db      00,00,00,00,00,00,00,00 ; ........
  2.0DD0  0000000000000000         db      00,00,00,00,00,00,00,00 ; ........
  2.0DD8  0000000000000000         db      00,00,00,00,00,00,00,00 ; ........
  2.0DE0  0000000000000000         db      00,00,00,00,00,00,00,00 ; ........
  2.0DE8  0000000000000000         db      00,00,00,00,00,00,00,00 ; ........
  2.0DF0  0000000000000000         db      00,00,00,00,00,00,00,00 ; ........
  2.0DF8  0000000000000000         db      00,00,00,00,00,00,00,00 ; ........
  2.0E00  0000000000000000         db      00,00,00,00,00,00,00,00 ; ........
  2.0E08  0000000000000000         db      00,00,00,00,00,00,00,00 ; ........
  2.0E10  0000000000000000         db      00,00,00,00,00,00,00,00 ; ........
  2.0E18  0000000000000000         db      00,00,00,00,00,00,00,00 ; ........
  2.0E20  0000000000000000         db      00,00,00,00,00,00,00,00 ; ........
  2.0E28  0000000000000000         db      00,00,00,00,00,00,00,00 ; ........
  2.0E30  0000000000000000         db      00,00,00,00,00,00,00,00 ; ........
  2.0E38  0000000000000000         db      00,00,00,00,00,00,00,00 ; ........
  2.0E40  0000000000000000         db      00,00,00,00,00,00,00,00 ; ........
  2.0E48  0000000000000000         db      00,00,00,00,00,00,00,00 ; ........
  2.0E50  0000000000000000         db      00,00,00,00,00,00,00,00 ; ........
  2.0E58  0000000000000000         db      00,00,00,00,00,00,00,00 ; ........
  2.0E60  0000000000000000         db      00,00,00,00,00,00,00,00 ; ........
  2.0E68  0000000000000000         db      00,00,00,00,00,00,00,00 ; ........
  2.0E70  0000000000000000         db      00,00,00,00,00,00,00,00 ; ........
  2.0E78  0000000000000000         db      00,00,00,00,00,00,00,00 ; ........
  2.0E80  0000000000000000         db      00,00,00,00,00,00,00,00 ; ........
  2.0E88  0000000000000000         db      00,00,00,00,00,00,00,00 ; ........
  2.0E90  0000000000000000         db      00,00,00,00,00,00,00,00 ; ........
  2.0E98  0000000000000000         db      00,00,00,00,00,00,00,00 ; ........
  2.0EA0  0000000000000000         db      00,00,00,00,00,00,00,00 ; ........
  2.0EA8  0000000000000000         db      00,00,00,00,00,00,00,00 ; ........
  2.0EB0  0000000000000000         db      00,00,00,00,00,00,00,00 ; ........
  2.0EB8  0000000000000000         db      00,00,00,00,00,00,00,00 ; ........
  2.0EC0  0000000000000000         db      00,00,00,00,00,00,00,00 ; ........
  2.0EC8  0000000000000000         db      00,00,00,00,00,00,00,00 ; ........
  2.0ED0  0000000000000000         db      00,00,00,00,00,00,00,00 ; ........
  2.0ED8  0000000000000000         db      00,00,00,00,00,00,00,00 ; ........
  2.0EE0  0000000000000000         db      00,00,00,00,00,00,00,00 ; ........
  2.0EE8  0000000000000000         db      00,00,00,00,00,00,00,00 ; ........
  2.0EF0  0000000000000000         db      00,00,00,00,00,00,00,00 ; ........
  2.0EF8  0000000000000000         db      00,00,00,00,00,00,00,00 ; ........
  2.0F00  0000000000000000         db      00,00,00,00,00,00,00,00 ; ........
  2.0F08  0000000000000000         db      00,00,00,00,00,00,00,00 ; ........
  2.0F10  0000000000000000         db      00,00,00,00,00,00,00,00 ; ........
  2.0F18  0000000000000000         db      00,00,00,00,00,00,00,00 ; ........
  2.0F20  0000000000000000         db      00,00,00,00,00,00,00,00 ; ........
  2.0F28  0000000000000000         db      00,00,00,00,00,00,00,00 ; ........
  2.0F30  0000000000000000         db      00,00,00,00,00,00,00,00 ; ........
  2.0F38  0000000000000000         db      00,00,00,00,00,00,00,00 ; ........
  2.0F40  0000000000000000         db      00,00,00,00,00,00,00,00 ; ........
  2.0F48  0000000000000000         db      00,00,00,00,00,00,00,00 ; ........
  2.0F50  0000000000000000         db      00,00,00,00,00,00,00,00 ; ........
  2.0F58  0000000000000000         db      00,00,00,00,00,00,00,00 ; ........
  2.0F60  0000000000000000         db      00,00,00,00,00,00,00,00 ; ........
  2.0F68  0000000000000000         db      00,00,00,00,00,00,00,00 ; ........
  2.0F70  0000000000000000         db      00,00,00,00,00,00,00,00 ; ........
  2.0F78  0000000000000000         db      00,00,00,00,00,00,00,00 ; ........
  2.0F80  0000000000000000         db      00,00,00,00,00,00,00,00 ; ........
  2.0F88  0000000000000000         db      00,00,00,00,00,00,00,00 ; ........
  2.0F90  0000000000000000         db      00,00,00,00,00,00,00,00 ; ........
  2.0F98  0000000000000000         db      00,00,00,00,00,00,00,00 ; ........
  2.0FA0  0000000000000000         db      00,00,00,00,00,00,00,00 ; ........
  2.0FA8  0000000000000000         db      00,00,00,00,00,00,00,00 ; ........
  2.0FB0  0000000000000000         db      00,00,00,00,00,00,00,00 ; ........
  2.0FB8  0000000000000000         db      00,00,00,00,00,00,00,00 ; ........
  2.0FC0  0000000000000000         db      00,00,00,00,00,00,00,00 ; ........
  2.0FC8  0000000000000000         db      00,00,00,00,00,00,00,00 ; ........
  2.0FD0  0000000000000000         db      00,00,00,00,00,00,00,00 ; ........
  2.0FD8  0000000000000000         db      00,00,00,00,00,00,00,00 ; ........
  2.0FE0  0000000000000000         db      00,00,00,00,00,00,00,00 ; ........
  2.0FE8  0000000000000000         db      00,00,00,00,00,00,00,00 ; ........
  2.0FF0  0000000000000000         db      00,00,00,00,00,00,00,00 ; ........
  2.0FF8  0000000000000000         db      00,00,00,00,00,00,00,00 ; ........
  2.1000  0000000000000000         db      00,00,00,00,00,00,00,00 ; ........
  2.1008  0000000000000000         db      00,00,00,00,00,00,00,00 ; ........
  2.1010  0000000000000000         db      00,00,00,00,00,00,00,00 ; ........
  2.1018  0000000000000000         db      00,00,00,00,00,00,00,00 ; ........
  2.1020  0000000000000000         db      00,00,00,00,00,00,00,00 ; ........
  2.1028  0000000000000000         db      00,00,00,00,00,00,00,00 ; ........
  2.1030  0000000000000000         db      00,00,00,00,00,00,00,00 ; ........
  2.1038  0000000000000000         db      00,00,00,00,00,00,00,00 ; ........
  2.1040  0000000000000000         db      00,00,00,00,00,00,00,00 ; ........
  2.1048  0000000000000000         db      00,00,00,00,00,00,00,00 ; ........
  2.1050  0000000000000000         db      00,00,00,00,00,00,00,00 ; ........
  2.1058  0000000000000000         db      00,00,00,00,00,00,00,00 ; ........
  2.1060  0000000000000000         db      00,00,00,00,00,00,00,00 ; ........
  2.1068  0000000000000000         db      00,00,00,00,00,00,00,00 ; ........
  2.1070  0000000000000000         db      00,00,00,00,00,00,00,00 ; ........
  2.1078  0000000000000000         db      00,00,00,00,00,00,00,00 ; ........
  2.1080  0000000000000000         db      00,00,00,00,00,00,00,00 ; ........
  2.1088  0000000000000000         db      00,00,00,00,00,00,00,00 ; ........
  2.1090  0000000000000000         db      00,00,00,00,00,00,00,00 ; ........
  2.1098  0000000000000000         db      00,00,00,00,00,00,00,00 ; ........
  2.10A0  0000000000000000         db      00,00,00,00,00,00,00,00 ; ........
  2.10A8  0000000000000000         db      00,00,00,00,00,00,00,00 ; ........
  2.10B0  0000000000000000         db      00,00,00,00,00,00,00,00 ; ........
  2.10B8  0000000000000000         db      00,00,00,00,00,00,00,00 ; ........
  2.10C0  0000000000000000         db      00,00,00,00,00,00,00,00 ; ........
  2.10C8  0000000000000000         db      00,00,00,00,00,00,00,00 ; ........
  2.10D0  0000000000000000         db      00,00,00,00,00,00,00,00 ; ........
  2.10D8  0000000000000000         db      00,00,00,00,00,00,00,00 ; ........
  2.10E0  0000000000000000         db      00,00,00,00,00,00,00,00 ; ........
  2.10E8  0000000000000000         db      00,00,00,00,00,00,00,00 ; ........
  2.10F0  0000000000000000         db      00,00,00,00,00,00,00,00 ; ........
  2.10F8  0000000000000000         db      00,00,00,00,00,00,00,00 ; ........
  2.1100  0000000000000000         db      00,00,00,00,00,00,00,00 ; ........
  2.1108  0000000000000000         db      00,00,00,00,00,00,00,00 ; ........
  2.1110  0000000000000000         db      00,00,00,00,00,00,00,00 ; ........
  2.1118  0000000000000000         db      00,00,00,00,00,00,00,00 ; ........
  2.1120  0000000000000000         db      00,00,00,00,00,00,00,00 ; ........
  2.1128  0000000000000000         db      00,00,00,00,00,00,00,00 ; ........
  2.1130  0000000000000000         db      00,00,00,00,00,00,00,00 ; ........
  2.1138  0000000000000000         db      00,00,00,00,00,00,00,00 ; ........
  2.1140  0000000000000000         db      00,00,00,00,00,00,00,00 ; ........
  2.1148  0000000000000000         db      00,00,00,00,00,00,00,00 ; ........
  2.1150  0000000000000000         db      00,00,00,00,00,00,00,00 ; ........
  2.1158  0000000000000000         db      00,00,00,00,00,00,00,00 ; ........
  2.1160  0000000000000000         db      00,00,00,00,00,00,00,00 ; ........
  2.1168  0000000000000000         db      00,00,00,00,00,00,00,00 ; ........
  2.1170  0000000000000000         db      00,00,00,00,00,00,00,00 ; ........
  2.1178  0000000000000000         db      00,00,00,00,00,00,00,00 ; ........
  2.1180  0000000000000000         db      00,00,00,00,00,00,00,00 ; ........
  2.1188  0000000000000000         db      00,00,00,00,00,00,00,00 ; ........
  2.1190  0000000000000000         db      00,00,00,00,00,00,00,00 ; ........
  2.1198  0000000000000000         db      00,00,00,00,00,00,00,00 ; ........
  2.11A0  0000000000000000         db      00,00,00,00,00,00,00,00 ; ........
  2.11A8  0000000000000000         db      00,00,00,00,00,00,00,00 ; ........
  2.11B0  0000000000000000         db      00,00,00,00,00,00,00,00 ; ........
  2.11B8  0000000000000000         db      00,00,00,00,00,00,00,00 ; ........
  2.11C0  0000000000000000         db      00,00,00,00,00,00,00,00 ; ........
  2.11C8  0000000000000000         db      00,00,00,00,00,00,00,00 ; ........
  2.11D0  0000000000000000         db      00,00,00,00,00,00,00,00 ; ........
  2.11D8  0000000000000000         db      00,00,00,00,00,00,00,00 ; ........
  2.11E0  0000000000000000         db      00,00,00,00,00,00,00,00 ; ........
  2.11E8  0000000000000000         db      00,00,00,00,00,00,00,00 ; ........
  2.11F0  0000000000000000         db      00,00,00,00,00,00,00,00 ; ........
  2.11F8  0000000000000000         db      00,00,00,00,00,00,00,00 ; ........
  2.1200  0000000000000000         db      00,00,00,00,00,00,00,00 ; ........
  2.1208  0000000000000000         db      00,00,00,00,00,00,00,00 ; ........
  2.1210  0000000000000000         db      00,00,00,00,00,00,00,00 ; ........
  2.1218  0000000000000000         db      00,00,00,00,00,00,00,00 ; ........
  2.1220  0000000000000000         db      00,00,00,00,00,00,00,00 ; ........
  2.1228  0000000000000000         db      00,00,00,00,00,00,00,00 ; ........
  2.1230  0000000000000000         db      00,00,00,00,00,00,00,00 ; ........
  2.1238  0000000000000000         db      00,00,00,00,00,00,00,00 ; ........
  2.1240  0000000000000000         db      00,00,00,00,00,00,00,00 ; ........
  2.1248  0000000000000000         db      00,00,00,00,00,00,00,00 ; ........
  2.1250  0000000000000000         db      00,00,00,00,00,00,00,00 ; ........
  2.1258  0000000000000000         db      00,00,00,00,00,00,00,00 ; ........
  2.1260  0000000000000000         db      00,00,00,00,00,00,00,00 ; ........
  2.1268  0000000000000000         db      00,00,00,00,00,00,00,00 ; ........
  2.1270  0000000000000000         db      00,00,00,00,00,00,00,00 ; ........
  2.1278  0000000000000000         db      00,00,00,00,00,00,00,00 ; ........
  2.1280  0000000000000000         db      00,00,00,00,00,00,00,00 ; ........
  2.1288  0000000000000000         db      00,00,00,00,00,00,00,00 ; ........
  2.1290  0000000000000000         db      00,00,00,00,00,00,00,00 ; ........
  2.1298  0000000000000000         db      00,00,00,00,00,00,00,00 ; ........
  2.12A0  0000000000000000         db      00,00,00,00,00,00,00,00 ; ........
  2.12A8  0000000000000000         db      00,00,00,00,00,00,00,00 ; ........
  2.12B0  0000000000000000         db      00,00,00,00,00,00,00,00 ; ........
  2.12B8  0000000000000000         db      00,00,00,00,00,00,00,00 ; ........
  2.12C0  0000000000000000         db      00,00,00,00,00,00,00,00 ; ........
  2.12C8  0000000000000000         db      00,00,00,00,00,00,00,00 ; ........
  2.12D0  0000000000000000         db      00,00,00,00,00,00,00,00 ; ........
  2.12D8  0000000000000000         db      00,00,00,00,00,00,00,00 ; ........
  2.12E0  0000000000000000         db      00,00,00,00,00,00,00,00 ; ........
  2.12E8  0000000000000000         db      00,00,00,00,00,00,00,00 ; ........
  2.12F0  0000000000000000         db      00,00,00,00,00,00,00,00 ; ........
  2.12F8  0000000000000000         db      00,00,00,00,00,00,00,00 ; ........
  2.1300  0000000000000000         db      00,00,00,00,00,00,00,00 ; ........
  2.1308  0000000000000000         db      00,00,00,00,00,00,00,00 ; ........
  2.1310  0000000000000000         db      00,00,00,00,00,00,00,00 ; ........
  2.1318  0000000000000000         db      00,00,00,00,00,00,00,00 ; ........
  2.1320  0000000000000000         db      00,00,00,00,00,00,00,00 ; ........
  2.1328  0000000000000000         db      00,00,00,00,00,00,00,00 ; ........
  2.1330  0000000000000000         db      00,00,00,00,00,00,00,00 ; ........
  2.1338  0000000000000000         db      00,00,00,00,00,00,00,00 ; ........
  2.1340  0000000000000000         db      00,00,00,00,00,00,00,00 ; ........
  2.1348  0000000000000000         db      00,00,00,00,00,00,00,00 ; ........
  2.1350  0000000000000000         db      00,00,00,00,00,00,00,00 ; ........
  2.1358  0000000000000000         db      00,00,00,00,00,00,00,00 ; ........
  2.1360  0000000000000000         db      00,00,00,00,00,00,00,00 ; ........
  2.1368  0000000000000000         db      00,00,00,00,00,00,00,00 ; ........
  2.1370  0000000000000000         db      00,00,00,00,00,00,00,00 ; ........
  2.1378  0000000000000000         db      00,00,00,00,00,00,00,00 ; ........
  2.1380  0000000000000000         db      00,00,00,00,00,00,00,00 ; ........
  2.1388  0000000000000000         db      00,00,00,00,00,00,00,00 ; ........
  2.1390  0000000000000000         db      00,00,00,00,00,00,00,00 ; ........
  2.1398  0000000000000000         db      00,00,00,00,00,00,00,00 ; ........
  2.13A0  0000000000000000         db      00,00,00,00,00,00,00,00 ; ........
  2.13A8  0000000000000000         db      00,00,00,00,00,00,00,00 ; ........
  2.13B0  0000000000000000         db      00,00,00,00,00,00,00,00 ; ........
  2.13B8  0000000000000000         db      00,00,00,00,00,00,00,00 ; ........
  2.13C0  0000000000000000         db      00,00,00,00,00,00,00,00 ; ........
  2.13C8  0000000000000000         db      00,00,00,00,00,00,00,00 ; ........
  2.13D0  0000000000000000         db      00,00,00,00,00,00,00,00 ; ........
  2.13D8  0000000000000000         db      00,00,00,00,00,00,00,00 ; ........
  2.13E0  0000000000000000         db      00,00,00,00,00,00,00,00 ; ........
  2.13E8  0000000000000000         db      00,00,00,00,00,00,00,00 ; ........
  2.13F0  0000000000000000         db      00,00,00,00,00,00,00,00 ; ........
  2.13F8  0000000000000000         db      00,00,00,00,00,00,00,00 ; ........
  2.1400  0000000000000000         db      00,00,00,00,00,00,00,00 ; ........
  2.1408  0000000000000000         db      00,00,00,00,00,00,00,00 ; ........
  2.1410  0000000000000000         db      00,00,00,00,00,00,00,00 ; ........
  2.1418  0000000000000000         db      00,00,00,00,00,00,00,00 ; ........
  2.1420  0000000000000000         db      00,00,00,00,00,00,00,00 ; ........
  2.1428  0000000000000000         db      00,00,00,00,00,00,00,00 ; ........
  2.1430  0000000000000000         db      00,00,00,00,00,00,00,00 ; ........
  2.1438  0000000000000000         db      00,00,00,00,00,00,00,00 ; ........
  2.1440  0000000000000000         db      00,00,00,00,00,00,00,00 ; ........
  2.1448  0000000000000000         db      00,00,00,00,00,00,00,00 ; ........
  2.1450  0000000000000000         db      00,00,00,00,00,00,00,00 ; ........
  2.1458  0000000000000000         db      00,00,00,00,00,00,00,00 ; ........
  2.1460  0000000000000000         db      00,00,00,00,00,00,00,00 ; ........
  2.1468  0000000000000000         db      00,00,00,00,00,00,00,00 ; ........
  2.1470  0000000000000000         db      00,00,00,00,00,00,00,00 ; ........
  2.1478  0000000000000000         db      00,00,00,00,00,00,00,00 ; ........
  2.1480  0000000000000000         db      00,00,00,00,00,00,00,00 ; ........
  2.1488  0000000000000000         db      00,00,00,00,00,00,00,00 ; ........
  2.1490  0000000000000000         db      00,00,00,00,00,00,00,00 ; ........
  2.1498  0000000000000000         db      00,00,00,00,00,00,00,00 ; ........
  2.14A0  0000000000000000         db      00,00,00,00,00,00,00,00 ; ........
  2.14A8  0000000000000000         db      00,00,00,00,00,00,00,00 ; ........
  2.14B0  0000000000000000         db      00,00,00,00,00,00,00,00 ; ........
  2.14B8  0000000000000000         db      00,00,00,00,00,00,00,00 ; ........
  2.14C0  0000000000000000         db      00,00,00,00,00,00,00,00 ; ........
  2.14C8  0000000000000000         db      00,00,00,00,00,00,00,00 ; ........
  2.14D0  0000000000000000         db      00,00,00,00,00,00,00,00 ; ........
  2.14D8  0000000000000000         db      00,00,00,00,00,00,00,00 ; ........
  2.14E0  0000000000000000         db      00,00,00,00,00,00,00,00 ; ........
  2.14E8  0000000000000000         db      00,00,00,00,00,00,00,00 ; ........
  2.14F0  0000000000000000         db      00,00,00,00,00,00,00,00 ; ........
  2.14F8  0000000000000000         db      00,00,00,00,00,00,00,00 ; ........
  2.1500  0000000000000000         db      00,00,00,00,00,00,00,00 ; ........
  2.1508  0000000000000000         db      00,00,00,00,00,00,00,00 ; ........
  2.1510  0000000000000000         db      00,00,00,00,00,00,00,00 ; ........
  2.1518  0000000000000000         db      00,00,00,00,00,00,00,00 ; ........
  2.1520  0000000000000000         db      00,00,00,00,00,00,00,00 ; ........
  2.1528  0000000000000000         db      00,00,00,00,00,00,00,00 ; ........
  2.1530  0000000000000000         db      00,00,00,00,00,00,00,00 ; ........
  2.1538  0000000000000000         db      00,00,00,00,00,00,00,00 ; ........
  2.1540  0000000000000000         db      00,00,00,00,00,00,00,00 ; ........
  2.1548  0000000000000000         db      00,00,00,00,00,00,00,00 ; ........
  2.1550  0000000000000000         db      00,00,00,00,00,00,00,00 ; ........
  2.1558  0000000000000000         db      00,00,00,00,00,00,00,00 ; ........
  2.1560  0000000000000000         db      00,00,00,00,00,00,00,00 ; ........
  2.1568  0000000000000000         db      00,00,00,00,00,00,00,00 ; ........
  2.1570  0000000000000000         db      00,00,00,00,00,00,00,00 ; ........
  2.1578  0000000000000000         db      00,00,00,00,00,00,00,00 ; ........
  2.1580  0000000000000000         db      00,00,00,00,00,00,00,00 ; ........
  2.1588  0000000000000000         db      00,00,00,00,00,00,00,00 ; ........
  2.1590  0000000000000000         db      00,00,00,00,00,00,00,00 ; ........
  2.1598  0000000000000000         db      00,00,00,00,00,00,00,00 ; ........
  2.15A0  0000000000000000         db      00,00,00,00,00,00,00,00 ; ........
  2.15A8  0000000000000000         db      00,00,00,00,00,00,00,00 ; ........
  2.15B0  0000000000000000         db      00,00,00,00,00,00,00,00 ; ........
  2.15B8  0000000000000000         db      00,00,00,00,00,00,00,00 ; ........
  2.15C0  0000000000000000         db      00,00,00,00,00,00,00,00 ; ........
  2.15C8  0000000000000000         db      00,00,00,00,00,00,00,00 ; ........
  2.15D0  0000000000000000         db      00,00,00,00,00,00,00,00 ; ........
  2.15D8  0000000000000000         db      00,00,00,00,00,00,00,00 ; ........
  2.15E0  0000000000000000         db      00,00,00,00,00,00,00,00 ; ........
  2.15E8  0000000000000000         db      00,00,00,00,00,00,00,00 ; ........
  2.15F0  0000000000000000         db      00,00,00,00,00,00,00,00 ; ........
  2.15F8  0000000000000000         db      00,00,00,00,00,00,00,00 ; ........
  2.1600  0000000000000000         db      00,00,00,00,00,00,00,00 ; ........
  2.1608  0000000000000000         db      00,00,00,00,00,00,00,00 ; ........
  2.1610  0000000000000000         db      00,00,00,00,00,00,00,00 ; ........
  2.1618  0000000000000000         db      00,00,00,00,00,00,00,00 ; ........
  2.1620  0000000000000000         db      00,00,00,00,00,00,00,00 ; ........
  2.1628  0000000000000000         db      00,00,00,00,00,00,00,00 ; ........
  2.1630  0000000000000000         db      00,00,00,00,00,00,00,00 ; ........
  2.1638  0000000000000000         db      00,00,00,00,00,00,00,00 ; ........
  2.1640  0000000000000000         db      00,00,00,00,00,00,00,00 ; ........
  2.1648  0000000000000000         db      00,00,00,00,00,00,00,00 ; ........
  2.1650  0000000000000000         db      00,00,00,00,00,00,00,00 ; ........
  2.1658  0000000000000000         db      00,00,00,00,00,00,00,00 ; ........
  2.1660  0000000000000000         db      00,00,00,00,00,00,00,00 ; ........
  2.1668  0000000000000000         db      00,00,00,00,00,00,00,00 ; ........
  2.1670  0000000000000000         db      00,00,00,00,00,00,00,00 ; ........
  2.1678  0000000000000000         db      00,00,00,00,00,00,00,00 ; ........
  2.1680  0000000000000000         db      00,00,00,00,00,00,00,00 ; ........
  2.1688  0000000000000000         db      00,00,00,00,00,00,00,00 ; ........
  2.1690  0000000000000000         db      00,00,00,00,00,00,00,00 ; ........
  2.1698  0000000000000000         db      00,00,00,00,00,00,00,00 ; ........
  2.16A0  0000000000000000         db      00,00,00,00,00,00,00,00 ; ........
  2.16A8  0000000000000000         db      00,00,00,00,00,00,00,00 ; ........
  2.16B0  0000000000000000         db      00,00,00,00,00,00,00,00 ; ........
  2.16B8  0000000000000000         db      00,00,00,00,00,00,00,00 ; ........
  2.16C0  0000000000000000         db      00,00,00,00,00,00,00,00 ; ........
  2.16C8  0000000000000000         db      00,00,00,00,00,00,00,00 ; ........
  2.16D0  0000000000000000         db      00,00,00,00,00,00,00,00 ; ........
  2.16D8  0000000000000000         db      00,00,00,00,00,00,00,00 ; ........
  2.16E0  0000000000000000         db      00,00,00,00,00,00,00,00 ; ........
  2.16E8  0000000000000000         db      00,00,00,00,00,00,00,00 ; ........
  2.16F0  0000000000000000         db      00,00,00,00,00,00,00,00 ; ........
  2.16F8  0000000000000000         db      00,00,00,00,00,00,00,00 ; ........
  2.1700  0000000000000000         db      00,00,00,00,00,00,00,00 ; ........
  2.1708  0000000000000000         db      00,00,00,00,00,00,00,00 ; ........
  2.1710  0000000000000000         db      00,00,00,00,00,00,00,00 ; ........
  2.1718  0000000000000000         db      00,00,00,00,00,00,00,00 ; ........
  2.1720  0000000000000000         db      00,00,00,00,00,00,00,00 ; ........
  2.1728  0000000000000000         db      00,00,00,00,00,00,00,00 ; ........
  2.1730  0000000000000000         db      00,00,00,00,00,00,00,00 ; ........
  2.1738  0000000000000000         db      00,00,00,00,00,00,00,00 ; ........
  2.1740  0000000000000000         db      00,00,00,00,00,00,00,00 ; ........
  2.1748  0000000000000000         db      00,00,00,00,00,00,00,00 ; ........
  2.1750  0000000000000000         db      00,00,00,00,00,00,00,00 ; ........
  2.1758  0000000000000000         db      00,00,00,00,00,00,00,00 ; ........
  2.1760  0000000000000000         db      00,00,00,00,00,00,00,00 ; ........
  2.1768  0000000000000000         db      00,00,00,00,00,00,00,00 ; ........
  2.1770  0000000000000000         db      00,00,00,00,00,00,00,00 ; ........
  2.1778  0000000000000000         db      00,00,00,00,00,00,00,00 ; ........
  2.1780  0000000000000000         db      00,00,00,00,00,00,00,00 ; ........
  2.1788  0000000000000000         db      00,00,00,00,00,00,00,00 ; ........
  2.1790  0000000000000000         db      00,00,00,00,00,00,00,00 ; ........
  2.1798  0000000000000000         db      00,00,00,00,00,00,00,00 ; ........
  2.17A0  0000000000000000         db      00,00,00,00,00,00,00,00 ; ........
  2.17A8  0000000000000000         db      00,00,00,00,00,00,00,00 ; ........
  2.17B0  0000000000000000         db      00,00,00,00,00,00,00,00 ; ........
  2.17B8  0000000000000000         db      00,00,00,00,00,00,00,00 ; ........
  2.17C0  0000000000000000         db      00,00,00,00,00,00,00,00 ; ........
  2.17C8  0000000000000000         db      00,00,00,00,00,00,00,00 ; ........
  2.17D0  0000000000000000         db      00,00,00,00,00,00,00,00 ; ........
  2.17D8  0000000000000000         db      00,00,00,00,00,00,00,00 ; ........
  2.17E0  0000000000000000         db      00,00,00,00,00,00,00,00 ; ........
  2.17E8  0000000000000000         db      00,00,00,00,00,00,00,00 ; ........
  2.17F0  0000000000000000         db      00,00,00,00,00,00,00,00 ; ........
  2.17F8  0000000000000000         db      00,00,00,00,00,00,00,00 ; ........
  2.1800  0000000000000000         db      00,00,00,00,00,00,00,00 ; ........
  2.1808  0000000000000000         db      00,00,00,00,00,00,00,00 ; ........
  2.1810  0000000000000000         db      00,00,00,00,00,00,00,00 ; ........
  2.1818  0000000000000000         db      00,00,00,00,00,00,00,00 ; ........
  2.1820  0000000000000000         db      00,00,00,00,00,00,00,00 ; ........
  2.1828  0000000000000000         db      00,00,00,00,00,00,00,00 ; ........
  2.1830  0000000000000000         db      00,00,00,00,00,00,00,00 ; ........
  2.1838  0000000000000000         db      00,00,00,00,00,00,00,00 ; ........
  2.1840  0000000000000000         db      00,00,00,00,00,00,00,00 ; ........
  2.1848  0000000000000000         db      00,00,00,00,00,00,00,00 ; ........
  2.1850  0000000000000000         db      00,00,00,00,00,00,00,00 ; ........
  2.1858  0000000000000000         db      00,00,00,00,00,00,00,00 ; ........
  2.1860  0000000000000000         db      00,00,00,00,00,00,00,00 ; ........
  2.1868  0000000000000000         db      00,00,00,00,00,00,00,00 ; ........
  2.1870  0000000000000000         db      00,00,00,00,00,00,00,00 ; ........
  2.1878  0000000000000000         db      00,00,00,00,00,00,00,00 ; ........
  2.1880  0000000000000000         db      00,00,00,00,00,00,00,00 ; ........
  2.1888  0000000000000000         db      00,00,00,00,00,00,00,00 ; ........
  2.1890  0000000000000000         db      00,00,00,00,00,00,00,00 ; ........
  2.1898  0000000000000000         db      00,00,00,00,00,00,00,00 ; ........
  2.18A0  0000000000000000         db      00,00,00,00,00,00,00,00 ; ........
  2.18A8  0000000000000000         db      00,00,00,00,00,00,00,00 ; ........
  2.18B0  0000000000000000         db      00,00,00,00,00,00,00,00 ; ........
  2.18B8  0000000000000000         db      00,00,00,00,00,00,00,00 ; ........
  2.18C0  0000000000000000         db      00,00,00,00,00,00,00,00 ; ........
  2.18C8  0000000000000000         db      00,00,00,00,00,00,00,00 ; ........
  2.18D0  0000000000000000         db      00,00,00,00,00,00,00,00 ; ........
  2.18D8  0000000000000000         db      00,00,00,00,00,00,00,00 ; ........
  2.18E0  0000000000000000         db      00,00,00,00,00,00,00,00 ; ........
  2.18E8  0000000000000000         db      00,00,00,00,00,00,00,00 ; ........
  2.18F0  0000000000000000         db      00,00,00,00,00,00,00,00 ; ........
  2.18F8  0000000000000000         db      00,00,00,00,00,00,00,00 ; ........
  2.1900  0000000000000000         db      00,00,00,00,00,00,00,00 ; ........
  2.1908  0000000000000000         db      00,00,00,00,00,00,00,00 ; ........
  2.1910  0000000000000000         db      00,00,00,00,00,00,00,00 ; ........
  2.1918  0000000000000000         db      00,00,00,00,00,00,00,00 ; ........
  2.1920  0000000000000000         db      00,00,00,00,00,00,00,00 ; ........
  2.1928  0000000000000000         db      00,00,00,00,00,00,00,00 ; ........
  2.1930  0000000000000000         db      00,00,00,00,00,00,00,00 ; ........
  2.1938  0000000000000000         db      00,00,00,00,00,00,00,00 ; ........
  2.1940  0000000000000000         db      00,00,00,00,00,00,00,00 ; ........
  2.1948  0000000000000000         db      00,00,00,00,00,00,00,00 ; ........
  2.1950  0000000000000000         db      00,00,00,00,00,00,00,00 ; ........
  2.1958  0000000000000000         db      00,00,00,00,00,00,00,00 ; ........
  2.1960  0000000000000000         db      00,00,00,00,00,00,00,00 ; ........
  2.1968  0000000000000000         db      00,00,00,00,00,00,00,00 ; ........
  2.1970  0000000000000000         db      00,00,00,00,00,00,00,00 ; ........
  2.1978  0000000000000000         db      00,00,00,00,00,00,00,00 ; ........
  2.1980  0000000000000000         db      00,00,00,00,00,00,00,00 ; ........
  2.1988  0000000000000000         db      00,00,00,00,00,00,00,00 ; ........
  2.1990  0000000000000000         db      00,00,00,00,00,00,00,00 ; ........
  2.1998  0000000000000000         db      00,00,00,00,00,00,00,00 ; ........
  2.19A0  0000000000000000         db      00,00,00,00,00,00,00,00 ; ........
  2.19A8  0000000000000000         db      00,00,00,00,00,00,00,00 ; ........
  2.19B0  0000000000000000         db      00,00,00,00,00,00,00,00 ; ........
  2.19B8  0000000000000000         db      00,00,00,00,00,00,00,00 ; ........
  2.19C0  0000000000000000         db      00,00,00,00,00,00,00,00 ; ........
  2.19C8  0000000000000000         db      00,00,00,00,00,00,00,00 ; ........
  2.19D0  0000000000000000         db      00,00,00,00,00,00,00,00 ; ........
  2.19D8  0000000000000000         db      00,00,00,00,00,00,00,00 ; ........
  2.19E0  0000000000000000         db      00,00,00,00,00,00,00,00 ; ........
  2.19E8  0000000000000000         db      00,00,00,00,00,00,00,00 ; ........
  2.19F0  0000000000000000         db      00,00,00,00,00,00,00,00 ; ........
  2.19F8  0000000000000000         db      00,00,00,00,00,00,00,00 ; ........
  2.1A00  0000000000000000         db      00,00,00,00,00,00,00,00 ; ........
  2.1A08  0000000000000000         db      00,00,00,00,00,00,00,00 ; ........
  2.1A10  0000000000000000         db      00,00,00,00,00,00,00,00 ; ........
  2.1A18  0000000000000000         db      00,00,00,00,00,00,00,00 ; ........
  2.1A20  0000000000000000         db      00,00,00,00,00,00,00,00 ; ........
  2.1A28  0000000000000000         db      00,00,00,00,00,00,00,00 ; ........
  2.1A30  0000000000000000         db      00,00,00,00,00,00,00,00 ; ........
  2.1A38  0000000000000000         db      00,00,00,00,00,00,00,00 ; ........
  2.1A40  0000000000000000         db      00,00,00,00,00,00,00,00 ; ........
  2.1A48  0000000000000000         db      00,00,00,00,00,00,00,00 ; ........
  2.1A50  0000000000000000         db      00,00,00,00,00,00,00,00 ; ........
  2.1A58  0000000000000000         db      00,00,00,00,00,00,00,00 ; ........
  2.1A60  0000000000000000         db      00,00,00,00,00,00,00,00 ; ........
  2.1A68  0000000000000000         db      00,00,00,00,00,00,00,00 ; ........
  2.1A70  0000000000000000         db      00,00,00,00,00,00,00,00 ; ........
  2.1A78  0000000000000000         db      00,00,00,00,00,00,00,00 ; ........
  2.1A80  0000000000000000         db      00,00,00,00,00,00,00,00 ; ........
  2.1A88  0000000000000000         db      00,00,00,00,00,00,00,00 ; ........
  2.1A90  0000000000000000         db      00,00,00,00,00,00,00,00 ; ........
  2.1A98  0000000000000000         db      00,00,00,00,00,00,00,00 ; ........
  2.1AA0  0000000000000000         db      00,00,00,00,00,00,00,00 ; ........
  2.1AA8  0000000000000000         db      00,00,00,00,00,00,00,00 ; ........
  2.1AB0  0000000000000000         db      00,00,00,00,00,00,00,00 ; ........
  2.1AB8  0000000000000000         db      00,00,00,00,00,00,00,00 ; ........
  2.1AC0  0000000000000000         db      00,00,00,00,00,00,00,00 ; ........
  2.1AC8  0000000000000000         db      00,00,00,00,00,00,00,00 ; ........
  2.1AD0  0000000000000000         db      00,00,00,00,00,00,00,00 ; ........
  2.1AD8  0000000000000000         db      00,00,00,00,00,00,00,00 ; ........
  2.1AE0  0000000000000000         db      00,00,00,00,00,00,00,00 ; ........
  2.1AE8  0000000000000000         db      00,00,00,00,00,00,00,00 ; ........
  2.1AF0  0000000000000000         db      00,00,00,00,00,00,00,00 ; ........
  2.1AF8  0000000000000000         db      00,00,00,00,00,00,00,00 ; ........
  2.1B00  0000000000000000         db      00,00,00,00,00,00,00,00 ; ........
  2.1B08  0000000000000000         db      00,00,00,00,00,00,00,00 ; ........
  2.1B10  0000000000000000         db      00,00,00,00,00,00,00,00 ; ........
  2.1B18  0000000000000000         db      00,00,00,00,00,00,00,00 ; ........
  2.1B20  0000000000000000         db      00,00,00,00,00,00,00,00 ; ........
  2.1B28  0000000000000000         db      00,00,00,00,00,00,00,00 ; ........
  2.1B30  0000000000000000         db      00,00,00,00,00,00,00,00 ; ........
  2.1B38  0000000000000000         db      00,00,00,00,00,00,00,00 ; ........
  2.1B40  0000000000000000         db      00,00,00,00,00,00,00,00 ; ........
  2.1B48  0000000000000000         db      00,00,00,00,00,00,00,00 ; ........
  2.1B50  0000000000000000         db      00,00,00,00,00,00,00,00 ; ........
  2.1B58  0000000000000000         db      00,00,00,00,00,00,00,00 ; ........
  2.1B60  0000000000000000         db      00,00,00,00,00,00,00,00 ; ........
  2.1B68  0000000000000000         db      00,00,00,00,00,00,00,00 ; ........
  2.1B70  0000000000000000         db      00,00,00,00,00,00,00,00 ; ........
  2.1B78  0000000000000000         db      00,00,00,00,00,00,00,00 ; ........
  2.1B80  0000000000000000         db      00,00,00,00,00,00,00,00 ; ........
  2.1B88  0000000000000000         db      00,00,00,00,00,00,00,00 ; ........
  2.1B90  0000000000000000         db      00,00,00,00,00,00,00,00 ; ........
  2.1B98  0000000000000000         db      00,00,00,00,00,00,00,00 ; ........
  2.1BA0  0000000000000000         db      00,00,00,00,00,00,00,00 ; ........
  2.1BA8  0000000000000000         db      00,00,00,00,00,00,00,00 ; ........
  2.1BB0  0000000000000000         db      00,00,00,00,00,00,00,00 ; ........
  2.1BB8  0000000000000000         db      00,00,00,00,00,00,00,00 ; ........
  2.1BC0  0000000000000000         db      00,00,00,00,00,00,00,00 ; ........
  2.1BC8  0000000000000000         db      00,00,00,00,00,00,00,00 ; ........
  2.1BD0  0000000000000000         db      00,00,00,00,00,00,00,00 ; ........
  2.1BD8  0000000000000000         db      00,00,00,00,00,00,00,00 ; ........
  2.1BE0  0000000000000000         db      00,00,00,00,00,00,00,00 ; ........
  2.1BE8  0000000000000000         db      00,00,00,00,00,00,00,00 ; ........
  2.1BF0  0000000000000000         db      00,00,00,00,00,00,00,00 ; ........
  2.1BF8  0000000000000000         db      00,00,00,00,00,00,00,00 ; ........
  2.1C00  0000000000000000         db      00,00,00,00,00,00,00,00 ; ........
  2.1C08  0000000000000000         db      00,00,00,00,00,00,00,00 ; ........
  2.1C10  0000000000000000         db      00,00,00,00,00,00,00,00 ; ........
  2.1C18  0000000000000000         db      00,00,00,00,00,00,00,00 ; ........
  2.1C20  0000000000000000         db      00,00,00,00,00,00,00,00 ; ........
  2.1C28  0000000000000000         db      00,00,00,00,00,00,00,00 ; ........
  2.1C30  0000000000000000         db      00,00,00,00,00,00,00,00 ; ........
  2.1C38  0000000000000000         db      00,00,00,00,00,00,00,00 ; ........
  2.1C40  0000000000000000         db      00,00,00,00,00,00,00,00 ; ........
  2.1C48  0000000000000000         db      00,00,00,00,00,00,00,00 ; ........
  2.1C50  0000000000000000         db      00,00,00,00,00,00,00,00 ; ........
  2.1C58  0000000000000000         db      00,00,00,00,00,00,00,00 ; ........
  2.1C60  0000000000000000         db      00,00,00,00,00,00,00,00 ; ........
  2.1C68  0000000000000000         db      00,00,00,00,00,00,00,00 ; ........
  2.1C70  0000000000000000         db      00,00,00,00,00,00,00,00 ; ........
  2.1C78  0000000000000000         db      00,00,00,00,00,00,00,00 ; ........
  2.1C80  0000000000000000         db      00,00,00,00,00,00,00,00 ; ........
  2.1C88  0000000000000000         db      00,00,00,00,00,00,00,00 ; ........
  2.1C90  0000000000000000         db      00,00,00,00,00,00,00,00 ; ........
  2.1C98  0000000000000000         db      00,00,00,00,00,00,00,00 ; ........
  2.1CA0  0000000000000000         db      00,00,00,00,00,00,00,00 ; ........
  2.1CA8  0000000000000000         db      00,00,00,00,00,00,00,00 ; ........
  2.1CB0  0000000000000000         db      00,00,00,00,00,00,00,00 ; ........
  2.1CB8  0000000000000000         db      00,00,00,00,00,00,00,00 ; ........
  2.1CC0  0000000000000000         db      00,00,00,00,00,00,00,00 ; ........
  2.1CC8  0000000000000000         db      00,00,00,00,00,00,00,00 ; ........
  2.1CD0  0000000000000000         db      00,00,00,00,00,00,00,00 ; ........
  2.1CD8  0000000000000000         db      00,00,00,00,00,00,00,00 ; ........
  2.1CE0  0000000000000000         db      00,00,00,00,00,00,00,00 ; ........
  2.1CE8  0000000000000000         db      00,00,00,00,00,00,00,00 ; ........
  2.1CF0  0000000000000000         db      00,00,00,00,00,00,00,00 ; ........
  2.1CF8  0000000000000000         db      00,00,00,00,00,00,00,00 ; ........
  2.1D00  0000000000000000         db      00,00,00,00,00,00,00,00 ; ........
  2.1D08  0000000000000000         db      00,00,00,00,00,00,00,00 ; ........
  2.1D10  0000000000000000         db      00,00,00,00,00,00,00,00 ; ........
  2.1D18  0000000000000000         db      00,00,00,00,00,00,00,00 ; ........
  2.1D20  0000000000000000         db      00,00,00,00,00,00,00,00 ; ........
  2.1D28  0000000000000000         db      00,00,00,00,00,00,00,00 ; ........
  2.1D30  0000000000000000         db      00,00,00,00,00,00,00,00 ; ........
  2.1D38  0000000000000000         db      00,00,00,00,00,00,00,00 ; ........
  2.1D40  0000000000000000         db      00,00,00,00,00,00,00,00 ; ........
  2.1D48  0000000000000000         db      00,00,00,00,00,00,00,00 ; ........
  2.1D50  0000000000000000         db      00,00,00,00,00,00,00,00 ; ........
  2.1D58  0000000000000000         db      00,00,00,00,00,00,00,00 ; ........
  2.1D60  0000000000000000         db      00,00,00,00,00,00,00,00 ; ........
  2.1D68  0000000000000000         db      00,00,00,00,00,00,00,00 ; ........
  2.1D70  0000000000000000         db      00,00,00,00,00,00,00,00 ; ........
  2.1D78  0000000000000000         db      00,00,00,00,00,00,00,00 ; ........
  2.1D80  0000000000000000         db      00,00,00,00,00,00,00,00 ; ........
  2.1D88  0000000000000000         db      00,00,00,00,00,00,00,00 ; ........
  2.1D90  0000000000000000         db      00,00,00,00,00,00,00,00 ; ........
  2.1D98  0000000000000000         db      00,00,00,00,00,00,00,00 ; ........
  2.1DA0  0000000000000000         db      00,00,00,00,00,00,00,00 ; ........
  2.1DA8  0000000000000000         db      00,00,00,00,00,00,00,00 ; ........
  2.1DB0  0000000000000000         db      00,00,00,00,00,00,00,00 ; ........
  2.1DB8  0000000000000000         db      00,00,00,00,00,00,00,00 ; ........
  2.1DC0  0000000000000000         db      00,00,00,00,00,00,00,00 ; ........
  2.1DC8  0000000000000000         db      00,00,00,00,00,00,00,00 ; ........
  2.1DD0  0000000000000000         db      00,00,00,00,00,00,00,00 ; ........
  2.1DD8  0000000000000000         db      00,00,00,00,00,00,00,00 ; ........
  2.1DE0  0000000000000000         db      00,00,00,00,00,00,00,00 ; ........
  2.1DE8  0000000000000000         db      00,00,00,00,00,00,00,00 ; ........
  2.1DF0  0000000000000000         db      00,00,00,00,00,00,00,00 ; ........
  2.1DF8  0000000000000000         db      00,00,00,00,00,00,00,00 ; ........
  2.1E00  0000000000000000         db      00,00,00,00,00,00,00,00 ; ........
  2.1E08  0000000000000000         db      00,00,00,00,00,00,00,00 ; ........
  2.1E10  0000000000000000         db      00,00,00,00,00,00,00,00 ; ........
  2.1E18  0000000000000000         db      00,00,00,00,00,00,00,00 ; ........
  2.1E20  0000000000000000         db      00,00,00,00,00,00,00,00 ; ........
  2.1E28  0000000000000000         db      00,00,00,00,00,00,00,00 ; ........
  2.1E30  0000000000000000         db      00,00,00,00,00,00,00,00 ; ........
  2.1E38  0000000000000000         db      00,00,00,00,00,00,00,00 ; ........
  2.1E40  0000000000000000         db      00,00,00,00,00,00,00,00 ; ........
  2.1E48  0000000000000000         db      00,00,00,00,00,00,00,00 ; ........
  2.1E50  0000000000000000         db      00,00,00,00,00,00,00,00 ; ........
  2.1E58  0000000000000000         db      00,00,00,00,00,00,00,00 ; ........
  2.1E60  0000000000000000         db      00,00,00,00,00,00,00,00 ; ........
  2.1E68  0000000000000000         db      00,00,00,00,00,00,00,00 ; ........
  2.1E70  0000000000000000         db      00,00,00,00,00,00,00,00 ; ........
  2.1E78  0000000000000000         db      00,00,00,00,00,00,00,00 ; ........
  2.1E80  0000000000000000         db      00,00,00,00,00,00,00,00 ; ........
  2.1E88  0000000000000000         db      00,00,00,00,00,00,00,00 ; ........
  2.1E90  0000000000000000         db      00,00,00,00,00,00,00,00 ; ........
  2.1E98  0000000000000000         db      00,00,00,00,00,00,00,00 ; ........
  2.1EA0  0000000000000000         db      00,00,00,00,00,00,00,00 ; ........
  2.1EA8  0000000000000000         db      00,00,00,00,00,00,00,00 ; ........
  2.1EB0  0000000000000000         db      00,00,00,00,00,00,00,00 ; ........
  2.1EB8  0000000000000000         db      00,00,00,00,00,00,00,00 ; ........
  2.1EC0  0000000000000000         db      00,00,00,00,00,00,00,00 ; ........
  2.1EC8  0000000000000000         db      00,00,00,00,00,00,00,00 ; ........
  2.1ED0  0000000000000000         db      00,00,00,00,00,00,00,00 ; ........
  2.1ED8  0000000000000000         db      00,00,00,00,00,00,00,00 ; ........
  2.1EE0  0000000000000000         db      00,00,00,00,00,00,00,00 ; ........
  2.1EE8  0000000000000000         db      00,00,00,00,00,00,00,00 ; ........
  2.1EF0  0000000000000000         db      00,00,00,00,00,00,00,00 ; ........
  2.1EF8  0000000000000000         db      00,00,00,00,00,00,00,00 ; ........
  2.1F00  0000000000000000         db      00,00,00,00,00,00,00,00 ; ........
  2.1F08  0000000000000000         db      00,00,00,00,00,00,00,00 ; ........
  2.1F10  0000000000000000         db      00,00,00,00,00,00,00,00 ; ........
  2.1F18  0000000000000000         db      00,00,00,00,00,00,00,00 ; ........
  2.1F20  0000000000000000         db      00,00,00,00,00,00,00,00 ; ........
  2.1F28  0000000000000000         db      00,00,00,00,00,00,00,00 ; ........
  2.1F30  0000000000000000         db      00,00,00,00,00,00,00,00 ; ........
  2.1F38  0000000000000000         db      00,00,00,00,00,00,00,00 ; ........
  2.1F40  0000000000000000         db      00,00,00,00,00,00,00,00 ; ........
  2.1F48  0000000000000000         db      00,00,00,00,00,00,00,00 ; ........
  2.1F50  0000000000000000         db      00,00,00,00,00,00,00,00 ; ........
  2.1F58  0000000000000000         db      00,00,00,00,00,00,00,00 ; ........
  2.1F60  0000000000000000         db      00,00,00,00,00,00,00,00 ; ........
  2.1F68  0000000000000000         db      00,00,00,00,00,00,00,00 ; ........
  2.1F70  0000000000000000         db      00,00,00,00,00,00,00,00 ; ........
  2.1F78  0000000000000000         db      00,00,00,00,00,00,00,00 ; ........
  2.1F80  0000000000000000         db      00,00,00,00,00,00,00,00 ; ........
  2.1F88  0000000000000000         db      00,00,00,00,00,00,00,00 ; ........
  2.1F90  0000000000000000         db      00,00,00,00,00,00,00,00 ; ........
  2.1F98  0000000000000000         db      00,00,00,00,00,00,00,00 ; ........
  2.1FA0  0000000000000000         db      00,00,00,00,00,00,00,00 ; ........
  2.1FA8  0000000000000000         db      00,00,00,00,00,00,00,00 ; ........
  2.1FB0  0000000000000000         db      00,00,00,00,00,00,00,00 ; ........
  2.1FB8  0000000000000000         db      00,00,00,00,00,00,00,00 ; ........
  2.1FC0  0000000000000000         db      00,00,00,00,00,00,00,00 ; ........
  2.1FC8  0000000000000000         db      00,00,00,00,00,00,00,00 ; ........
  2.1FD0  0000000000000000         db      00,00,00,00,00,00,00,00 ; ........
  2.1FD8  0000000000000000         db      00,00,00,00,00,00,00,00 ; ........
  2.1FE0  0000000000000000         db      00,00,00,00,00,00,00,00 ; ........
  2.1FE8  0000000000000000         db      00,00,00,00,00,00,00,00 ; ........
  2.1FF0  0000000000000000         db      00,00,00,00,00,00,00,00 ; ........
  2.1FF8  0000000000000000         db      00,00,00,00,00,00,00,00 ; ........
  2.2000  0000000000000000         db      00,00,00,00,00,00,00,00 ; ........
  2.2008  0000000000000000         db      00,00,00,00,00,00,00,00 ; ........
  2.2010  0000000000000000         db      00,00,00,00,00,00,00,00 ; ........
  2.2018  0000000000000000         db      00,00,00,00,00,00,00,00 ; ........
  2.2020  0000000000000000         db      00,00,00,00,00,00,00,00 ; ........
  2.2028  0000000000000000         db      00,00,00,00,00,00,00,00 ; ........
  2.2030  0000000000000000         db      00,00,00,00,00,00,00,00 ; ........
  2.2038  0000000000000000         db      00,00,00,00,00,00,00,00 ; ........
  2.2040  0000000000000000         db      00,00,00,00,00,00,00,00 ; ........
  2.2048  0000000000000000         db      00,00,00,00,00,00,00,00 ; ........
  2.2050  0000000000000000         db      00,00,00,00,00,00,00,00 ; ........
  2.2058  0000000000000000         db      00,00,00,00,00,00,00,00 ; ........
  2.2060  0000000000000000         db      00,00,00,00,00,00,00,00 ; ........
  2.2068  0000000000000000         db      00,00,00,00,00,00,00,00 ; ........
  2.2070  0000000000000000         db      00,00,00,00,00,00,00,00 ; ........
  2.2078  0000000000000000         db      00,00,00,00,00,00,00,00 ; ........
  2.2080  0000000000000000         db      00,00,00,00,00,00,00,00 ; ........
  2.2088  0000000000000000         db      00,00,00,00,00,00,00,00 ; ........
  2.2090  0000000000000000         db      00,00,00,00,00,00,00,00 ; ........
  2.2098  0000000000000000         db      00,00,00,00,00,00,00,00 ; ........
  2.20A0  0000000000000000         db      00,00,00,00,00,00,00,00 ; ........
  2.20A8  0000000000000000         db      00,00,00,00,00,00,00,00 ; ........
  2.20B0  0000000000000000         db      00,00,00,00,00,00,00,00 ; ........
  2.20B8  0000000000000000         db      00,00,00,00,00,00,00,00 ; ........
  2.20C0  0000000000000000         db      00,00,00,00,00,00,00,00 ; ........
  2.20C8  0000000000000000         db      00,00,00,00,00,00,00,00 ; ........
  2.20D0  0000000000000000         db      00,00,00,00,00,00,00,00 ; ........
  2.20D8  0000000000000000         db      00,00,00,00,00,00,00,00 ; ........
  2.20E0  0000000000000000         db      00,00,00,00,00,00,00,00 ; ........
  2.20E8  0000000000000000         db      00,00,00,00,00,00,00,00 ; ........
  2.20F0  0000000000000000         db      00,00,00,00,00,00,00,00 ; ........
  2.20F8  0000000000000000         db      00,00,00,00,00,00,00,00 ; ........
  2.2100  0000000000000000         db      00,00,00,00,00,00,00,00 ; ........
  2.2108  0000000000000000         db      00,00,00,00,00,00,00,00 ; ........
  2.2110  0000000000000000         db      00,00,00,00,00,00,00,00 ; ........
  2.2118  0000000000000000         db      00,00,00,00,00,00,00,00 ; ........
  2.2120  0000000000000000         db      00,00,00,00,00,00,00,00 ; ........
  2.2128  0000000000000000         db      00,00,00,00,00,00,00,00 ; ........
  2.2130  0000000000000000         db      00,00,00,00,00,00,00,00 ; ........
  2.2138  0000000000000000         db      00,00,00,00,00,00,00,00 ; ........
  2.2140  0000000000000000         db      00,00,00,00,00,00,00,00 ; ........
  2.2148  0000000000000000         db      00,00,00,00,00,00,00,00 ; ........
  2.2150  0000000000000000         db      00,00,00,00,00,00,00,00 ; ........
  2.2158  0000000000000000         db      00,00,00,00,00,00,00,00 ; ........
  2.2160  0000000000000000         db      00,00,00,00,00,00,00,00 ; ........
  2.2168  0000000000000000         db      00,00,00,00,00,00,00,00 ; ........
  2.2170  0000000000000000         db      00,00,00,00,00,00,00,00 ; ........
  2.2178  0000000000000000         db      00,00,00,00,00,00,00,00 ; ........
  2.2180  0000000000000000         db      00,00,00,00,00,00,00,00 ; ........
  2.2188  0000000000000000         db      00,00,00,00,00,00,00,00 ; ........
  2.2190  0000000000000000         db      00,00,00,00,00,00,00,00 ; ........
  2.2198  0000000000000000         db      00,00,00,00,00,00,00,00 ; ........
  2.21A0  0000000000000000         db      00,00,00,00,00,00,00,00 ; ........
  2.21A8  0000000000000000         db      00,00,00,00,00,00,00,00 ; ........
  2.21B0  0000000000000000         db      00,00,00,00,00,00,00,00 ; ........
  2.21B8  0000000000000000         db      00,00,00,00,00,00,00,00 ; ........
  2.21C0  0000000000000000         db      00,00,00,00,00,00,00,00 ; ........
  2.21C8  0000000000000000         db      00,00,00,00,00,00,00,00 ; ........
  2.21D0  0000000000000000         db      00,00,00,00,00,00,00,00 ; ........
  2.21D8  0000000000000000         db      00,00,00,00,00,00,00,00 ; ........
  2.21E0  0000000000000000         db      00,00,00,00,00,00,00,00 ; ........
  2.21E8  0000000000000000         db      00,00,00,00,00,00,00,00 ; ........
  2.21F0  0000000000000000         db      00,00,00,00,00,00,00,00 ; ........
  2.21F8  0000000000000000         db      00,00,00,00,00,00,00,00 ; ........
  2.2200  0000000000000000         db      00,00,00,00,00,00,00,00 ; ........
  2.2208  0000000000000000         db      00,00,00,00,00,00,00,00 ; ........
  2.2210  0000000000000000         db      00,00,00,00,00,00,00,00 ; ........
  2.2218  0000000000000000         db      00,00,00,00,00,00,00,00 ; ........
  2.2220  0000000000000000         db      00,00,00,00,00,00,00,00 ; ........
  2.2228  0000000000000000         db      00,00,00,00,00,00,00,00 ; ........
  2.2230  0000000000000000         db      00,00,00,00,00,00,00,00 ; ........
  2.2238  0000000000000000         db      00,00,00,00,00,00,00,00 ; ........
  2.2240  0000000000000000         db      00,00,00,00,00,00,00,00 ; ........
  2.2248  0000000000000000         db      00,00,00,00,00,00,00,00 ; ........
  2.2250  0000000000000000         db      00,00,00,00,00,00,00,00 ; ........
  2.2258  0000000000000000         db      00,00,00,00,00,00,00,00 ; ........
  2.2260  0000000000000000         db      00,00,00,00,00,00,00,00 ; ........
  2.2268  0000000000000000         db      00,00,00,00,00,00,00,00 ; ........
  2.2270  0000000000000000         db      00,00,00,00,00,00,00,00 ; ........
  2.2278  0000000000000000         db      00,00,00,00,00,00,00,00 ; ........
  2.2280  0000000000000000         db      00,00,00,00,00,00,00,00 ; ........
  2.2288  0000000000000000         db      00,00,00,00,00,00,00,00 ; ........
  2.2290  0000000000000000         db      00,00,00,00,00,00,00,00 ; ........
  2.2298  0000000000000000         db      00,00,00,00,00,00,00,00 ; ........
  2.22A0  0000000000000000         db      00,00,00,00,00,00,00,00 ; ........
  2.22A8  0000000000000000         db      00,00,00,00,00,00,00,00 ; ........
  2.22B0  0000000000000000         db      00,00,00,00,00,00,00,00 ; ........
  2.22B8  0000000000000000         db      00,00,00,00,00,00,00,00 ; ........
  2.22C0  0000000000000000         db      00,00,00,00,00,00,00,00 ; ........
  2.22C8  0000000000000000         db      00,00,00,00,00,00,00,00 ; ........
  2.22D0  0000000000000000         db      00,00,00,00,00,00,00,00 ; ........
  2.22D8  0000000000000000         db      00,00,00,00,00,00,00,00 ; ........
  2.22E0  0000000000000000         db      00,00,00,00,00,00,00,00 ; ........
  2.22E8  0000000000000000         db      00,00,00,00,00,00,00,00 ; ........
  2.22F0  0000000000000000         db      00,00,00,00,00,00,00,00 ; ........
  2.22F8  0000000000000000         db      00,00,00,00,00,00,00,00 ; ........
  2.2300  0000000000000000         db      00,00,00,00,00,00,00,00 ; ........
  2.2308  0000000000000000         db      00,00,00,00,00,00,00,00 ; ........
  2.2310  0000000000000000         db      00,00,00,00,00,00,00,00 ; ........
  2.2318  0000000000000000         db      00,00,00,00,00,00,00,00 ; ........
  2.2320  0000000000000000         db      00,00,00,00,00,00,00,00 ; ........
  2.2328  0000000000000000         db      00,00,00,00,00,00,00,00 ; ........
  2.2330  0000000000000000         db      00,00,00,00,00,00,00,00 ; ........
  2.2338  0000000000000000         db      00,00,00,00,00,00,00,00 ; ........
  2.2340  0000000000000000         db      00,00,00,00,00,00,00,00 ; ........
  2.2348  0000000000000000         db      00,00,00,00,00,00,00,00 ; ........
  2.2350  0000000000000000         db      00,00,00,00,00,00,00,00 ; ........
  2.2358  0000000000000000         db      00,00,00,00,00,00,00,00 ; ........
  2.2360  0000000000000000         db      00,00,00,00,00,00,00,00 ; ........
  2.2368  0000000000000000         db      00,00,00,00,00,00,00,00 ; ........
  2.2370  0000000000000000         db      00,00,00,00,00,00,00,00 ; ........
  2.2378  0000000000000000         db      00,00,00,00,00,00,00,00 ; ........
  2.2380  0000000000000000         db      00,00,00,00,00,00,00,00 ; ........
  2.2388  0000000000000000         db      00,00,00,00,00,00,00,00 ; ........
  2.2390  0000000000000000         db      00,00,00,00,00,00,00,00 ; ........
  2.2398  0000000000000000         db      00,00,00,00,00,00,00,00 ; ........
  2.23A0  0000000000000000         db      00,00,00,00,00,00,00,00 ; ........
  2.23A8  0000000000000000         db      00,00,00,00,00,00,00,00 ; ........
  2.23B0  0000000000000000         db      00,00,00,00,00,00,00,00 ; ........
  2.23B8  0000000000000000         db      00,00,00,00,00,00,00,00 ; ........
  2.23C0  0000000000000000         db      00,00,00,00,00,00,00,00 ; ........
  2.23C8  0000000000000000         db      00,00,00,00,00,00,00,00 ; ........
  2.23D0  0000000000000000         db      00,00,00,00,00,00,00,00 ; ........
  2.23D8  0000000000000000         db      00,00,00,00,00,00,00,00 ; ........
  2.23E0  0000000000000000         db      00,00,00,00,00,00,00,00 ; ........
  2.23E8  0000000000000000         db      00,00,00,00,00,00,00,00 ; ........
  2.23F0  0000000000000000         db      00,00,00,00,00,00,00,00 ; ........
  2.23F8  0000000000000000         db      00,00,00,00,00,00,00,00 ; ........
  2.2400  0000000000000000         db      00,00,00,00,00,00,00,00 ; ........
  2.2408  0000000000000000         db      00,00,00,00,00,00,00,00 ; ........
  2.2410  0000000000000000         db      00,00,00,00,00,00,00,00 ; ........
  2.2418  0000000000000000         db      00,00,00,00,00,00,00,00 ; ........
  2.2420  0000000000000000         db      00,00,00,00,00,00,00,00 ; ........
  2.2428  0000000000000000         db      00,00,00,00,00,00,00,00 ; ........
  2.2430  0000000000000000         db      00,00,00,00,00,00,00,00 ; ........
  2.2438  0000000000000000         db      00,00,00,00,00,00,00,00 ; ........
  2.2440  0000000000000000         db      00,00,00,00,00,00,00,00 ; ........
  2.2448  0000000000000000         db      00,00,00,00,00,00,00,00 ; ........
  2.2450  0000000000000000         db      00,00,00,00,00,00,00,00 ; ........
  2.2458  0000000000000000         db      00,00,00,00,00,00,00,00 ; ........
  2.2460  0000000000000000         db      00,00,00,00,00,00,00,00 ; ........
  2.2468  0000000000000000         db      00,00,00,00,00,00,00,00 ; ........
  2.2470  0000000000000000         db      00,00,00,00,00,00,00,00 ; ........
  2.2478  0000000000000000         db      00,00,00,00,00,00,00,00 ; ........
  2.2480  0000000000000000         db      00,00,00,00,00,00,00,00 ; ........
  2.2488  0000000000000000         db      00,00,00,00,00,00,00,00 ; ........
  2.2490  0000000000000000         db      00,00,00,00,00,00,00,00 ; ........
  2.2498  0000000000000000         db      00,00,00,00,00,00,00,00 ; ........
  2.24A0  0000000000000000         db      00,00,00,00,00,00,00,00 ; ........
  2.24A8  0000000000000000         db      00,00,00,00,00,00,00,00 ; ........
  2.24B0  0000000000000000         db      00,00,00,00,00,00,00,00 ; ........
  2.24B8  0000000000000000         db      00,00,00,00,00,00,00,00 ; ........
  2.24C0  0000000000000000         db      00,00,00,00,00,00,00,00 ; ........
  2.24C8  0000000000000000         db      00,00,00,00,00,00,00,00 ; ........
  2.24D0  0000000000000000         db      00,00,00,00,00,00,00,00 ; ........
  2.24D8  0000000000000000         db      00,00,00,00,00,00,00,00 ; ........
  2.24E0  0000000000000000         db      00,00,00,00,00,00,00,00 ; ........
  2.24E8  0000000000000000         db      00,00,00,00,00,00,00,00 ; ........
  2.24F0  0000000000000000         db      00,00,00,00,00,00,00,00 ; ........
  2.24F8  0000000000000000         db      00,00,00,00,00,00,00,00 ; ........
  2.2500  0000000000000000         db      00,00,00,00,00,00,00,00 ; ........
  2.2508  0000000000000000         db      00,00,00,00,00,00,00,00 ; ........
  2.2510  0000000000000000         db      00,00,00,00,00,00,00,00 ; ........
  2.2518  0000000000000000         db      00,00,00,00,00,00,00,00 ; ........
  2.2520  0000000000000000         db      00,00,00,00,00,00,00,00 ; ........
  2.2528  0000000000000000         db      00,00,00,00,00,00,00,00 ; ........
  2.2530  0000000000000000         db      00,00,00,00,00,00,00,00 ; ........
  2.2538  0000000000000000         db      00,00,00,00,00,00,00,00 ; ........
  2.2540  0000000000000000         db      00,00,00,00,00,00,00,00 ; ........
  2.2548  0000000000000000         db      00,00,00,00,00,00,00,00 ; ........
  2.2550  0000000000000000         db      00,00,00,00,00,00,00,00 ; ........
  2.2558  0000000000000000         db      00,00,00,00,00,00,00,00 ; ........
  2.2560  0000000000000000         db      00,00,00,00,00,00,00,00 ; ........
  2.2568  0000000000000000         db      00,00,00,00,00,00,00,00 ; ........
  2.2570  0000000000000000         db      00,00,00,00,00,00,00,00 ; ........
  2.2578  0000000000000000         db      00,00,00,00,00,00,00,00 ; ........
  2.2580  0000000000000000         db      00,00,00,00,00,00,00,00 ; ........
  2.2588  0000000000000000         db      00,00,00,00,00,00,00,00 ; ........
  2.2590  0000000000000000         db      00,00,00,00,00,00,00,00 ; ........
  2.2598  0000000000000000         db      00,00,00,00,00,00,00,00 ; ........
  2.25A0  0000000000000000         db      00,00,00,00,00,00,00,00 ; ........
  2.25A8  0000000000000000         db      00,00,00,00,00,00,00,00 ; ........
  2.25B0  0000000000000000         db      00,00,00,00,00,00,00,00 ; ........
  2.25B8  0000000000000000         db      00,00,00,00,00,00,00,00 ; ........
  2.25C0  0000000000000000         db      00,00,00,00,00,00,00,00 ; ........
  2.25C8  0000000000000000         db      00,00,00,00,00,00,00,00 ; ........
  2.25D0  0000000000000000         db      00,00,00,00,00,00,00,00 ; ........
  2.25D8  0000000000000000         db      00,00,00,00,00,00,00,00 ; ........
  2.25E0  0000000000000000         db      00,00,00,00,00,00,00,00 ; ........
  2.25E8  0000000000000000         db      00,00,00,00,00,00,00,00 ; ........
  2.25F0  0000000000000000         db      00,00,00,00,00,00,00,00 ; ........
  2.25F8  0000000000000000         db      00,00,00,00,00,00,00,00 ; ........
  2.2600  0000000000000000         db      00,00,00,00,00,00,00,00 ; ........
  2.2608  0000000000000000         db      00,00,00,00,00,00,00,00 ; ........
  2.2610  0000000000000000         db      00,00,00,00,00,00,00,00 ; ........
  2.2618  0000000000000000         db      00,00,00,00,00,00,00,00 ; ........
  2.2620  0000000000000000         db      00,00,00,00,00,00,00,00 ; ........
  2.2628  0000000000000000         db      00,00,00,00,00,00,00,00 ; ........
  2.2630  0000000000000000         db      00,00,00,00,00,00,00,00 ; ........
  2.2638  0000000000000000         db      00,00,00,00,00,00,00,00 ; ........
  2.2640  0000000000000000         db      00,00,00,00,00,00,00,00 ; ........
  2.2648  0000000000000000         db      00,00,00,00,00,00,00,00 ; ........
  2.2650  0000000000000000         db      00,00,00,00,00,00,00,00 ; ........
  2.2658  0000000000000000         db      00,00,00,00,00,00,00,00 ; ........
  2.2660  0000000000000000         db      00,00,00,00,00,00,00,00 ; ........
  2.2668  0000000000000000         db      00,00,00,00,00,00,00,00 ; ........
  2.2670  0000000000000000         db      00,00,00,00,00,00,00,00 ; ........
  2.2678  0000000000000000         db      00,00,00,00,00,00,00,00 ; ........
  2.2680  0000000000000000         db      00,00,00,00,00,00,00,00 ; ........
  2.2688  0000000000000000         db      00,00,00,00,00,00,00,00 ; ........
  2.2690  0000000000000000         db      00,00,00,00,00,00,00,00 ; ........
  2.2698  0000000000000000         db      00,00,00,00,00,00,00,00 ; ........
  2.26A0  0000000000000000         db      00,00,00,00,00,00,00,00 ; ........
  2.26A8  0000000000000000         db      00,00,00,00,00,00,00,00 ; ........
  2.26B0  0000000000000000         db      00,00,00,00,00,00,00,00 ; ........
  2.26B8  0000000000000000         db      00,00,00,00,00,00,00,00 ; ........
  2.26C0  0000000000000000         db      00,00,00,00,00,00,00,00 ; ........
  2.26C8  0000000000000000         db      00,00,00,00,00,00,00,00 ; ........
  2.26D0  0000000000000000         db      00,00,00,00,00,00,00,00 ; ........
  2.26D8  0000000000000000         db      00,00,00,00,00,00,00,00 ; ........
  2.26E0  0000000000000000         db      00,00,00,00,00,00,00,00 ; ........
  2.26E8  0000000000000000         db      00,00,00,00,00,00,00,00 ; ........
  2.26F0  0000000000000000         db      00,00,00,00,00,00,00,00 ; ........
  2.26F8  0000000000000000         db      00,00,00,00,00,00,00,00 ; ........
  2.2700  0000000000000000         db      00,00,00,00,00,00,00,00 ; ........
  2.2708  0000000000000000         db      00,00,00,00,00,00,00,00 ; ........
  2.2710  0000000000000000         db      00,00,00,00,00,00,00,00 ; ........
  2.2718  0000000000000000         db      00,00,00,00,00,00,00,00 ; ........
  2.2720  0000000000000000         db      00,00,00,00,00,00,00,00 ; ........
  2.2728  0000000000000000         db      00,00,00,00,00,00,00,00 ; ........
  2.2730  0000000000000000         db      00,00,00,00,00,00,00,00 ; ........
  2.2738  0000000000000000         db      00,00,00,00,00,00,00,00 ; ........
  2.2740  0000000000000000         db      00,00,00,00,00,00,00,00 ; ........
  2.2748  0000000000000000         db      00,00,00,00,00,00,00,00 ; ........
  2.2750  0000000000000000         db      00,00,00,00,00,00,00,00 ; ........
  2.2758  0000000000000000         db      00,00,00,00,00,00,00,00 ; ........
  2.2760  0000000000000000         db      00,00,00,00,00,00,00,00 ; ........
  2.2768  0000000000000000         db      00,00,00,00,00,00,00,00 ; ........
  2.2770  0000000000000000         db      00,00,00,00,00,00,00,00 ; ........
  2.2778  0000000000000000         db      00,00,00,00,00,00,00,00 ; ........
  2.2780  0000000000000000         db      00,00,00,00,00,00,00,00 ; ........
  2.2788  0000000000000000         db      00,00,00,00,00,00,00,00 ; ........
  2.2790  0000000000000000         db      00,00,00,00,00,00,00,00 ; ........
  2.2798  0000000000000000         db      00,00,00,00,00,00,00,00 ; ........
  2.27A0  0000000000000000         db      00,00,00,00,00,00,00,00 ; ........
  2.27A8  0000000000000000         db      00,00,00,00,00,00,00,00 ; ........
  2.27B0  0000000000000000         db      00,00,00,00,00,00,00,00 ; ........
  2.27B8  0000000000000000         db      00,00,00,00,00,00,00,00 ; ........
  2.27C0  0000000000000000         db      00,00,00,00,00,00,00,00 ; ........
  2.27C8  0000000000000000         db      00,00,00,00,00,00,00,00 ; ........
  2.27D0  0000000000000000         db      00,00,00,00,00,00,00,00 ; ........
  2.27D8  0000000000000000         db      00,00,00,00,00,00,00,00 ; ........
  2.27E0  0000000000000000         db      00,00,00,00,00,00,00,00 ; ........
  2.27E8  0000000000000000         db      00,00,00,00,00,00,00,00 ; ........
  2.27F0  0000000000000000         db      00,00,00,00,00,00,00,00 ; ........
  2.27F8  0000000000000000         db      00,00,00,00,00,00,00,00 ; ........
  2.2800  0000000000000000         db      00,00,00,00,00,00,00,00 ; ........
  2.2808  0000000000000000         db      00,00,00,00,00,00,00,00 ; ........
  2.2810  0000000000000000         db      00,00,00,00,00,00,00,00 ; ........
  2.2818  0000000000000000         db      00,00,00,00,00,00,00,00 ; ........
  2.2820  0000000000000000         db      00,00,00,00,00,00,00,00 ; ........
  2.2828  0000000000000000         db      00,00,00,00,00,00,00,00 ; ........
  2.2830  0000000000000000         db      00,00,00,00,00,00,00,00 ; ........
  2.2838  0000000000000000         db      00,00,00,00,00,00,00,00 ; ........
  2.2840  0000000000000000         db      00,00,00,00,00,00,00,00 ; ........
  2.2848  0000000000000000         db      00,00,00,00,00,00,00,00 ; ........
  2.2850  0000000000000000         db      00,00,00,00,00,00,00,00 ; ........
  2.2858  0000000000000000         db      00,00,00,00,00,00,00,00 ; ........
  2.2860  0000000000000000         db      00,00,00,00,00,00,00,00 ; ........
  2.2868  0000000000000000         db      00,00,00,00,00,00,00,00 ; ........
  2.2870  0000000000000000         db      00,00,00,00,00,00,00,00 ; ........
  2.2878  0000000000000000         db      00,00,00,00,00,00,00,00 ; ........
  2.2880  0000000000000000         db      00,00,00,00,00,00,00,00 ; ........
  2.2888  0000000000000000         db      00,00,00,00,00,00,00,00 ; ........
  2.2890  0000000000000000         db      00,00,00,00,00,00,00,00 ; ........
  2.2898  0000000000000000         db      00,00,00,00,00,00,00,00 ; ........
  2.28A0  0000000000000000         db      00,00,00,00,00,00,00,00 ; ........
  2.28A8  0000000000000000         db      00,00,00,00,00,00,00,00 ; ........
  2.28B0  0000000000000000         db      00,00,00,00,00,00,00,00 ; ........
  2.28B8  0000000000000000         db      00,00,00,00,00,00,00,00 ; ........
  2.28C0  0000000000000000         db      00,00,00,00,00,00,00,00 ; ........
  2.28C8  0000000000000000         db      00,00,00,00,00,00,00,00 ; ........
  2.28D0  0000000000000000         db      00,00,00,00,00,00,00,00 ; ........
  2.28D8  0000000000000000         db      00,00,00,00,00,00,00,00 ; ........
  2.28E0  0000000000000000         db      00,00,00,00,00,00,00,00 ; ........
  2.28E8  0000000000000000         db      00,00,00,00,00,00,00,00 ; ........
  2.28F0  0000000000000000         db      00,00,00,00,00,00,00,00 ; ........
  2.28F8  0000000000000000         db      00,00,00,00,00,00,00,00 ; ........
  2.2900  0000000000000000         db      00,00,00,00,00,00,00,00 ; ........
  2.2908  0000000000000000         db      00,00,00,00,00,00,00,00 ; ........
  2.2910  0000000000000000         db      00,00,00,00,00,00,00,00 ; ........
  2.2918  0000000000000000         db      00,00,00,00,00,00,00,00 ; ........
  2.2920  0000000000000000         db      00,00,00,00,00,00,00,00 ; ........
  2.2928  0000000000000000         db      00,00,00,00,00,00,00,00 ; ........
  2.2930  0000000000000000         db      00,00,00,00,00,00,00,00 ; ........
  2.2938  0000000000000000         db      00,00,00,00,00,00,00,00 ; ........
  2.2940  0000000000000000         db      00,00,00,00,00,00,00,00 ; ........
  2.2948  0000000000000000         db      00,00,00,00,00,00,00,00 ; ........
  2.2950  0000000000000000         db      00,00,00,00,00,00,00,00 ; ........
  2.2958  0000000000000000         db      00,00,00,00,00,00,00,00 ; ........
  2.2960  0000000000000000         db      00,00,00,00,00,00,00,00 ; ........
  2.2968  0000000000000000         db      00,00,00,00,00,00,00,00 ; ........
  2.2970  0000000000000000         db      00,00,00,00,00,00,00,00 ; ........
  2.2978  0000000000000000         db      00,00,00,00,00,00,00,00 ; ........
  2.2980  0000000000000000         db      00,00,00,00,00,00,00,00 ; ........
  2.2988  0000000000000000         db      00,00,00,00,00,00,00,00 ; ........
  2.2990  0000000000000000         db      00,00,00,00,00,00,00,00 ; ........
  2.2998  0000000000000000         db      00,00,00,00,00,00,00,00 ; ........
  2.29A0  0000000000000000         db      00,00,00,00,00,00,00,00 ; ........
  2.29A8  0000000000000000         db      00,00,00,00,00,00,00,00 ; ........
  2.29B0  0000000000000000         db      00,00,00,00,00,00,00,00 ; ........
  2.29B8  0000000000000000         db      00,00,00,00,00,00,00,00 ; ........
  2.29C0  0000000000000000         db      00,00,00,00,00,00,00,00 ; ........
  2.29C8  0000000000000000         db      00,00,00,00,00,00,00,00 ; ........
  2.29D0  0000000000000000         db      00,00,00,00,00,00,00,00 ; ........
  2.29D8  0000000000000000         db      00,00,00,00,00,00,00,00 ; ........
  2.29E0  0000000000000000         db      00,00,00,00,00,00,00,00 ; ........
  2.29E8  0000000000000000         db      00,00,00,00,00,00,00,00 ; ........
  2.29F0  0000000000000000         db      00,00,00,00,00,00,00,00 ; ........
  2.29F8  0000000000000000         db      00,00,00,00,00,00,00,00 ; ........
  2.2A00  0000000000000000         db      00,00,00,00,00,00,00,00 ; ........
  2.2A08  0000000000000000         db      00,00,00,00,00,00,00,00 ; ........
  2.2A10  0000000000000000         db      00,00,00,00,00,00,00,00 ; ........
  2.2A18  0000000000000000         db      00,00,00,00,00,00,00,00 ; ........
  2.2A20  0000000000000000         db      00,00,00,00,00,00,00,00 ; ........
  2.2A28  0000000000000000         db      00,00,00,00,00,00,00,00 ; ........
  2.2A30  0000000000000000         db      00,00,00,00,00,00,00,00 ; ........
  2.2A38  0000000000000000         db      00,00,00,00,00,00,00,00 ; ........
  2.2A40  0000000000000000         db      00,00,00,00,00,00,00,00 ; ........
  2.2A48  0000000000000000         db      00,00,00,00,00,00,00,00 ; ........
  2.2A50  0000000000000000         db      00,00,00,00,00,00,00,00 ; ........
  2.2A58  0000000000000000         db      00,00,00,00,00,00,00,00 ; ........
  2.2A60  0000000000000000         db      00,00,00,00,00,00,00,00 ; ........
  2.2A68  0000000000000000         db      00,00,00,00,00,00,00,00 ; ........
  2.2A70  0000000000000000         db      00,00,00,00,00,00,00,00 ; ........
  2.2A78  0000000000000000         db      00,00,00,00,00,00,00,00 ; ........
  2.2A80  0000000000000000         db      00,00,00,00,00,00,00,00 ; ........
  2.2A88  0000000000000000         db      00,00,00,00,00,00,00,00 ; ........
  2.2A90  0000000000000000         db      00,00,00,00,00,00,00,00 ; ........
  2.2A98  0000000000000000         db      00,00,00,00,00,00,00,00 ; ........
  2.2AA0  0000000000000000         db      00,00,00,00,00,00,00,00 ; ........
  2.2AA8  0000000000000000         db      00,00,00,00,00,00,00,00 ; ........
  2.2AB0  0000000000000000         db      00,00,00,00,00,00,00,00 ; ........
  2.2AB8  0000000000000000         db      00,00,00,00,00,00,00,00 ; ........
  2.2AC0  0000000000000000         db      00,00,00,00,00,00,00,00 ; ........
  2.2AC8  0000000000000000         db      00,00,00,00,00,00,00,00 ; ........
  2.2AD0  0000000000000000         db      00,00,00,00,00,00,00,00 ; ........
  2.2AD8  0000000000000000         db      00,00,00,00,00,00,00,00 ; ........
  2.2AE0  0000000000000000         db      00,00,00,00,00,00,00,00 ; ........
  2.2AE8  0000000000000000         db      00,00,00,00,00,00,00,00 ; ........
  2.2AF0  0000000000000000         db      00,00,00,00,00,00,00,00 ; ........
  2.2AF8  0000000000000000         db      00,00,00,00,00,00,00,00 ; ........
  2.2B00  0000000000000000         db      00,00,00,00,00,00,00,00 ; ........
  2.2B08  0000000000000000         db      00,00,00,00,00,00,00,00 ; ........
  2.2B10  0000000000000000         db      00,00,00,00,00,00,00,00 ; ........
  2.2B18  0000000000000000         db      00,00,00,00,00,00,00,00 ; ........
  2.2B20  0000000000000000         db      00,00,00,00,00,00,00,00 ; ........
  2.2B28  0000000000000000         db      00,00,00,00,00,00,00,00 ; ........
  2.2B30  0000000000000000         db      00,00,00,00,00,00,00,00 ; ........
  2.2B38  0000000000000000         db      00,00,00,00,00,00,00,00 ; ........
  2.2B40  0000000000000000         db      00,00,00,00,00,00,00,00 ; ........
  2.2B48  0000000000000000         db      00,00,00,00,00,00,00,00 ; ........
  2.2B50  0000000000000000         db      00,00,00,00,00,00,00,00 ; ........
  2.2B58  0000000000000000         db      00,00,00,00,00,00,00,00 ; ........
  2.2B60  0000000000000000         db      00,00,00,00,00,00,00,00 ; ........
  2.2B68  0000000000000000         db      00,00,00,00,00,00,00,00 ; ........
  2.2B70  0000000000000000         db      00,00,00,00,00,00,00,00 ; ........
  2.2B78  0000000000000000         db      00,00,00,00,00,00,00,00 ; ........
  2.2B80  0000000000000000         db      00,00,00,00,00,00,00,00 ; ........
  2.2B88  0000000000000000         db      00,00,00,00,00,00,00,00 ; ........
  2.2B90  0000000000000000         db      00,00,00,00,00,00,00,00 ; ........
  2.2B98  0000000000000000         db      00,00,00,00,00,00,00,00 ; ........
  2.2BA0  0000000000000000         db      00,00,00,00,00,00,00,00 ; ........
  2.2BA8  0000000000000000         db      00,00,00,00,00,00,00,00 ; ........
  2.2BB0  0000000000000000         db      00,00,00,00,00,00,00,00 ; ........
  2.2BB8  0000000000000000         db      00,00,00,00,00,00,00,00 ; ........
  2.2BC0  0000000000000000         db      00,00,00,00,00,00,00,00 ; ........
  2.2BC8  0000000000000000         db      00,00,00,00,00,00,00,00 ; ........
  2.2BD0  0000000000000000         db      00,00,00,00,00,00,00,00 ; ........
  2.2BD8  0000000000000000         db      00,00,00,00,00,00,00,00 ; ........
  2.2BE0  0000000000000000         db      00,00,00,00,00,00,00,00 ; ........
  2.2BE8  0000000000000000         db      00,00,00,00,00,00,00,00 ; ........
  2.2BF0  0000000000000000         db      00,00,00,00,00,00,00,00 ; ........
  2.2BF8  0000000000000000         db      00,00,00,00,00,00,00,00 ; ........
  2.2C00  0000000000000000         db      00,00,00,00,00,00,00,00 ; ........
  2.2C08  0000000000000000         db      00,00,00,00,00,00,00,00 ; ........
  2.2C10  0000000000000000         db      00,00,00,00,00,00,00,00 ; ........
  2.2C18  0000000000000000         db      00,00,00,00,00,00,00,00 ; ........
  2.2C20  0000000000000000         db      00,00,00,00,00,00,00,00 ; ........
  2.2C28  0000000000000000         db      00,00,00,00,00,00,00,00 ; ........
  2.2C30  0000000000000000         db      00,00,00,00,00,00,00,00 ; ........
  2.2C38  0000000000000000         db      00,00,00,00,00,00,00,00 ; ........
  2.2C40  0000000000000000         db      00,00,00,00,00,00,00,00 ; ........
  2.2C48  0000000000000000         db      00,00,00,00,00,00,00,00 ; ........
  2.2C50  0000000000000000         db      00,00,00,00,00,00,00,00 ; ........
  2.2C58  0000000000000000         db      00,00,00,00,00,00,00,00 ; ........
  2.2C60  0000000000000000         db      00,00,00,00,00,00,00,00 ; ........
  2.2C68  0000000000000000         db      00,00,00,00,00,00,00,00 ; ........
  2.2C70  0000000000000000         db      00,00,00,00,00,00,00,00 ; ........
  2.2C78  0000000000000000         db      00,00,00,00,00,00,00,00 ; ........
  2.2C80  0000000000000000         db      00,00,00,00,00,00,00,00 ; ........
  2.2C88  0000000000000000         db      00,00,00,00,00,00,00,00 ; ........
  2.2C90  0000000000000000         db      00,00,00,00,00,00,00,00 ; ........
  2.2C98  0000000000000000         db      00,00,00,00,00,00,00,00 ; ........
  2.2CA0  0000000000000000         db      00,00,00,00,00,00,00,00 ; ........
  2.2CA8  0000000000000000         db      00,00,00,00,00,00,00,00 ; ........
  2.2CB0  0000000000000000         db      00,00,00,00,00,00,00,00 ; ........
  2.2CB8  0000000000000000         db      00,00,00,00,00,00,00,00 ; ........
  2.2CC0  0000000000000000         db      00,00,00,00,00,00,00,00 ; ........
  2.2CC8  0000000000000000         db      00,00,00,00,00,00,00,00 ; ........
  2.2CD0  0000000000000000         db      00,00,00,00,00,00,00,00 ; ........
  2.2CD8  0000000000000000         db      00,00,00,00,00,00,00,00 ; ........
  2.2CE0  0000000000000000         db      00,00,00,00,00,00,00,00 ; ........
  2.2CE8  0000000000000000         db      00,00,00,00,00,00,00,00 ; ........
  2.2CF0  0000000000000000         db      00,00,00,00,00,00,00,00 ; ........
  2.2CF8  0000000000000000         db      00,00,00,00,00,00,00,00 ; ........
  2.2D00  0000000000000000         db      00,00,00,00,00,00,00,00 ; ........
  2.2D08  0000000000000000         db      00,00,00,00,00,00,00,00 ; ........
  2.2D10  0000000000000000         db      00,00,00,00,00,00,00,00 ; ........
  2.2D18  0000000000000000         db      00,00,00,00,00,00,00,00 ; ........
  2.2D20  0000000000000000         db      00,00,00,00,00,00,00,00 ; ........
  2.2D28  0000000000000000         db      00,00,00,00,00,00,00,00 ; ........
  2.2D30  0000000000000000         db      00,00,00,00,00,00,00,00 ; ........
  2.2D38  0000000000000000         db      00,00,00,00,00,00,00,00 ; ........
  2.2D40  0000000000000000         db      00,00,00,00,00,00,00,00 ; ........
  2.2D48  0000000000000000         db      00,00,00,00,00,00,00,00 ; ........
  2.2D50  0000000000000000         db      00,00,00,00,00,00,00,00 ; ........
  2.2D58  0000000000000000         db      00,00,00,00,00,00,00,00 ; ........
  2.2D60  0000000000000000         db      00,00,00,00,00,00,00,00 ; ........
  2.2D68  0000000000000000         db      00,00,00,00,00,00,00,00 ; ........
  2.2D70  0000000000000000         db      00,00,00,00,00,00,00,00 ; ........
  2.2D78  0000000000000000         db      00,00,00,00,00,00,00,00 ; ........
  2.2D80  0000000000000000         db      00,00,00,00,00,00,00,00 ; ........
  2.2D88  0000000000000000         db      00,00,00,00,00,00,00,00 ; ........
  2.2D90  0000000000000000         db      00,00,00,00,00,00,00,00 ; ........
  2.2D98  0000                     db      00,00                   ; ..

